
prj2.elf:     file format elf32-littlearm

Sections:
Idx Name          Size      VMA       LMA       File off  Algn
  0 .isr_vector   000001ac  08000000  08000000  00010000  2**0
                  CONTENTS, ALLOC, LOAD, READONLY, DATA
  1 .text         00003fc4  080001b0  080001b0  000101b0  2**4
                  CONTENTS, ALLOC, LOAD, READONLY, CODE
  2 .rodata       00000088  08004174  08004174  00014174  2**2
                  CONTENTS, ALLOC, LOAD, READONLY, DATA
  3 .ARM.extab    00000000  080041fc  080041fc  00020010  2**0
                  CONTENTS
  4 .ARM          00000008  080041fc  080041fc  000141fc  2**2
                  CONTENTS, ALLOC, LOAD, READONLY, DATA
  5 .preinit_array 00000000  08004204  08004204  00020010  2**0
                  CONTENTS, ALLOC, LOAD, DATA
  6 .init_array   00000004  08004204  08004204  00014204  2**2
                  CONTENTS, ALLOC, LOAD, DATA
  7 .fini_array   00000004  08004208  08004208  00014208  2**2
                  CONTENTS, ALLOC, LOAD, DATA
  8 .data         00000010  20000000  0800420c  00020000  2**2
                  CONTENTS, ALLOC, LOAD, DATA
  9 .bss          00004970  20000010  0800421c  00020010  2**2
                  ALLOC
 10 ._user_heap_stack 00000600  20004980  0800421c  00024980  2**0
                  ALLOC
 11 .ARM.attributes 00000030  00000000  00000000  00020010  2**0
                  CONTENTS, READONLY
 12 .debug_info   000103a6  00000000  00000000  00020040  2**0
                  CONTENTS, READONLY, DEBUGGING
 13 .debug_abbrev 00002143  00000000  00000000  000303e6  2**0
                  CONTENTS, READONLY, DEBUGGING
 14 .debug_aranges 00000b70  00000000  00000000  00032530  2**3
                  CONTENTS, READONLY, DEBUGGING
 15 .debug_ranges 00000a78  00000000  00000000  000330a0  2**3
                  CONTENTS, READONLY, DEBUGGING
 16 .debug_macro  0000238b  00000000  00000000  00033b18  2**0
                  CONTENTS, READONLY, DEBUGGING
 17 .debug_line   0000a2c8  00000000  00000000  00035ea3  2**0
                  CONTENTS, READONLY, DEBUGGING
 18 .debug_str    000d71a1  00000000  00000000  0004016b  2**0
                  CONTENTS, READONLY, DEBUGGING
 19 .comment      0000007b  00000000  00000000  0011730c  2**0
                  CONTENTS, READONLY
 20 .debug_frame  00002df8  00000000  00000000  00117388  2**2
                  CONTENTS, READONLY, DEBUGGING

Disassembly of section .text:

080001b0 <__do_global_dtors_aux>:
 80001b0:	b510      	push	{r4, lr}
 80001b2:	4c05      	ldr	r4, [pc, #20]	; (80001c8 <__do_global_dtors_aux+0x18>)
 80001b4:	7823      	ldrb	r3, [r4, #0]
 80001b6:	b933      	cbnz	r3, 80001c6 <__do_global_dtors_aux+0x16>
 80001b8:	4b04      	ldr	r3, [pc, #16]	; (80001cc <__do_global_dtors_aux+0x1c>)
 80001ba:	b113      	cbz	r3, 80001c2 <__do_global_dtors_aux+0x12>
 80001bc:	4804      	ldr	r0, [pc, #16]	; (80001d0 <__do_global_dtors_aux+0x20>)
 80001be:	f3af 8000 	nop.w
 80001c2:	2301      	movs	r3, #1
 80001c4:	7023      	strb	r3, [r4, #0]
 80001c6:	bd10      	pop	{r4, pc}
 80001c8:	20000010 	.word	0x20000010
 80001cc:	00000000 	.word	0x00000000
 80001d0:	0800415c 	.word	0x0800415c

080001d4 <frame_dummy>:
 80001d4:	b508      	push	{r3, lr}
 80001d6:	4b03      	ldr	r3, [pc, #12]	; (80001e4 <frame_dummy+0x10>)
 80001d8:	b11b      	cbz	r3, 80001e2 <frame_dummy+0xe>
 80001da:	4903      	ldr	r1, [pc, #12]	; (80001e8 <frame_dummy+0x14>)
 80001dc:	4803      	ldr	r0, [pc, #12]	; (80001ec <frame_dummy+0x18>)
 80001de:	f3af 8000 	nop.w
 80001e2:	bd08      	pop	{r3, pc}
 80001e4:	00000000 	.word	0x00000000
 80001e8:	20000014 	.word	0x20000014
 80001ec:	0800415c 	.word	0x0800415c

080001f0 <__aeabi_uldivmod>:
 80001f0:	b953      	cbnz	r3, 8000208 <__aeabi_uldivmod+0x18>
 80001f2:	b94a      	cbnz	r2, 8000208 <__aeabi_uldivmod+0x18>
 80001f4:	2900      	cmp	r1, #0
 80001f6:	bf08      	it	eq
 80001f8:	2800      	cmpeq	r0, #0
 80001fa:	bf1c      	itt	ne
 80001fc:	f04f 31ff 	movne.w	r1, #4294967295
 8000200:	f04f 30ff 	movne.w	r0, #4294967295
 8000204:	f000 b972 	b.w	80004ec <__aeabi_idiv0>
 8000208:	f1ad 0c08 	sub.w	ip, sp, #8
 800020c:	e96d ce04 	strd	ip, lr, [sp, #-16]!
 8000210:	f000 f806 	bl	8000220 <__udivmoddi4>
 8000214:	f8dd e004 	ldr.w	lr, [sp, #4]
 8000218:	e9dd 2302 	ldrd	r2, r3, [sp, #8]
 800021c:	b004      	add	sp, #16
 800021e:	4770      	bx	lr

08000220 <__udivmoddi4>:
 8000220:	e92d 47f0 	stmdb	sp!, {r4, r5, r6, r7, r8, r9, sl, lr}
 8000224:	9e08      	ldr	r6, [sp, #32]
 8000226:	4604      	mov	r4, r0
 8000228:	4688      	mov	r8, r1
 800022a:	2b00      	cmp	r3, #0
 800022c:	d14b      	bne.n	80002c6 <__udivmoddi4+0xa6>
 800022e:	428a      	cmp	r2, r1
 8000230:	4615      	mov	r5, r2
 8000232:	d967      	bls.n	8000304 <__udivmoddi4+0xe4>
 8000234:	fab2 f282 	clz	r2, r2
 8000238:	b14a      	cbz	r2, 800024e <__udivmoddi4+0x2e>
 800023a:	f1c2 0720 	rsb	r7, r2, #32
 800023e:	fa01 f302 	lsl.w	r3, r1, r2
 8000242:	fa20 f707 	lsr.w	r7, r0, r7
 8000246:	4095      	lsls	r5, r2
 8000248:	ea47 0803 	orr.w	r8, r7, r3
 800024c:	4094      	lsls	r4, r2
 800024e:	ea4f 4e15 	mov.w	lr, r5, lsr #16
 8000252:	0c23      	lsrs	r3, r4, #16
 8000254:	fbb8 f7fe 	udiv	r7, r8, lr
 8000258:	fa1f fc85 	uxth.w	ip, r5
 800025c:	fb0e 8817 	mls	r8, lr, r7, r8
 8000260:	ea43 4308 	orr.w	r3, r3, r8, lsl #16
 8000264:	fb07 f10c 	mul.w	r1, r7, ip
 8000268:	4299      	cmp	r1, r3
 800026a:	d909      	bls.n	8000280 <__udivmoddi4+0x60>
 800026c:	18eb      	adds	r3, r5, r3
 800026e:	f107 30ff 	add.w	r0, r7, #4294967295
 8000272:	f080 811b 	bcs.w	80004ac <__udivmoddi4+0x28c>
 8000276:	4299      	cmp	r1, r3
 8000278:	f240 8118 	bls.w	80004ac <__udivmoddi4+0x28c>
 800027c:	3f02      	subs	r7, #2
 800027e:	442b      	add	r3, r5
 8000280:	1a5b      	subs	r3, r3, r1
 8000282:	b2a4      	uxth	r4, r4
 8000284:	fbb3 f0fe 	udiv	r0, r3, lr
 8000288:	fb0e 3310 	mls	r3, lr, r0, r3
 800028c:	ea44 4403 	orr.w	r4, r4, r3, lsl #16
 8000290:	fb00 fc0c 	mul.w	ip, r0, ip
 8000294:	45a4      	cmp	ip, r4
 8000296:	d909      	bls.n	80002ac <__udivmoddi4+0x8c>
 8000298:	192c      	adds	r4, r5, r4
 800029a:	f100 33ff 	add.w	r3, r0, #4294967295
 800029e:	f080 8107 	bcs.w	80004b0 <__udivmoddi4+0x290>
 80002a2:	45a4      	cmp	ip, r4
 80002a4:	f240 8104 	bls.w	80004b0 <__udivmoddi4+0x290>
 80002a8:	3802      	subs	r0, #2
 80002aa:	442c      	add	r4, r5
 80002ac:	ea40 4007 	orr.w	r0, r0, r7, lsl #16
 80002b0:	eba4 040c 	sub.w	r4, r4, ip
 80002b4:	2700      	movs	r7, #0
 80002b6:	b11e      	cbz	r6, 80002c0 <__udivmoddi4+0xa0>
 80002b8:	40d4      	lsrs	r4, r2
 80002ba:	2300      	movs	r3, #0
 80002bc:	e9c6 4300 	strd	r4, r3, [r6]
 80002c0:	4639      	mov	r1, r7
 80002c2:	e8bd 87f0 	ldmia.w	sp!, {r4, r5, r6, r7, r8, r9, sl, pc}
 80002c6:	428b      	cmp	r3, r1
 80002c8:	d909      	bls.n	80002de <__udivmoddi4+0xbe>
 80002ca:	2e00      	cmp	r6, #0
 80002cc:	f000 80eb 	beq.w	80004a6 <__udivmoddi4+0x286>
 80002d0:	2700      	movs	r7, #0
 80002d2:	e9c6 0100 	strd	r0, r1, [r6]
 80002d6:	4638      	mov	r0, r7
 80002d8:	4639      	mov	r1, r7
 80002da:	e8bd 87f0 	ldmia.w	sp!, {r4, r5, r6, r7, r8, r9, sl, pc}
 80002de:	fab3 f783 	clz	r7, r3
 80002e2:	2f00      	cmp	r7, #0
 80002e4:	d147      	bne.n	8000376 <__udivmoddi4+0x156>
 80002e6:	428b      	cmp	r3, r1
 80002e8:	d302      	bcc.n	80002f0 <__udivmoddi4+0xd0>
 80002ea:	4282      	cmp	r2, r0
 80002ec:	f200 80fa 	bhi.w	80004e4 <__udivmoddi4+0x2c4>
 80002f0:	1a84      	subs	r4, r0, r2
 80002f2:	eb61 0303 	sbc.w	r3, r1, r3
 80002f6:	2001      	movs	r0, #1
 80002f8:	4698      	mov	r8, r3
 80002fa:	2e00      	cmp	r6, #0
 80002fc:	d0e0      	beq.n	80002c0 <__udivmoddi4+0xa0>
 80002fe:	e9c6 4800 	strd	r4, r8, [r6]
 8000302:	e7dd      	b.n	80002c0 <__udivmoddi4+0xa0>
 8000304:	b902      	cbnz	r2, 8000308 <__udivmoddi4+0xe8>
 8000306:	deff      	udf	#255	; 0xff
 8000308:	fab2 f282 	clz	r2, r2
 800030c:	2a00      	cmp	r2, #0
 800030e:	f040 808f 	bne.w	8000430 <__udivmoddi4+0x210>
 8000312:	1b49      	subs	r1, r1, r5
 8000314:	ea4f 4e15 	mov.w	lr, r5, lsr #16
 8000318:	fa1f f885 	uxth.w	r8, r5
 800031c:	2701      	movs	r7, #1
 800031e:	fbb1 fcfe 	udiv	ip, r1, lr
 8000322:	0c23      	lsrs	r3, r4, #16
 8000324:	fb0e 111c 	mls	r1, lr, ip, r1
 8000328:	ea43 4301 	orr.w	r3, r3, r1, lsl #16
 800032c:	fb08 f10c 	mul.w	r1, r8, ip
 8000330:	4299      	cmp	r1, r3
 8000332:	d907      	bls.n	8000344 <__udivmoddi4+0x124>
 8000334:	18eb      	adds	r3, r5, r3
 8000336:	f10c 30ff 	add.w	r0, ip, #4294967295
 800033a:	d202      	bcs.n	8000342 <__udivmoddi4+0x122>
 800033c:	4299      	cmp	r1, r3
 800033e:	f200 80cd 	bhi.w	80004dc <__udivmoddi4+0x2bc>
 8000342:	4684      	mov	ip, r0
 8000344:	1a59      	subs	r1, r3, r1
 8000346:	b2a3      	uxth	r3, r4
 8000348:	fbb1 f0fe 	udiv	r0, r1, lr
 800034c:	fb0e 1410 	mls	r4, lr, r0, r1
 8000350:	ea43 4404 	orr.w	r4, r3, r4, lsl #16
 8000354:	fb08 f800 	mul.w	r8, r8, r0
 8000358:	45a0      	cmp	r8, r4
 800035a:	d907      	bls.n	800036c <__udivmoddi4+0x14c>
 800035c:	192c      	adds	r4, r5, r4
 800035e:	f100 33ff 	add.w	r3, r0, #4294967295
 8000362:	d202      	bcs.n	800036a <__udivmoddi4+0x14a>
 8000364:	45a0      	cmp	r8, r4
 8000366:	f200 80b6 	bhi.w	80004d6 <__udivmoddi4+0x2b6>
 800036a:	4618      	mov	r0, r3
 800036c:	eba4 0408 	sub.w	r4, r4, r8
 8000370:	ea40 400c 	orr.w	r0, r0, ip, lsl #16
 8000374:	e79f      	b.n	80002b6 <__udivmoddi4+0x96>
 8000376:	f1c7 0c20 	rsb	ip, r7, #32
 800037a:	40bb      	lsls	r3, r7
 800037c:	fa22 fe0c 	lsr.w	lr, r2, ip
 8000380:	ea4e 0e03 	orr.w	lr, lr, r3
 8000384:	fa01 f407 	lsl.w	r4, r1, r7
 8000388:	fa20 f50c 	lsr.w	r5, r0, ip
 800038c:	fa21 f30c 	lsr.w	r3, r1, ip
 8000390:	ea4f 481e 	mov.w	r8, lr, lsr #16
 8000394:	4325      	orrs	r5, r4
 8000396:	fbb3 f9f8 	udiv	r9, r3, r8
 800039a:	0c2c      	lsrs	r4, r5, #16
 800039c:	fb08 3319 	mls	r3, r8, r9, r3
 80003a0:	fa1f fa8e 	uxth.w	sl, lr
 80003a4:	ea44 4303 	orr.w	r3, r4, r3, lsl #16
 80003a8:	fb09 f40a 	mul.w	r4, r9, sl
 80003ac:	429c      	cmp	r4, r3
 80003ae:	fa02 f207 	lsl.w	r2, r2, r7
 80003b2:	fa00 f107 	lsl.w	r1, r0, r7
 80003b6:	d90b      	bls.n	80003d0 <__udivmoddi4+0x1b0>
 80003b8:	eb1e 0303 	adds.w	r3, lr, r3
 80003bc:	f109 30ff 	add.w	r0, r9, #4294967295
 80003c0:	f080 8087 	bcs.w	80004d2 <__udivmoddi4+0x2b2>
 80003c4:	429c      	cmp	r4, r3
 80003c6:	f240 8084 	bls.w	80004d2 <__udivmoddi4+0x2b2>
 80003ca:	f1a9 0902 	sub.w	r9, r9, #2
 80003ce:	4473      	add	r3, lr
 80003d0:	1b1b      	subs	r3, r3, r4
 80003d2:	b2ad      	uxth	r5, r5
 80003d4:	fbb3 f0f8 	udiv	r0, r3, r8
 80003d8:	fb08 3310 	mls	r3, r8, r0, r3
 80003dc:	ea45 4403 	orr.w	r4, r5, r3, lsl #16
 80003e0:	fb00 fa0a 	mul.w	sl, r0, sl
 80003e4:	45a2      	cmp	sl, r4
 80003e6:	d908      	bls.n	80003fa <__udivmoddi4+0x1da>
 80003e8:	eb1e 0404 	adds.w	r4, lr, r4
 80003ec:	f100 33ff 	add.w	r3, r0, #4294967295
 80003f0:	d26b      	bcs.n	80004ca <__udivmoddi4+0x2aa>
 80003f2:	45a2      	cmp	sl, r4
 80003f4:	d969      	bls.n	80004ca <__udivmoddi4+0x2aa>
 80003f6:	3802      	subs	r0, #2
 80003f8:	4474      	add	r4, lr
 80003fa:	ea40 4009 	orr.w	r0, r0, r9, lsl #16
 80003fe:	fba0 8902 	umull	r8, r9, r0, r2
 8000402:	eba4 040a 	sub.w	r4, r4, sl
 8000406:	454c      	cmp	r4, r9
 8000408:	46c2      	mov	sl, r8
 800040a:	464b      	mov	r3, r9
 800040c:	d354      	bcc.n	80004b8 <__udivmoddi4+0x298>
 800040e:	d051      	beq.n	80004b4 <__udivmoddi4+0x294>
 8000410:	2e00      	cmp	r6, #0
 8000412:	d069      	beq.n	80004e8 <__udivmoddi4+0x2c8>
 8000414:	ebb1 050a 	subs.w	r5, r1, sl
 8000418:	eb64 0403 	sbc.w	r4, r4, r3
 800041c:	fa04 fc0c 	lsl.w	ip, r4, ip
 8000420:	40fd      	lsrs	r5, r7
 8000422:	40fc      	lsrs	r4, r7
 8000424:	ea4c 0505 	orr.w	r5, ip, r5
 8000428:	e9c6 5400 	strd	r5, r4, [r6]
 800042c:	2700      	movs	r7, #0
 800042e:	e747      	b.n	80002c0 <__udivmoddi4+0xa0>
 8000430:	f1c2 0320 	rsb	r3, r2, #32
 8000434:	fa20 f703 	lsr.w	r7, r0, r3
 8000438:	4095      	lsls	r5, r2
 800043a:	fa01 f002 	lsl.w	r0, r1, r2
 800043e:	fa21 f303 	lsr.w	r3, r1, r3
 8000442:	ea4f 4e15 	mov.w	lr, r5, lsr #16
 8000446:	4338      	orrs	r0, r7
 8000448:	0c01      	lsrs	r1, r0, #16
 800044a:	fbb3 f7fe 	udiv	r7, r3, lr
 800044e:	fa1f f885 	uxth.w	r8, r5
 8000452:	fb0e 3317 	mls	r3, lr, r7, r3
 8000456:	ea41 4103 	orr.w	r1, r1, r3, lsl #16
 800045a:	fb07 f308 	mul.w	r3, r7, r8
 800045e:	428b      	cmp	r3, r1
 8000460:	fa04 f402 	lsl.w	r4, r4, r2
 8000464:	d907      	bls.n	8000476 <__udivmoddi4+0x256>
 8000466:	1869      	adds	r1, r5, r1
 8000468:	f107 3cff 	add.w	ip, r7, #4294967295
 800046c:	d22f      	bcs.n	80004ce <__udivmoddi4+0x2ae>
 800046e:	428b      	cmp	r3, r1
 8000470:	d92d      	bls.n	80004ce <__udivmoddi4+0x2ae>
 8000472:	3f02      	subs	r7, #2
 8000474:	4429      	add	r1, r5
 8000476:	1acb      	subs	r3, r1, r3
 8000478:	b281      	uxth	r1, r0
 800047a:	fbb3 f0fe 	udiv	r0, r3, lr
 800047e:	fb0e 3310 	mls	r3, lr, r0, r3
 8000482:	ea41 4103 	orr.w	r1, r1, r3, lsl #16
 8000486:	fb00 f308 	mul.w	r3, r0, r8
 800048a:	428b      	cmp	r3, r1
 800048c:	d907      	bls.n	800049e <__udivmoddi4+0x27e>
 800048e:	1869      	adds	r1, r5, r1
 8000490:	f100 3cff 	add.w	ip, r0, #4294967295
 8000494:	d217      	bcs.n	80004c6 <__udivmoddi4+0x2a6>
 8000496:	428b      	cmp	r3, r1
 8000498:	d915      	bls.n	80004c6 <__udivmoddi4+0x2a6>
 800049a:	3802      	subs	r0, #2
 800049c:	4429      	add	r1, r5
 800049e:	1ac9      	subs	r1, r1, r3
 80004a0:	ea40 4707 	orr.w	r7, r0, r7, lsl #16
 80004a4:	e73b      	b.n	800031e <__udivmoddi4+0xfe>
 80004a6:	4637      	mov	r7, r6
 80004a8:	4630      	mov	r0, r6
 80004aa:	e709      	b.n	80002c0 <__udivmoddi4+0xa0>
 80004ac:	4607      	mov	r7, r0
 80004ae:	e6e7      	b.n	8000280 <__udivmoddi4+0x60>
 80004b0:	4618      	mov	r0, r3
 80004b2:	e6fb      	b.n	80002ac <__udivmoddi4+0x8c>
 80004b4:	4541      	cmp	r1, r8
 80004b6:	d2ab      	bcs.n	8000410 <__udivmoddi4+0x1f0>
 80004b8:	ebb8 0a02 	subs.w	sl, r8, r2
 80004bc:	eb69 020e 	sbc.w	r2, r9, lr
 80004c0:	3801      	subs	r0, #1
 80004c2:	4613      	mov	r3, r2
 80004c4:	e7a4      	b.n	8000410 <__udivmoddi4+0x1f0>
 80004c6:	4660      	mov	r0, ip
 80004c8:	e7e9      	b.n	800049e <__udivmoddi4+0x27e>
 80004ca:	4618      	mov	r0, r3
 80004cc:	e795      	b.n	80003fa <__udivmoddi4+0x1da>
 80004ce:	4667      	mov	r7, ip
 80004d0:	e7d1      	b.n	8000476 <__udivmoddi4+0x256>
 80004d2:	4681      	mov	r9, r0
 80004d4:	e77c      	b.n	80003d0 <__udivmoddi4+0x1b0>
 80004d6:	3802      	subs	r0, #2
 80004d8:	442c      	add	r4, r5
 80004da:	e747      	b.n	800036c <__udivmoddi4+0x14c>
 80004dc:	f1ac 0c02 	sub.w	ip, ip, #2
 80004e0:	442b      	add	r3, r5
 80004e2:	e72f      	b.n	8000344 <__udivmoddi4+0x124>
 80004e4:	4638      	mov	r0, r7
 80004e6:	e708      	b.n	80002fa <__udivmoddi4+0xda>
 80004e8:	4637      	mov	r7, r6
 80004ea:	e6e9      	b.n	80002c0 <__udivmoddi4+0xa0>

080004ec <__aeabi_idiv0>:
 80004ec:	4770      	bx	lr
 80004ee:	bf00      	nop

080004f0 <main>:
/**
  * @brief  The application entry point.
  * @retval int
  */
int main(void)
{
 80004f0:	b580      	push	{r7, lr}
 80004f2:	af00      	add	r7, sp, #0
  /* USER CODE END 1 */

  /* MCU Configuration--------------------------------------------------------*/

  /* Reset of all peripherals, Initializes the Flash interface and the Systick. */
  HAL_Init();
 80004f4:	f000 f976 	bl	80007e4 <HAL_Init>
  /* USER CODE BEGIN Init */

  /* USER CODE END Init */

  /* Configure the system clock */
  SystemClock_Config();
 80004f8:	f000 f824 	bl	8000544 <SystemClock_Config>
  /* USER CODE BEGIN SysInit */

  /* USER CODE END SysInit */

  /* Initialize all configured peripherals */
  MX_GPIO_Init();
 80004fc:	f000 f882 	bl	8000604 <MX_GPIO_Init>
  /* USER CODE BEGIN 2 */

  /* USER CODE END 2 */

  /* Init scheduler */
  osKernelInitialize();
 8000500:	f001 f8b6 	bl	8001670 <osKernelInitialize>
  /* add queues, ... */
  /* USER CODE END RTOS_QUEUES */

  /* Create the thread(s) */
  /* creation of defaultTask */
  defaultTaskHandle = osThreadNew(StartDefaultTask, NULL, &defaultTask_attributes);
 8000504:	4a09      	ldr	r2, [pc, #36]	; (800052c <main+0x3c>)
 8000506:	2100      	movs	r1, #0
 8000508:	4809      	ldr	r0, [pc, #36]	; (8000530 <main+0x40>)
 800050a:	f001 f91b 	bl	8001744 <osThreadNew>
 800050e:	4602      	mov	r2, r0
 8000510:	4b08      	ldr	r3, [pc, #32]	; (8000534 <main+0x44>)
 8000512:	601a      	str	r2, [r3, #0]

  /* creation of myTask02 */
  myTask02Handle = osThreadNew(StartTask02, NULL, &myTask02_attributes);
 8000514:	4a08      	ldr	r2, [pc, #32]	; (8000538 <main+0x48>)
 8000516:	2100      	movs	r1, #0
 8000518:	4808      	ldr	r0, [pc, #32]	; (800053c <main+0x4c>)
 800051a:	f001 f913 	bl	8001744 <osThreadNew>
 800051e:	4602      	mov	r2, r0
 8000520:	4b07      	ldr	r3, [pc, #28]	; (8000540 <main+0x50>)
 8000522:	601a      	str	r2, [r3, #0]
  /* USER CODE BEGIN RTOS_THREADS */
  /* add threads, ... */
  /* USER CODE END RTOS_THREADS */

  /* Start scheduler */
  osKernelStart();
 8000524:	f001 f8d8 	bl	80016d8 <osKernelStart>
 
  /* We should never get here as control is now taken by the scheduler */
  /* Infinite loop */
  /* USER CODE BEGIN WHILE */
  while (1)
 8000528:	e7fe      	b.n	8000528 <main+0x38>
 800052a:	bf00      	nop
 800052c:	080041a4 	.word	0x080041a4
 8000530:	0800066d 	.word	0x0800066d
 8000534:	20004934 	.word	0x20004934
 8000538:	080041c8 	.word	0x080041c8
 800053c:	0800068d 	.word	0x0800068d
 8000540:	20004938 	.word	0x20004938

08000544 <SystemClock_Config>:
/**
  * @brief System Clock Configuration
  * @retval None
  */
void SystemClock_Config(void)
{
 8000544:	b580      	push	{r7, lr}
 8000546:	b094      	sub	sp, #80	; 0x50
 8000548:	af00      	add	r7, sp, #0
  RCC_OscInitTypeDef RCC_OscInitStruct = {0};
 800054a:	f107 0320 	add.w	r3, r7, #32
 800054e:	2230      	movs	r2, #48	; 0x30
 8000550:	2100      	movs	r1, #0
 8000552:	4618      	mov	r0, r3
 8000554:	f003 fdf9 	bl	800414a <memset>
  RCC_ClkInitTypeDef RCC_ClkInitStruct = {0};
 8000558:	f107 030c 	add.w	r3, r7, #12
 800055c:	2200      	movs	r2, #0
 800055e:	601a      	str	r2, [r3, #0]
 8000560:	605a      	str	r2, [r3, #4]
 8000562:	609a      	str	r2, [r3, #8]
 8000564:	60da      	str	r2, [r3, #12]
 8000566:	611a      	str	r2, [r3, #16]

  /** Configure the main internal regulator output voltage 
  */
  __HAL_RCC_PWR_CLK_ENABLE();
 8000568:	2300      	movs	r3, #0
 800056a:	60bb      	str	r3, [r7, #8]
 800056c:	4b23      	ldr	r3, [pc, #140]	; (80005fc <SystemClock_Config+0xb8>)
 800056e:	6c1b      	ldr	r3, [r3, #64]	; 0x40
 8000570:	4a22      	ldr	r2, [pc, #136]	; (80005fc <SystemClock_Config+0xb8>)
 8000572:	f043 5380 	orr.w	r3, r3, #268435456	; 0x10000000
 8000576:	6413      	str	r3, [r2, #64]	; 0x40
 8000578:	4b20      	ldr	r3, [pc, #128]	; (80005fc <SystemClock_Config+0xb8>)
 800057a:	6c1b      	ldr	r3, [r3, #64]	; 0x40
 800057c:	f003 5380 	and.w	r3, r3, #268435456	; 0x10000000
 8000580:	60bb      	str	r3, [r7, #8]
 8000582:	68bb      	ldr	r3, [r7, #8]
  __HAL_PWR_VOLTAGESCALING_CONFIG(PWR_REGULATOR_VOLTAGE_SCALE3);
 8000584:	2300      	movs	r3, #0
 8000586:	607b      	str	r3, [r7, #4]
 8000588:	4b1d      	ldr	r3, [pc, #116]	; (8000600 <SystemClock_Config+0xbc>)
 800058a:	681b      	ldr	r3, [r3, #0]
 800058c:	f423 4340 	bic.w	r3, r3, #49152	; 0xc000
 8000590:	4a1b      	ldr	r2, [pc, #108]	; (8000600 <SystemClock_Config+0xbc>)
 8000592:	f443 4380 	orr.w	r3, r3, #16384	; 0x4000
 8000596:	6013      	str	r3, [r2, #0]
 8000598:	4b19      	ldr	r3, [pc, #100]	; (8000600 <SystemClock_Config+0xbc>)
 800059a:	681b      	ldr	r3, [r3, #0]
 800059c:	f403 4340 	and.w	r3, r3, #49152	; 0xc000
 80005a0:	607b      	str	r3, [r7, #4]
 80005a2:	687b      	ldr	r3, [r7, #4]
  /** Initializes the CPU, AHB and APB busses clocks 
  */
  RCC_OscInitStruct.OscillatorType = RCC_OSCILLATORTYPE_HSI;
 80005a4:	2302      	movs	r3, #2
 80005a6:	623b      	str	r3, [r7, #32]
  RCC_OscInitStruct.HSIState = RCC_HSI_ON;
 80005a8:	2301      	movs	r3, #1
 80005aa:	62fb      	str	r3, [r7, #44]	; 0x2c
  RCC_OscInitStruct.HSICalibrationValue = RCC_HSICALIBRATION_DEFAULT;
 80005ac:	2310      	movs	r3, #16
 80005ae:	633b      	str	r3, [r7, #48]	; 0x30
  RCC_OscInitStruct.PLL.PLLState = RCC_PLL_NONE;
 80005b0:	2300      	movs	r3, #0
 80005b2:	63bb      	str	r3, [r7, #56]	; 0x38
  if (HAL_RCC_OscConfig(&RCC_OscInitStruct) != HAL_OK)
 80005b4:	f107 0320 	add.w	r3, r7, #32
 80005b8:	4618      	mov	r0, r3
 80005ba:	f000 fc49 	bl	8000e50 <HAL_RCC_OscConfig>
 80005be:	4603      	mov	r3, r0
 80005c0:	2b00      	cmp	r3, #0
 80005c2:	d001      	beq.n	80005c8 <SystemClock_Config+0x84>
  {
    Error_Handler();
 80005c4:	f000 f872 	bl	80006ac <Error_Handler>
  }
  /** Initializes the CPU, AHB and APB busses clocks 
  */
  RCC_ClkInitStruct.ClockType = RCC_CLOCKTYPE_HCLK|RCC_CLOCKTYPE_SYSCLK
 80005c8:	230f      	movs	r3, #15
 80005ca:	60fb      	str	r3, [r7, #12]
                              |RCC_CLOCKTYPE_PCLK1|RCC_CLOCKTYPE_PCLK2;
  RCC_ClkInitStruct.SYSCLKSource = RCC_SYSCLKSOURCE_HSI;
 80005cc:	2300      	movs	r3, #0
 80005ce:	613b      	str	r3, [r7, #16]
  RCC_ClkInitStruct.AHBCLKDivider = RCC_SYSCLK_DIV1;
 80005d0:	2300      	movs	r3, #0
 80005d2:	617b      	str	r3, [r7, #20]
  RCC_ClkInitStruct.APB1CLKDivider = RCC_HCLK_DIV1;
 80005d4:	2300      	movs	r3, #0
 80005d6:	61bb      	str	r3, [r7, #24]
  RCC_ClkInitStruct.APB2CLKDivider = RCC_HCLK_DIV1;
 80005d8:	2300      	movs	r3, #0
 80005da:	61fb      	str	r3, [r7, #28]

  if (HAL_RCC_ClockConfig(&RCC_ClkInitStruct, FLASH_LATENCY_0) != HAL_OK)
 80005dc:	f107 030c 	add.w	r3, r7, #12
 80005e0:	2100      	movs	r1, #0
 80005e2:	4618      	mov	r0, r3
 80005e4:	f000 fea4 	bl	8001330 <HAL_RCC_ClockConfig>
 80005e8:	4603      	mov	r3, r0
 80005ea:	2b00      	cmp	r3, #0
 80005ec:	d001      	beq.n	80005f2 <SystemClock_Config+0xae>
  {
    Error_Handler();
 80005ee:	f000 f85d 	bl	80006ac <Error_Handler>
  }
}
 80005f2:	bf00      	nop
 80005f4:	3750      	adds	r7, #80	; 0x50
 80005f6:	46bd      	mov	sp, r7
 80005f8:	bd80      	pop	{r7, pc}
 80005fa:	bf00      	nop
 80005fc:	40023800 	.word	0x40023800
 8000600:	40007000 	.word	0x40007000

08000604 <MX_GPIO_Init>:
  * @brief GPIO Initialization Function
  * @param None
  * @retval None
  */
static void MX_GPIO_Init(void)
{
 8000604:	b580      	push	{r7, lr}
 8000606:	b086      	sub	sp, #24
 8000608:	af00      	add	r7, sp, #0
  GPIO_InitTypeDef GPIO_InitStruct = {0};
 800060a:	1d3b      	adds	r3, r7, #4
 800060c:	2200      	movs	r2, #0
 800060e:	601a      	str	r2, [r3, #0]
 8000610:	605a      	str	r2, [r3, #4]
 8000612:	609a      	str	r2, [r3, #8]
 8000614:	60da      	str	r2, [r3, #12]
 8000616:	611a      	str	r2, [r3, #16]

  /* GPIO Ports Clock Enable */
  __HAL_RCC_GPIOB_CLK_ENABLE();
 8000618:	2300      	movs	r3, #0
 800061a:	603b      	str	r3, [r7, #0]
 800061c:	4b11      	ldr	r3, [pc, #68]	; (8000664 <MX_GPIO_Init+0x60>)
 800061e:	6b1b      	ldr	r3, [r3, #48]	; 0x30
 8000620:	4a10      	ldr	r2, [pc, #64]	; (8000664 <MX_GPIO_Init+0x60>)
 8000622:	f043 0302 	orr.w	r3, r3, #2
 8000626:	6313      	str	r3, [r2, #48]	; 0x30
 8000628:	4b0e      	ldr	r3, [pc, #56]	; (8000664 <MX_GPIO_Init+0x60>)
 800062a:	6b1b      	ldr	r3, [r3, #48]	; 0x30
 800062c:	f003 0302 	and.w	r3, r3, #2
 8000630:	603b      	str	r3, [r7, #0]
 8000632:	683b      	ldr	r3, [r7, #0]

  /*Configure GPIO pin Output Level */
  HAL_GPIO_WritePin(GPIOB, GPIO_PIN_14|GPIO_PIN_7, GPIO_PIN_RESET);
 8000634:	2200      	movs	r2, #0
 8000636:	f44f 4181 	mov.w	r1, #16512	; 0x4080
 800063a:	480b      	ldr	r0, [pc, #44]	; (8000668 <MX_GPIO_Init+0x64>)
 800063c:	f000 fbd4 	bl	8000de8 <HAL_GPIO_WritePin>

  /*Configure GPIO pins : PB14 PB7 */
  GPIO_InitStruct.Pin = GPIO_PIN_14|GPIO_PIN_7;
 8000640:	f44f 4381 	mov.w	r3, #16512	; 0x4080
 8000644:	607b      	str	r3, [r7, #4]
  GPIO_InitStruct.Mode = GPIO_MODE_OUTPUT_PP;
 8000646:	2301      	movs	r3, #1
 8000648:	60bb      	str	r3, [r7, #8]
  GPIO_InitStruct.Pull = GPIO_NOPULL;
 800064a:	2300      	movs	r3, #0
 800064c:	60fb      	str	r3, [r7, #12]
  GPIO_InitStruct.Speed = GPIO_SPEED_FREQ_LOW;
 800064e:	2300      	movs	r3, #0
 8000650:	613b      	str	r3, [r7, #16]
  HAL_GPIO_Init(GPIOB, &GPIO_InitStruct);
 8000652:	1d3b      	adds	r3, r7, #4
 8000654:	4619      	mov	r1, r3
 8000656:	4804      	ldr	r0, [pc, #16]	; (8000668 <MX_GPIO_Init+0x64>)
 8000658:	f000 fa1c 	bl	8000a94 <HAL_GPIO_Init>

}
 800065c:	bf00      	nop
 800065e:	3718      	adds	r7, #24
 8000660:	46bd      	mov	sp, r7
 8000662:	bd80      	pop	{r7, pc}
 8000664:	40023800 	.word	0x40023800
 8000668:	40020400 	.word	0x40020400

0800066c <StartDefaultTask>:
  * @param  argument: Not used 
  * @retval None
  */
/* USER CODE END Header_StartDefaultTask */
void StartDefaultTask(void *argument)
{
 800066c:	b580      	push	{r7, lr}
 800066e:	b082      	sub	sp, #8
 8000670:	af00      	add	r7, sp, #0
 8000672:	6078      	str	r0, [r7, #4]
  /* USER CODE BEGIN 5 */
  /* Infinite loop */
  for(;;)
  {
	HAL_GPIO_TogglePin(GPIOB,GPIO_PIN_7);
 8000674:	2180      	movs	r1, #128	; 0x80
 8000676:	4804      	ldr	r0, [pc, #16]	; (8000688 <StartDefaultTask+0x1c>)
 8000678:	f000 fbcf 	bl	8000e1a <HAL_GPIO_TogglePin>
    osDelay(500);
 800067c:	f44f 70fa 	mov.w	r0, #500	; 0x1f4
 8000680:	f001 f906 	bl	8001890 <osDelay>
	HAL_GPIO_TogglePin(GPIOB,GPIO_PIN_7);
 8000684:	e7f6      	b.n	8000674 <StartDefaultTask+0x8>
 8000686:	bf00      	nop
 8000688:	40020400 	.word	0x40020400

0800068c <StartTask02>:
* @param argument: Not used
* @retval None
*/
/* USER CODE END Header_StartTask02 */
void StartTask02(void *argument)
{
 800068c:	b580      	push	{r7, lr}
 800068e:	b082      	sub	sp, #8
 8000690:	af00      	add	r7, sp, #0
 8000692:	6078      	str	r0, [r7, #4]
  /* USER CODE BEGIN StartTask02 */
  /* Infinite loop */
  for(;;)
  {
	HAL_GPIO_TogglePin(GPIOB,GPIO_PIN_14);
 8000694:	f44f 4180 	mov.w	r1, #16384	; 0x4000
 8000698:	4803      	ldr	r0, [pc, #12]	; (80006a8 <StartTask02+0x1c>)
 800069a:	f000 fbbe 	bl	8000e1a <HAL_GPIO_TogglePin>
    osDelay(1000);
 800069e:	f44f 707a 	mov.w	r0, #1000	; 0x3e8
 80006a2:	f001 f8f5 	bl	8001890 <osDelay>
	HAL_GPIO_TogglePin(GPIOB,GPIO_PIN_14);
 80006a6:	e7f5      	b.n	8000694 <StartTask02+0x8>
 80006a8:	40020400 	.word	0x40020400

080006ac <Error_Handler>:
/**
  * @brief  This function is executed in case of error occurrence.
  * @retval None
  */
void Error_Handler(void)
{
 80006ac:	b480      	push	{r7}
 80006ae:	af00      	add	r7, sp, #0
  /* USER CODE BEGIN Error_Handler_Debug */
  /* User can add his own implementation to report the HAL error return state */

  /* USER CODE END Error_Handler_Debug */
}
 80006b0:	bf00      	nop
 80006b2:	46bd      	mov	sp, r7
 80006b4:	f85d 7b04 	ldr.w	r7, [sp], #4
 80006b8:	4770      	bx	lr
	...

080006bc <HAL_MspInit>:
/* USER CODE END 0 */
/**
  * Initializes the Global MSP.
  */
void HAL_MspInit(void)
{
 80006bc:	b580      	push	{r7, lr}
 80006be:	b082      	sub	sp, #8
 80006c0:	af00      	add	r7, sp, #0
  /* USER CODE BEGIN MspInit 0 */

  /* USER CODE END MspInit 0 */

  __HAL_RCC_SYSCFG_CLK_ENABLE();
 80006c2:	2300      	movs	r3, #0
 80006c4:	607b      	str	r3, [r7, #4]
 80006c6:	4b12      	ldr	r3, [pc, #72]	; (8000710 <HAL_MspInit+0x54>)
 80006c8:	6c5b      	ldr	r3, [r3, #68]	; 0x44
 80006ca:	4a11      	ldr	r2, [pc, #68]	; (8000710 <HAL_MspInit+0x54>)
 80006cc:	f443 4380 	orr.w	r3, r3, #16384	; 0x4000
 80006d0:	6453      	str	r3, [r2, #68]	; 0x44
 80006d2:	4b0f      	ldr	r3, [pc, #60]	; (8000710 <HAL_MspInit+0x54>)
 80006d4:	6c5b      	ldr	r3, [r3, #68]	; 0x44
 80006d6:	f403 4380 	and.w	r3, r3, #16384	; 0x4000
 80006da:	607b      	str	r3, [r7, #4]
 80006dc:	687b      	ldr	r3, [r7, #4]
  __HAL_RCC_PWR_CLK_ENABLE();
 80006de:	2300      	movs	r3, #0
 80006e0:	603b      	str	r3, [r7, #0]
 80006e2:	4b0b      	ldr	r3, [pc, #44]	; (8000710 <HAL_MspInit+0x54>)
 80006e4:	6c1b      	ldr	r3, [r3, #64]	; 0x40
 80006e6:	4a0a      	ldr	r2, [pc, #40]	; (8000710 <HAL_MspInit+0x54>)
 80006e8:	f043 5380 	orr.w	r3, r3, #268435456	; 0x10000000
 80006ec:	6413      	str	r3, [r2, #64]	; 0x40
 80006ee:	4b08      	ldr	r3, [pc, #32]	; (8000710 <HAL_MspInit+0x54>)
 80006f0:	6c1b      	ldr	r3, [r3, #64]	; 0x40
 80006f2:	f003 5380 	and.w	r3, r3, #268435456	; 0x10000000
 80006f6:	603b      	str	r3, [r7, #0]
 80006f8:	683b      	ldr	r3, [r7, #0]

  /* System interrupt init*/
  /* PendSV_IRQn interrupt configuration */
  HAL_NVIC_SetPriority(PendSV_IRQn, 15, 0);
 80006fa:	2200      	movs	r2, #0
 80006fc:	210f      	movs	r1, #15
 80006fe:	f06f 0001 	mvn.w	r0, #1
 8000702:	f000 f99e 	bl	8000a42 <HAL_NVIC_SetPriority>

  /* USER CODE BEGIN MspInit 1 */

  /* USER CODE END MspInit 1 */
}
 8000706:	bf00      	nop
 8000708:	3708      	adds	r7, #8
 800070a:	46bd      	mov	sp, r7
 800070c:	bd80      	pop	{r7, pc}
 800070e:	bf00      	nop
 8000710:	40023800 	.word	0x40023800

08000714 <NMI_Handler>:
/******************************************************************************/
/**
  * @brief This function handles Non maskable interrupt.
  */
void NMI_Handler(void)
{
 8000714:	b480      	push	{r7}
 8000716:	af00      	add	r7, sp, #0

  /* USER CODE END NonMaskableInt_IRQn 0 */
  /* USER CODE BEGIN NonMaskableInt_IRQn 1 */

  /* USER CODE END NonMaskableInt_IRQn 1 */
}
 8000718:	bf00      	nop
 800071a:	46bd      	mov	sp, r7
 800071c:	f85d 7b04 	ldr.w	r7, [sp], #4
 8000720:	4770      	bx	lr

08000722 <HardFault_Handler>:

/**
  * @brief This function handles Hard fault interrupt.
  */
void HardFault_Handler(void)
{
 8000722:	b480      	push	{r7}
 8000724:	af00      	add	r7, sp, #0
  /* USER CODE BEGIN HardFault_IRQn 0 */

  /* USER CODE END HardFault_IRQn 0 */
  while (1)
 8000726:	e7fe      	b.n	8000726 <HardFault_Handler+0x4>

08000728 <MemManage_Handler>:

/**
  * @brief This function handles Memory management fault.
  */
void MemManage_Handler(void)
{
 8000728:	b480      	push	{r7}
 800072a:	af00      	add	r7, sp, #0
  /* USER CODE BEGIN MemoryManagement_IRQn 0 */

  /* USER CODE END MemoryManagement_IRQn 0 */
  while (1)
 800072c:	e7fe      	b.n	800072c <MemManage_Handler+0x4>

0800072e <BusFault_Handler>:

/**
  * @brief This function handles Pre-fetch fault, memory access fault.
  */
void BusFault_Handler(void)
{
 800072e:	b480      	push	{r7}
 8000730:	af00      	add	r7, sp, #0
  /* USER CODE BEGIN BusFault_IRQn 0 */

  /* USER CODE END BusFault_IRQn 0 */
  while (1)
 8000732:	e7fe      	b.n	8000732 <BusFault_Handler+0x4>

08000734 <UsageFault_Handler>:

/**
  * @brief This function handles Undefined instruction or illegal state.
  */
void UsageFault_Handler(void)
{
 8000734:	b480      	push	{r7}
 8000736:	af00      	add	r7, sp, #0
  /* USER CODE BEGIN UsageFault_IRQn 0 */

  /* USER CODE END UsageFault_IRQn 0 */
  while (1)
 8000738:	e7fe      	b.n	8000738 <UsageFault_Handler+0x4>

0800073a <DebugMon_Handler>:

/**
  * @brief This function handles Debug monitor.
  */
void DebugMon_Handler(void)
{
 800073a:	b480      	push	{r7}
 800073c:	af00      	add	r7, sp, #0

  /* USER CODE END DebugMonitor_IRQn 0 */
  /* USER CODE BEGIN DebugMonitor_IRQn 1 */

  /* USER CODE END DebugMonitor_IRQn 1 */
}
 800073e:	bf00      	nop
 8000740:	46bd      	mov	sp, r7
 8000742:	f85d 7b04 	ldr.w	r7, [sp], #4
 8000746:	4770      	bx	lr

08000748 <SysTick_Handler>:

/**
  * @brief This function handles System tick timer.
  */
void SysTick_Handler(void)
{
 8000748:	b580      	push	{r7, lr}
 800074a:	af00      	add	r7, sp, #0
  /* USER CODE BEGIN SysTick_IRQn 0 */

  /* USER CODE END SysTick_IRQn 0 */
  HAL_IncTick();
 800074c:	f000 f89c 	bl	8000888 <HAL_IncTick>
#if (INCLUDE_xTaskGetSchedulerState == 1 )
  if (xTaskGetSchedulerState() != taskSCHEDULER_NOT_STARTED)
 8000750:	f002 fc90 	bl	8003074 <xTaskGetSchedulerState>
 8000754:	4603      	mov	r3, r0
 8000756:	2b01      	cmp	r3, #1
 8000758:	d001      	beq.n	800075e <SysTick_Handler+0x16>
  {
#endif /* INCLUDE_xTaskGetSchedulerState */
  xPortSysTickHandler();
 800075a:	f003 fa65 	bl	8003c28 <xPortSysTickHandler>
  }
#endif /* INCLUDE_xTaskGetSchedulerState */
  /* USER CODE BEGIN SysTick_IRQn 1 */

  /* USER CODE END SysTick_IRQn 1 */
}
 800075e:	bf00      	nop
 8000760:	bd80      	pop	{r7, pc}
	...

08000764 <SystemInit>:
  *         configuration.
  * @param  None
  * @retval None
  */
void SystemInit(void)
{
 8000764:	b480      	push	{r7}
 8000766:	af00      	add	r7, sp, #0
  /* FPU settings ------------------------------------------------------------*/
  #if (__FPU_PRESENT == 1) && (__FPU_USED == 1)
    SCB->CPACR |= ((3UL << 10*2)|(3UL << 11*2));  /* set CP10 and CP11 Full Access */
 8000768:	4b08      	ldr	r3, [pc, #32]	; (800078c <SystemInit+0x28>)
 800076a:	f8d3 3088 	ldr.w	r3, [r3, #136]	; 0x88
 800076e:	4a07      	ldr	r2, [pc, #28]	; (800078c <SystemInit+0x28>)
 8000770:	f443 0370 	orr.w	r3, r3, #15728640	; 0xf00000
 8000774:	f8c2 3088 	str.w	r3, [r2, #136]	; 0x88

  /* Configure the Vector Table location add offset address ------------------*/
#ifdef VECT_TAB_SRAM
  SCB->VTOR = SRAM_BASE | VECT_TAB_OFFSET; /* Vector Table Relocation in Internal SRAM */
#else
  SCB->VTOR = FLASH_BASE | VECT_TAB_OFFSET; /* Vector Table Relocation in Internal FLASH */
 8000778:	4b04      	ldr	r3, [pc, #16]	; (800078c <SystemInit+0x28>)
 800077a:	f04f 6200 	mov.w	r2, #134217728	; 0x8000000
 800077e:	609a      	str	r2, [r3, #8]
#endif
}
 8000780:	bf00      	nop
 8000782:	46bd      	mov	sp, r7
 8000784:	f85d 7b04 	ldr.w	r7, [sp], #4
 8000788:	4770      	bx	lr
 800078a:	bf00      	nop
 800078c:	e000ed00 	.word	0xe000ed00

08000790 <Reset_Handler>:

    .section  .text.Reset_Handler
  .weak  Reset_Handler
  .type  Reset_Handler, %function
Reset_Handler: 
  ldr   sp, =_estack       /* set stack pointer */
 8000790:	f8df d034 	ldr.w	sp, [pc, #52]	; 80007c8 <LoopFillZerobss+0x14>
 
/* Copy the data segment initializers from flash to SRAM */  
  movs  r1, #0
 8000794:	2100      	movs	r1, #0
  b  LoopCopyDataInit
 8000796:	e003      	b.n	80007a0 <LoopCopyDataInit>

08000798 <CopyDataInit>:

CopyDataInit:
  ldr  r3, =_sidata
 8000798:	4b0c      	ldr	r3, [pc, #48]	; (80007cc <LoopFillZerobss+0x18>)
  ldr  r3, [r3, r1]
 800079a:	585b      	ldr	r3, [r3, r1]
  str  r3, [r0, r1]
 800079c:	5043      	str	r3, [r0, r1]
  adds  r1, r1, #4
 800079e:	3104      	adds	r1, #4

080007a0 <LoopCopyDataInit>:
    
LoopCopyDataInit:
  ldr  r0, =_sdata
 80007a0:	480b      	ldr	r0, [pc, #44]	; (80007d0 <LoopFillZerobss+0x1c>)
  ldr  r3, =_edata
 80007a2:	4b0c      	ldr	r3, [pc, #48]	; (80007d4 <LoopFillZerobss+0x20>)
  adds  r2, r0, r1
 80007a4:	1842      	adds	r2, r0, r1
  cmp  r2, r3
 80007a6:	429a      	cmp	r2, r3
  bcc  CopyDataInit
 80007a8:	d3f6      	bcc.n	8000798 <CopyDataInit>
  ldr  r2, =_sbss
 80007aa:	4a0b      	ldr	r2, [pc, #44]	; (80007d8 <LoopFillZerobss+0x24>)
  b  LoopFillZerobss
 80007ac:	e002      	b.n	80007b4 <LoopFillZerobss>

080007ae <FillZerobss>:
/* Zero fill the bss segment. */  
FillZerobss:
  movs  r3, #0
 80007ae:	2300      	movs	r3, #0
  str  r3, [r2], #4
 80007b0:	f842 3b04 	str.w	r3, [r2], #4

080007b4 <LoopFillZerobss>:
    
LoopFillZerobss:
  ldr  r3, = _ebss
 80007b4:	4b09      	ldr	r3, [pc, #36]	; (80007dc <LoopFillZerobss+0x28>)
  cmp  r2, r3
 80007b6:	429a      	cmp	r2, r3
  bcc  FillZerobss
 80007b8:	d3f9      	bcc.n	80007ae <FillZerobss>

/* Call the clock system intitialization function.*/
  bl  SystemInit   
 80007ba:	f7ff ffd3 	bl	8000764 <SystemInit>
/* Call static constructors */
    bl __libc_init_array
 80007be:	f003 fc95 	bl	80040ec <__libc_init_array>
/* Call the application's entry point.*/
  bl  main
 80007c2:	f7ff fe95 	bl	80004f0 <main>
  bx  lr    
 80007c6:	4770      	bx	lr
  ldr   sp, =_estack       /* set stack pointer */
 80007c8:	20030000 	.word	0x20030000
  ldr  r3, =_sidata
 80007cc:	0800420c 	.word	0x0800420c
  ldr  r0, =_sdata
 80007d0:	20000000 	.word	0x20000000
  ldr  r3, =_edata
 80007d4:	20000010 	.word	0x20000010
  ldr  r2, =_sbss
 80007d8:	20000010 	.word	0x20000010
  ldr  r3, = _ebss
 80007dc:	20004980 	.word	0x20004980

080007e0 <ADC_IRQHandler>:
 * @retval None       
*/
    .section  .text.Default_Handler,"ax",%progbits
Default_Handler:
Infinite_Loop:
  b  Infinite_Loop
 80007e0:	e7fe      	b.n	80007e0 <ADC_IRQHandler>
	...

080007e4 <HAL_Init>:
  *         need to ensure that the SysTick time base is always set to 1 millisecond
  *         to have correct HAL operation.
  * @retval HAL status
  */
HAL_StatusTypeDef HAL_Init(void)
{
 80007e4:	b580      	push	{r7, lr}
 80007e6:	af00      	add	r7, sp, #0
  /* Configure Flash prefetch, Instruction cache, Data cache */ 
#if (INSTRUCTION_CACHE_ENABLE != 0U)
  __HAL_FLASH_INSTRUCTION_CACHE_ENABLE();
 80007e8:	4b0e      	ldr	r3, [pc, #56]	; (8000824 <HAL_Init+0x40>)
 80007ea:	681b      	ldr	r3, [r3, #0]
 80007ec:	4a0d      	ldr	r2, [pc, #52]	; (8000824 <HAL_Init+0x40>)
 80007ee:	f443 7300 	orr.w	r3, r3, #512	; 0x200
 80007f2:	6013      	str	r3, [r2, #0]
#endif /* INSTRUCTION_CACHE_ENABLE */

#if (DATA_CACHE_ENABLE != 0U)
  __HAL_FLASH_DATA_CACHE_ENABLE();
 80007f4:	4b0b      	ldr	r3, [pc, #44]	; (8000824 <HAL_Init+0x40>)
 80007f6:	681b      	ldr	r3, [r3, #0]
 80007f8:	4a0a      	ldr	r2, [pc, #40]	; (8000824 <HAL_Init+0x40>)
 80007fa:	f443 6380 	orr.w	r3, r3, #1024	; 0x400
 80007fe:	6013      	str	r3, [r2, #0]
#endif /* DATA_CACHE_ENABLE */

#if (PREFETCH_ENABLE != 0U)
  __HAL_FLASH_PREFETCH_BUFFER_ENABLE();
 8000800:	4b08      	ldr	r3, [pc, #32]	; (8000824 <HAL_Init+0x40>)
 8000802:	681b      	ldr	r3, [r3, #0]
 8000804:	4a07      	ldr	r2, [pc, #28]	; (8000824 <HAL_Init+0x40>)
 8000806:	f443 7380 	orr.w	r3, r3, #256	; 0x100
 800080a:	6013      	str	r3, [r2, #0]
#endif /* PREFETCH_ENABLE */

  /* Set Interrupt Group Priority */
  HAL_NVIC_SetPriorityGrouping(NVIC_PRIORITYGROUP_4);
 800080c:	2003      	movs	r0, #3
 800080e:	f000 f90d 	bl	8000a2c <HAL_NVIC_SetPriorityGrouping>

  /* Use systick as time base source and configure 1ms tick (default clock after Reset is HSI) */
  HAL_InitTick(TICK_INT_PRIORITY);
 8000812:	200f      	movs	r0, #15
 8000814:	f000 f808 	bl	8000828 <HAL_InitTick>

  /* Init the low level hardware */
  HAL_MspInit();
 8000818:	f7ff ff50 	bl	80006bc <HAL_MspInit>

  /* Return function status */
  return HAL_OK;
 800081c:	2300      	movs	r3, #0
}
 800081e:	4618      	mov	r0, r3
 8000820:	bd80      	pop	{r7, pc}
 8000822:	bf00      	nop
 8000824:	40023c00 	.word	0x40023c00

08000828 <HAL_InitTick>:
  *       implementation  in user file.
  * @param TickPriority Tick interrupt priority.
  * @retval HAL status
  */
__weak HAL_StatusTypeDef HAL_InitTick(uint32_t TickPriority)
{
 8000828:	b580      	push	{r7, lr}
 800082a:	b082      	sub	sp, #8
 800082c:	af00      	add	r7, sp, #0
 800082e:	6078      	str	r0, [r7, #4]
  /* Configure the SysTick to have interrupt in 1ms time basis*/
  if (HAL_SYSTICK_Config(SystemCoreClock / (1000U / uwTickFreq)) > 0U)
 8000830:	4b12      	ldr	r3, [pc, #72]	; (800087c <HAL_InitTick+0x54>)
 8000832:	681a      	ldr	r2, [r3, #0]
 8000834:	4b12      	ldr	r3, [pc, #72]	; (8000880 <HAL_InitTick+0x58>)
 8000836:	781b      	ldrb	r3, [r3, #0]
 8000838:	4619      	mov	r1, r3
 800083a:	f44f 737a 	mov.w	r3, #1000	; 0x3e8
 800083e:	fbb3 f3f1 	udiv	r3, r3, r1
 8000842:	fbb2 f3f3 	udiv	r3, r2, r3
 8000846:	4618      	mov	r0, r3
 8000848:	f000 f917 	bl	8000a7a <HAL_SYSTICK_Config>
 800084c:	4603      	mov	r3, r0
 800084e:	2b00      	cmp	r3, #0
 8000850:	d001      	beq.n	8000856 <HAL_InitTick+0x2e>
  {
    return HAL_ERROR;
 8000852:	2301      	movs	r3, #1
 8000854:	e00e      	b.n	8000874 <HAL_InitTick+0x4c>
  }

  /* Configure the SysTick IRQ priority */
  if (TickPriority < (1UL << __NVIC_PRIO_BITS))
 8000856:	687b      	ldr	r3, [r7, #4]
 8000858:	2b0f      	cmp	r3, #15
 800085a:	d80a      	bhi.n	8000872 <HAL_InitTick+0x4a>
  {
    HAL_NVIC_SetPriority(SysTick_IRQn, TickPriority, 0U);
 800085c:	2200      	movs	r2, #0
 800085e:	6879      	ldr	r1, [r7, #4]
 8000860:	f04f 30ff 	mov.w	r0, #4294967295
 8000864:	f000 f8ed 	bl	8000a42 <HAL_NVIC_SetPriority>
    uwTickPrio = TickPriority;
 8000868:	4a06      	ldr	r2, [pc, #24]	; (8000884 <HAL_InitTick+0x5c>)
 800086a:	687b      	ldr	r3, [r7, #4]
 800086c:	6013      	str	r3, [r2, #0]
  {
    return HAL_ERROR;
  }

  /* Return function status */
  return HAL_OK;
 800086e:	2300      	movs	r3, #0
 8000870:	e000      	b.n	8000874 <HAL_InitTick+0x4c>
    return HAL_ERROR;
 8000872:	2301      	movs	r3, #1
}
 8000874:	4618      	mov	r0, r3
 8000876:	3708      	adds	r7, #8
 8000878:	46bd      	mov	sp, r7
 800087a:	bd80      	pop	{r7, pc}
 800087c:	20000000 	.word	0x20000000
 8000880:	20000008 	.word	0x20000008
 8000884:	20000004 	.word	0x20000004

08000888 <HAL_IncTick>:
 * @note This function is declared as __weak to be overwritten in case of other 
  *      implementations in user file.
  * @retval None
  */
__weak void HAL_IncTick(void)
{
 8000888:	b480      	push	{r7}
 800088a:	af00      	add	r7, sp, #0
  uwTick += uwTickFreq;
 800088c:	4b06      	ldr	r3, [pc, #24]	; (80008a8 <HAL_IncTick+0x20>)
 800088e:	781b      	ldrb	r3, [r3, #0]
 8000890:	461a      	mov	r2, r3
 8000892:	4b06      	ldr	r3, [pc, #24]	; (80008ac <HAL_IncTick+0x24>)
 8000894:	681b      	ldr	r3, [r3, #0]
 8000896:	4413      	add	r3, r2
 8000898:	4a04      	ldr	r2, [pc, #16]	; (80008ac <HAL_IncTick+0x24>)
 800089a:	6013      	str	r3, [r2, #0]
}
 800089c:	bf00      	nop
 800089e:	46bd      	mov	sp, r7
 80008a0:	f85d 7b04 	ldr.w	r7, [sp], #4
 80008a4:	4770      	bx	lr
 80008a6:	bf00      	nop
 80008a8:	20000008 	.word	0x20000008
 80008ac:	2000493c 	.word	0x2000493c

080008b0 <HAL_GetTick>:
  * @note This function is declared as __weak to be overwritten in case of other 
  *       implementations in user file.
  * @retval tick value
  */
__weak uint32_t HAL_GetTick(void)
{
 80008b0:	b480      	push	{r7}
 80008b2:	af00      	add	r7, sp, #0
  return uwTick;
 80008b4:	4b03      	ldr	r3, [pc, #12]	; (80008c4 <HAL_GetTick+0x14>)
 80008b6:	681b      	ldr	r3, [r3, #0]
}
 80008b8:	4618      	mov	r0, r3
 80008ba:	46bd      	mov	sp, r7
 80008bc:	f85d 7b04 	ldr.w	r7, [sp], #4
 80008c0:	4770      	bx	lr
 80008c2:	bf00      	nop
 80008c4:	2000493c 	.word	0x2000493c

080008c8 <__NVIC_SetPriorityGrouping>:
           In case of a conflict between priority grouping and available
           priority bits (__NVIC_PRIO_BITS), the smallest possible priority group is set.
  \param [in]      PriorityGroup  Priority grouping field.
 */
__STATIC_INLINE void __NVIC_SetPriorityGrouping(uint32_t PriorityGroup)
{
 80008c8:	b480      	push	{r7}
 80008ca:	b085      	sub	sp, #20
 80008cc:	af00      	add	r7, sp, #0
 80008ce:	6078      	str	r0, [r7, #4]
  uint32_t reg_value;
  uint32_t PriorityGroupTmp = (PriorityGroup & (uint32_t)0x07UL);             /* only values 0..7 are used          */
 80008d0:	687b      	ldr	r3, [r7, #4]
 80008d2:	f003 0307 	and.w	r3, r3, #7
 80008d6:	60fb      	str	r3, [r7, #12]

  reg_value  =  SCB->AIRCR;                                                   /* read old register configuration    */
 80008d8:	4b0c      	ldr	r3, [pc, #48]	; (800090c <__NVIC_SetPriorityGrouping+0x44>)
 80008da:	68db      	ldr	r3, [r3, #12]
 80008dc:	60bb      	str	r3, [r7, #8]
  reg_value &= ~((uint32_t)(SCB_AIRCR_VECTKEY_Msk | SCB_AIRCR_PRIGROUP_Msk)); /* clear bits to change               */
 80008de:	68ba      	ldr	r2, [r7, #8]
 80008e0:	f64f 03ff 	movw	r3, #63743	; 0xf8ff
 80008e4:	4013      	ands	r3, r2
 80008e6:	60bb      	str	r3, [r7, #8]
  reg_value  =  (reg_value                                   |
                ((uint32_t)0x5FAUL << SCB_AIRCR_VECTKEY_Pos) |
                (PriorityGroupTmp << SCB_AIRCR_PRIGROUP_Pos)  );              /* Insert write key and priority group */
 80008e8:	68fb      	ldr	r3, [r7, #12]
 80008ea:	021a      	lsls	r2, r3, #8
                ((uint32_t)0x5FAUL << SCB_AIRCR_VECTKEY_Pos) |
 80008ec:	68bb      	ldr	r3, [r7, #8]
 80008ee:	4313      	orrs	r3, r2
  reg_value  =  (reg_value                                   |
 80008f0:	f043 63bf 	orr.w	r3, r3, #100139008	; 0x5f80000
 80008f4:	f443 3300 	orr.w	r3, r3, #131072	; 0x20000
 80008f8:	60bb      	str	r3, [r7, #8]
  SCB->AIRCR =  reg_value;
 80008fa:	4a04      	ldr	r2, [pc, #16]	; (800090c <__NVIC_SetPriorityGrouping+0x44>)
 80008fc:	68bb      	ldr	r3, [r7, #8]
 80008fe:	60d3      	str	r3, [r2, #12]
}
 8000900:	bf00      	nop
 8000902:	3714      	adds	r7, #20
 8000904:	46bd      	mov	sp, r7
 8000906:	f85d 7b04 	ldr.w	r7, [sp], #4
 800090a:	4770      	bx	lr
 800090c:	e000ed00 	.word	0xe000ed00

08000910 <__NVIC_GetPriorityGrouping>:
  \brief   Get Priority Grouping
  \details Reads the priority grouping field from the NVIC Interrupt Controller.
  \return                Priority grouping field (SCB->AIRCR [10:8] PRIGROUP field).
 */
__STATIC_INLINE uint32_t __NVIC_GetPriorityGrouping(void)
{
 8000910:	b480      	push	{r7}
 8000912:	af00      	add	r7, sp, #0
  return ((uint32_t)((SCB->AIRCR & SCB_AIRCR_PRIGROUP_Msk) >> SCB_AIRCR_PRIGROUP_Pos));
 8000914:	4b04      	ldr	r3, [pc, #16]	; (8000928 <__NVIC_GetPriorityGrouping+0x18>)
 8000916:	68db      	ldr	r3, [r3, #12]
 8000918:	0a1b      	lsrs	r3, r3, #8
 800091a:	f003 0307 	and.w	r3, r3, #7
}
 800091e:	4618      	mov	r0, r3
 8000920:	46bd      	mov	sp, r7
 8000922:	f85d 7b04 	ldr.w	r7, [sp], #4
 8000926:	4770      	bx	lr
 8000928:	e000ed00 	.word	0xe000ed00

0800092c <__NVIC_SetPriority>:
  \param [in]      IRQn  Interrupt number.
  \param [in]  priority  Priority to set.
  \note    The priority cannot be set for every processor exception.
 */
__STATIC_INLINE void __NVIC_SetPriority(IRQn_Type IRQn, uint32_t priority)
{
 800092c:	b480      	push	{r7}
 800092e:	b083      	sub	sp, #12
 8000930:	af00      	add	r7, sp, #0
 8000932:	4603      	mov	r3, r0
 8000934:	6039      	str	r1, [r7, #0]
 8000936:	71fb      	strb	r3, [r7, #7]
  if ((int32_t)(IRQn) >= 0)
 8000938:	f997 3007 	ldrsb.w	r3, [r7, #7]
 800093c:	2b00      	cmp	r3, #0
 800093e:	db0a      	blt.n	8000956 <__NVIC_SetPriority+0x2a>
  {
    NVIC->IP[((uint32_t)IRQn)]               = (uint8_t)((priority << (8U - __NVIC_PRIO_BITS)) & (uint32_t)0xFFUL);
 8000940:	683b      	ldr	r3, [r7, #0]
 8000942:	b2da      	uxtb	r2, r3
 8000944:	490c      	ldr	r1, [pc, #48]	; (8000978 <__NVIC_SetPriority+0x4c>)
 8000946:	f997 3007 	ldrsb.w	r3, [r7, #7]
 800094a:	0112      	lsls	r2, r2, #4
 800094c:	b2d2      	uxtb	r2, r2
 800094e:	440b      	add	r3, r1
 8000950:	f883 2300 	strb.w	r2, [r3, #768]	; 0x300
  }
  else
  {
    SCB->SHP[(((uint32_t)IRQn) & 0xFUL)-4UL] = (uint8_t)((priority << (8U - __NVIC_PRIO_BITS)) & (uint32_t)0xFFUL);
  }
}
 8000954:	e00a      	b.n	800096c <__NVIC_SetPriority+0x40>
    SCB->SHP[(((uint32_t)IRQn) & 0xFUL)-4UL] = (uint8_t)((priority << (8U - __NVIC_PRIO_BITS)) & (uint32_t)0xFFUL);
 8000956:	683b      	ldr	r3, [r7, #0]
 8000958:	b2da      	uxtb	r2, r3
 800095a:	4908      	ldr	r1, [pc, #32]	; (800097c <__NVIC_SetPriority+0x50>)
 800095c:	79fb      	ldrb	r3, [r7, #7]
 800095e:	f003 030f 	and.w	r3, r3, #15
 8000962:	3b04      	subs	r3, #4
 8000964:	0112      	lsls	r2, r2, #4
 8000966:	b2d2      	uxtb	r2, r2
 8000968:	440b      	add	r3, r1
 800096a:	761a      	strb	r2, [r3, #24]
}
 800096c:	bf00      	nop
 800096e:	370c      	adds	r7, #12
 8000970:	46bd      	mov	sp, r7
 8000972:	f85d 7b04 	ldr.w	r7, [sp], #4
 8000976:	4770      	bx	lr
 8000978:	e000e100 	.word	0xe000e100
 800097c:	e000ed00 	.word	0xe000ed00

08000980 <NVIC_EncodePriority>:
  \param [in]   PreemptPriority  Preemptive priority value (starting from 0).
  \param [in]       SubPriority  Subpriority value (starting from 0).
  \return                        Encoded priority. Value can be used in the function \ref NVIC_SetPriority().
 */
__STATIC_INLINE uint32_t NVIC_EncodePriority (uint32_t PriorityGroup, uint32_t PreemptPriority, uint32_t SubPriority)
{
 8000980:	b480      	push	{r7}
 8000982:	b089      	sub	sp, #36	; 0x24
 8000984:	af00      	add	r7, sp, #0
 8000986:	60f8      	str	r0, [r7, #12]
 8000988:	60b9      	str	r1, [r7, #8]
 800098a:	607a      	str	r2, [r7, #4]
  uint32_t PriorityGroupTmp = (PriorityGroup & (uint32_t)0x07UL);   /* only values 0..7 are used          */
 800098c:	68fb      	ldr	r3, [r7, #12]
 800098e:	f003 0307 	and.w	r3, r3, #7
 8000992:	61fb      	str	r3, [r7, #28]
  uint32_t PreemptPriorityBits;
  uint32_t SubPriorityBits;

  PreemptPriorityBits = ((7UL - PriorityGroupTmp) > (uint32_t)(__NVIC_PRIO_BITS)) ? (uint32_t)(__NVIC_PRIO_BITS) : (uint32_t)(7UL - PriorityGroupTmp);
 8000994:	69fb      	ldr	r3, [r7, #28]
 8000996:	f1c3 0307 	rsb	r3, r3, #7
 800099a:	2b04      	cmp	r3, #4
 800099c:	bf28      	it	cs
 800099e:	2304      	movcs	r3, #4
 80009a0:	61bb      	str	r3, [r7, #24]
  SubPriorityBits     = ((PriorityGroupTmp + (uint32_t)(__NVIC_PRIO_BITS)) < (uint32_t)7UL) ? (uint32_t)0UL : (uint32_t)((PriorityGroupTmp - 7UL) + (uint32_t)(__NVIC_PRIO_BITS));
 80009a2:	69fb      	ldr	r3, [r7, #28]
 80009a4:	3304      	adds	r3, #4
 80009a6:	2b06      	cmp	r3, #6
 80009a8:	d902      	bls.n	80009b0 <NVIC_EncodePriority+0x30>
 80009aa:	69fb      	ldr	r3, [r7, #28]
 80009ac:	3b03      	subs	r3, #3
 80009ae:	e000      	b.n	80009b2 <NVIC_EncodePriority+0x32>
 80009b0:	2300      	movs	r3, #0
 80009b2:	617b      	str	r3, [r7, #20]

  return (
           ((PreemptPriority & (uint32_t)((1UL << (PreemptPriorityBits)) - 1UL)) << SubPriorityBits) |
 80009b4:	f04f 32ff 	mov.w	r2, #4294967295
 80009b8:	69bb      	ldr	r3, [r7, #24]
 80009ba:	fa02 f303 	lsl.w	r3, r2, r3
 80009be:	43da      	mvns	r2, r3
 80009c0:	68bb      	ldr	r3, [r7, #8]
 80009c2:	401a      	ands	r2, r3
 80009c4:	697b      	ldr	r3, [r7, #20]
 80009c6:	409a      	lsls	r2, r3
           ((SubPriority     & (uint32_t)((1UL << (SubPriorityBits    )) - 1UL)))
 80009c8:	f04f 31ff 	mov.w	r1, #4294967295
 80009cc:	697b      	ldr	r3, [r7, #20]
 80009ce:	fa01 f303 	lsl.w	r3, r1, r3
 80009d2:	43d9      	mvns	r1, r3
 80009d4:	687b      	ldr	r3, [r7, #4]
 80009d6:	400b      	ands	r3, r1
           ((PreemptPriority & (uint32_t)((1UL << (PreemptPriorityBits)) - 1UL)) << SubPriorityBits) |
 80009d8:	4313      	orrs	r3, r2
         );
}
 80009da:	4618      	mov	r0, r3
 80009dc:	3724      	adds	r7, #36	; 0x24
 80009de:	46bd      	mov	sp, r7
 80009e0:	f85d 7b04 	ldr.w	r7, [sp], #4
 80009e4:	4770      	bx	lr
	...

080009e8 <SysTick_Config>:
  \note    When the variable <b>__Vendor_SysTickConfig</b> is set to 1, then the
           function <b>SysTick_Config</b> is not included. In this case, the file <b><i>device</i>.h</b>
           must contain a vendor-specific implementation of this function.
 */
__STATIC_INLINE uint32_t SysTick_Config(uint32_t ticks)
{
 80009e8:	b580      	push	{r7, lr}
 80009ea:	b082      	sub	sp, #8
 80009ec:	af00      	add	r7, sp, #0
 80009ee:	6078      	str	r0, [r7, #4]
  if ((ticks - 1UL) > SysTick_LOAD_RELOAD_Msk)
 80009f0:	687b      	ldr	r3, [r7, #4]
 80009f2:	3b01      	subs	r3, #1
 80009f4:	f1b3 7f80 	cmp.w	r3, #16777216	; 0x1000000
 80009f8:	d301      	bcc.n	80009fe <SysTick_Config+0x16>
  {
    return (1UL);                                                   /* Reload value impossible */
 80009fa:	2301      	movs	r3, #1
 80009fc:	e00f      	b.n	8000a1e <SysTick_Config+0x36>
  }

  SysTick->LOAD  = (uint32_t)(ticks - 1UL);                         /* set reload register */
 80009fe:	4a0a      	ldr	r2, [pc, #40]	; (8000a28 <SysTick_Config+0x40>)
 8000a00:	687b      	ldr	r3, [r7, #4]
 8000a02:	3b01      	subs	r3, #1
 8000a04:	6053      	str	r3, [r2, #4]
  NVIC_SetPriority (SysTick_IRQn, (1UL << __NVIC_PRIO_BITS) - 1UL); /* set Priority for Systick Interrupt */
 8000a06:	210f      	movs	r1, #15
 8000a08:	f04f 30ff 	mov.w	r0, #4294967295
 8000a0c:	f7ff ff8e 	bl	800092c <__NVIC_SetPriority>
  SysTick->VAL   = 0UL;                                             /* Load the SysTick Counter Value */
 8000a10:	4b05      	ldr	r3, [pc, #20]	; (8000a28 <SysTick_Config+0x40>)
 8000a12:	2200      	movs	r2, #0
 8000a14:	609a      	str	r2, [r3, #8]
  SysTick->CTRL  = SysTick_CTRL_CLKSOURCE_Msk |
 8000a16:	4b04      	ldr	r3, [pc, #16]	; (8000a28 <SysTick_Config+0x40>)
 8000a18:	2207      	movs	r2, #7
 8000a1a:	601a      	str	r2, [r3, #0]
                   SysTick_CTRL_TICKINT_Msk   |
                   SysTick_CTRL_ENABLE_Msk;                         /* Enable SysTick IRQ and SysTick Timer */
  return (0UL);                                                     /* Function successful */
 8000a1c:	2300      	movs	r3, #0
}
 8000a1e:	4618      	mov	r0, r3
 8000a20:	3708      	adds	r7, #8
 8000a22:	46bd      	mov	sp, r7
 8000a24:	bd80      	pop	{r7, pc}
 8000a26:	bf00      	nop
 8000a28:	e000e010 	.word	0xe000e010

08000a2c <HAL_NVIC_SetPriorityGrouping>:
  * @note   When the NVIC_PriorityGroup_0 is selected, IRQ preemption is no more possible. 
  *         The pending IRQ priority will be managed only by the subpriority. 
  * @retval None
  */
void HAL_NVIC_SetPriorityGrouping(uint32_t PriorityGroup)
{
 8000a2c:	b580      	push	{r7, lr}
 8000a2e:	b082      	sub	sp, #8
 8000a30:	af00      	add	r7, sp, #0
 8000a32:	6078      	str	r0, [r7, #4]
  /* Check the parameters */
  assert_param(IS_NVIC_PRIORITY_GROUP(PriorityGroup));
  
  /* Set the PRIGROUP[10:8] bits according to the PriorityGroup parameter value */
  NVIC_SetPriorityGrouping(PriorityGroup);
 8000a34:	6878      	ldr	r0, [r7, #4]
 8000a36:	f7ff ff47 	bl	80008c8 <__NVIC_SetPriorityGrouping>
}
 8000a3a:	bf00      	nop
 8000a3c:	3708      	adds	r7, #8
 8000a3e:	46bd      	mov	sp, r7
 8000a40:	bd80      	pop	{r7, pc}

08000a42 <HAL_NVIC_SetPriority>:
  *         This parameter can be a value between 0 and 15
  *         A lower priority value indicates a higher priority.          
  * @retval None
  */
void HAL_NVIC_SetPriority(IRQn_Type IRQn, uint32_t PreemptPriority, uint32_t SubPriority)
{ 
 8000a42:	b580      	push	{r7, lr}
 8000a44:	b086      	sub	sp, #24
 8000a46:	af00      	add	r7, sp, #0
 8000a48:	4603      	mov	r3, r0
 8000a4a:	60b9      	str	r1, [r7, #8]
 8000a4c:	607a      	str	r2, [r7, #4]
 8000a4e:	73fb      	strb	r3, [r7, #15]
  uint32_t prioritygroup = 0x00U;
 8000a50:	2300      	movs	r3, #0
 8000a52:	617b      	str	r3, [r7, #20]
  
  /* Check the parameters */
  assert_param(IS_NVIC_SUB_PRIORITY(SubPriority));
  assert_param(IS_NVIC_PREEMPTION_PRIORITY(PreemptPriority));
  
  prioritygroup = NVIC_GetPriorityGrouping();
 8000a54:	f7ff ff5c 	bl	8000910 <__NVIC_GetPriorityGrouping>
 8000a58:	6178      	str	r0, [r7, #20]
  
  NVIC_SetPriority(IRQn, NVIC_EncodePriority(prioritygroup, PreemptPriority, SubPriority));
 8000a5a:	687a      	ldr	r2, [r7, #4]
 8000a5c:	68b9      	ldr	r1, [r7, #8]
 8000a5e:	6978      	ldr	r0, [r7, #20]
 8000a60:	f7ff ff8e 	bl	8000980 <NVIC_EncodePriority>
 8000a64:	4602      	mov	r2, r0
 8000a66:	f997 300f 	ldrsb.w	r3, [r7, #15]
 8000a6a:	4611      	mov	r1, r2
 8000a6c:	4618      	mov	r0, r3
 8000a6e:	f7ff ff5d 	bl	800092c <__NVIC_SetPriority>
}
 8000a72:	bf00      	nop
 8000a74:	3718      	adds	r7, #24
 8000a76:	46bd      	mov	sp, r7
 8000a78:	bd80      	pop	{r7, pc}

08000a7a <HAL_SYSTICK_Config>:
  * @param  TicksNumb Specifies the ticks Number of ticks between two interrupts.
  * @retval status:  - 0  Function succeeded.
  *                  - 1  Function failed.
  */
uint32_t HAL_SYSTICK_Config(uint32_t TicksNumb)
{
 8000a7a:	b580      	push	{r7, lr}
 8000a7c:	b082      	sub	sp, #8
 8000a7e:	af00      	add	r7, sp, #0
 8000a80:	6078      	str	r0, [r7, #4]
   return SysTick_Config(TicksNumb);
 8000a82:	6878      	ldr	r0, [r7, #4]
 8000a84:	f7ff ffb0 	bl	80009e8 <SysTick_Config>
 8000a88:	4603      	mov	r3, r0
}
 8000a8a:	4618      	mov	r0, r3
 8000a8c:	3708      	adds	r7, #8
 8000a8e:	46bd      	mov	sp, r7
 8000a90:	bd80      	pop	{r7, pc}
	...

08000a94 <HAL_GPIO_Init>:
  * @param  GPIO_Init pointer to a GPIO_InitTypeDef structure that contains
  *         the configuration information for the specified GPIO peripheral.
  * @retval None
  */
void HAL_GPIO_Init(GPIO_TypeDef  *GPIOx, GPIO_InitTypeDef *GPIO_Init)
{
 8000a94:	b480      	push	{r7}
 8000a96:	b089      	sub	sp, #36	; 0x24
 8000a98:	af00      	add	r7, sp, #0
 8000a9a:	6078      	str	r0, [r7, #4]
 8000a9c:	6039      	str	r1, [r7, #0]
  uint32_t position;
  uint32_t ioposition = 0x00U;
 8000a9e:	2300      	movs	r3, #0
 8000aa0:	617b      	str	r3, [r7, #20]
  uint32_t iocurrent = 0x00U;
 8000aa2:	2300      	movs	r3, #0
 8000aa4:	613b      	str	r3, [r7, #16]
  uint32_t temp = 0x00U;
 8000aa6:	2300      	movs	r3, #0
 8000aa8:	61bb      	str	r3, [r7, #24]
  assert_param(IS_GPIO_PIN(GPIO_Init->Pin));
  assert_param(IS_GPIO_MODE(GPIO_Init->Mode));
  assert_param(IS_GPIO_PULL(GPIO_Init->Pull));

  /* Configure the port pins */
  for(position = 0U; position < GPIO_NUMBER; position++)
 8000aaa:	2300      	movs	r3, #0
 8000aac:	61fb      	str	r3, [r7, #28]
 8000aae:	e177      	b.n	8000da0 <HAL_GPIO_Init+0x30c>
  {
    /* Get the IO position */
    ioposition = 0x01U << position;
 8000ab0:	2201      	movs	r2, #1
 8000ab2:	69fb      	ldr	r3, [r7, #28]
 8000ab4:	fa02 f303 	lsl.w	r3, r2, r3
 8000ab8:	617b      	str	r3, [r7, #20]
    /* Get the current IO position */
    iocurrent = (uint32_t)(GPIO_Init->Pin) & ioposition;
 8000aba:	683b      	ldr	r3, [r7, #0]
 8000abc:	681b      	ldr	r3, [r3, #0]
 8000abe:	697a      	ldr	r2, [r7, #20]
 8000ac0:	4013      	ands	r3, r2
 8000ac2:	613b      	str	r3, [r7, #16]

    if(iocurrent == ioposition)
 8000ac4:	693a      	ldr	r2, [r7, #16]
 8000ac6:	697b      	ldr	r3, [r7, #20]
 8000ac8:	429a      	cmp	r2, r3
 8000aca:	f040 8166 	bne.w	8000d9a <HAL_GPIO_Init+0x306>
    {
      /*--------------------- GPIO Mode Configuration ------------------------*/
      /* In case of Output or Alternate function mode selection */
      if((GPIO_Init->Mode == GPIO_MODE_OUTPUT_PP) || (GPIO_Init->Mode == GPIO_MODE_AF_PP) ||
 8000ace:	683b      	ldr	r3, [r7, #0]
 8000ad0:	685b      	ldr	r3, [r3, #4]
 8000ad2:	2b01      	cmp	r3, #1
 8000ad4:	d00b      	beq.n	8000aee <HAL_GPIO_Init+0x5a>
 8000ad6:	683b      	ldr	r3, [r7, #0]
 8000ad8:	685b      	ldr	r3, [r3, #4]
 8000ada:	2b02      	cmp	r3, #2
 8000adc:	d007      	beq.n	8000aee <HAL_GPIO_Init+0x5a>
         (GPIO_Init->Mode == GPIO_MODE_OUTPUT_OD) || (GPIO_Init->Mode == GPIO_MODE_AF_OD))
 8000ade:	683b      	ldr	r3, [r7, #0]
 8000ae0:	685b      	ldr	r3, [r3, #4]
      if((GPIO_Init->Mode == GPIO_MODE_OUTPUT_PP) || (GPIO_Init->Mode == GPIO_MODE_AF_PP) ||
 8000ae2:	2b11      	cmp	r3, #17
 8000ae4:	d003      	beq.n	8000aee <HAL_GPIO_Init+0x5a>
         (GPIO_Init->Mode == GPIO_MODE_OUTPUT_OD) || (GPIO_Init->Mode == GPIO_MODE_AF_OD))
 8000ae6:	683b      	ldr	r3, [r7, #0]
 8000ae8:	685b      	ldr	r3, [r3, #4]
 8000aea:	2b12      	cmp	r3, #18
 8000aec:	d130      	bne.n	8000b50 <HAL_GPIO_Init+0xbc>
      {
        /* Check the Speed parameter */
        assert_param(IS_GPIO_SPEED(GPIO_Init->Speed));
        /* Configure the IO Speed */
        temp = GPIOx->OSPEEDR; 
 8000aee:	687b      	ldr	r3, [r7, #4]
 8000af0:	689b      	ldr	r3, [r3, #8]
 8000af2:	61bb      	str	r3, [r7, #24]
        temp &= ~(GPIO_OSPEEDER_OSPEEDR0 << (position * 2U));
 8000af4:	69fb      	ldr	r3, [r7, #28]
 8000af6:	005b      	lsls	r3, r3, #1
 8000af8:	2203      	movs	r2, #3
 8000afa:	fa02 f303 	lsl.w	r3, r2, r3
 8000afe:	43db      	mvns	r3, r3
 8000b00:	69ba      	ldr	r2, [r7, #24]
 8000b02:	4013      	ands	r3, r2
 8000b04:	61bb      	str	r3, [r7, #24]
        temp |= (GPIO_Init->Speed << (position * 2U));
 8000b06:	683b      	ldr	r3, [r7, #0]
 8000b08:	68da      	ldr	r2, [r3, #12]
 8000b0a:	69fb      	ldr	r3, [r7, #28]
 8000b0c:	005b      	lsls	r3, r3, #1
 8000b0e:	fa02 f303 	lsl.w	r3, r2, r3
 8000b12:	69ba      	ldr	r2, [r7, #24]
 8000b14:	4313      	orrs	r3, r2
 8000b16:	61bb      	str	r3, [r7, #24]
        GPIOx->OSPEEDR = temp;
 8000b18:	687b      	ldr	r3, [r7, #4]
 8000b1a:	69ba      	ldr	r2, [r7, #24]
 8000b1c:	609a      	str	r2, [r3, #8]

        /* Configure the IO Output Type */
        temp = GPIOx->OTYPER;
 8000b1e:	687b      	ldr	r3, [r7, #4]
 8000b20:	685b      	ldr	r3, [r3, #4]
 8000b22:	61bb      	str	r3, [r7, #24]
        temp &= ~(GPIO_OTYPER_OT_0 << position) ;
 8000b24:	2201      	movs	r2, #1
 8000b26:	69fb      	ldr	r3, [r7, #28]
 8000b28:	fa02 f303 	lsl.w	r3, r2, r3
 8000b2c:	43db      	mvns	r3, r3
 8000b2e:	69ba      	ldr	r2, [r7, #24]
 8000b30:	4013      	ands	r3, r2
 8000b32:	61bb      	str	r3, [r7, #24]
        temp |= (((GPIO_Init->Mode & GPIO_OUTPUT_TYPE) >> 4U) << position);
 8000b34:	683b      	ldr	r3, [r7, #0]
 8000b36:	685b      	ldr	r3, [r3, #4]
 8000b38:	091b      	lsrs	r3, r3, #4
 8000b3a:	f003 0201 	and.w	r2, r3, #1
 8000b3e:	69fb      	ldr	r3, [r7, #28]
 8000b40:	fa02 f303 	lsl.w	r3, r2, r3
 8000b44:	69ba      	ldr	r2, [r7, #24]
 8000b46:	4313      	orrs	r3, r2
 8000b48:	61bb      	str	r3, [r7, #24]
        GPIOx->OTYPER = temp;
 8000b4a:	687b      	ldr	r3, [r7, #4]
 8000b4c:	69ba      	ldr	r2, [r7, #24]
 8000b4e:	605a      	str	r2, [r3, #4]
       }

      /* Activate the Pull-up or Pull down resistor for the current IO */
      temp = GPIOx->PUPDR;
 8000b50:	687b      	ldr	r3, [r7, #4]
 8000b52:	68db      	ldr	r3, [r3, #12]
 8000b54:	61bb      	str	r3, [r7, #24]
      temp &= ~(GPIO_PUPDR_PUPDR0 << (position * 2U));
 8000b56:	69fb      	ldr	r3, [r7, #28]
 8000b58:	005b      	lsls	r3, r3, #1
 8000b5a:	2203      	movs	r2, #3
 8000b5c:	fa02 f303 	lsl.w	r3, r2, r3
 8000b60:	43db      	mvns	r3, r3
 8000b62:	69ba      	ldr	r2, [r7, #24]
 8000b64:	4013      	ands	r3, r2
 8000b66:	61bb      	str	r3, [r7, #24]
      temp |= ((GPIO_Init->Pull) << (position * 2U));
 8000b68:	683b      	ldr	r3, [r7, #0]
 8000b6a:	689a      	ldr	r2, [r3, #8]
 8000b6c:	69fb      	ldr	r3, [r7, #28]
 8000b6e:	005b      	lsls	r3, r3, #1
 8000b70:	fa02 f303 	lsl.w	r3, r2, r3
 8000b74:	69ba      	ldr	r2, [r7, #24]
 8000b76:	4313      	orrs	r3, r2
 8000b78:	61bb      	str	r3, [r7, #24]
      GPIOx->PUPDR = temp;
 8000b7a:	687b      	ldr	r3, [r7, #4]
 8000b7c:	69ba      	ldr	r2, [r7, #24]
 8000b7e:	60da      	str	r2, [r3, #12]

      /* In case of Alternate function mode selection */
      if((GPIO_Init->Mode == GPIO_MODE_AF_PP) || (GPIO_Init->Mode == GPIO_MODE_AF_OD))
 8000b80:	683b      	ldr	r3, [r7, #0]
 8000b82:	685b      	ldr	r3, [r3, #4]
 8000b84:	2b02      	cmp	r3, #2
 8000b86:	d003      	beq.n	8000b90 <HAL_GPIO_Init+0xfc>
 8000b88:	683b      	ldr	r3, [r7, #0]
 8000b8a:	685b      	ldr	r3, [r3, #4]
 8000b8c:	2b12      	cmp	r3, #18
 8000b8e:	d123      	bne.n	8000bd8 <HAL_GPIO_Init+0x144>
      {
        /* Check the Alternate function parameter */
        assert_param(IS_GPIO_AF(GPIO_Init->Alternate));
        /* Configure Alternate function mapped with the current IO */
        temp = GPIOx->AFR[position >> 3U];
 8000b90:	69fb      	ldr	r3, [r7, #28]
 8000b92:	08da      	lsrs	r2, r3, #3
 8000b94:	687b      	ldr	r3, [r7, #4]
 8000b96:	3208      	adds	r2, #8
 8000b98:	f853 3022 	ldr.w	r3, [r3, r2, lsl #2]
 8000b9c:	61bb      	str	r3, [r7, #24]
        temp &= ~(0xFU << ((uint32_t)(position & 0x07U) * 4U)) ;
 8000b9e:	69fb      	ldr	r3, [r7, #28]
 8000ba0:	f003 0307 	and.w	r3, r3, #7
 8000ba4:	009b      	lsls	r3, r3, #2
 8000ba6:	220f      	movs	r2, #15
 8000ba8:	fa02 f303 	lsl.w	r3, r2, r3
 8000bac:	43db      	mvns	r3, r3
 8000bae:	69ba      	ldr	r2, [r7, #24]
 8000bb0:	4013      	ands	r3, r2
 8000bb2:	61bb      	str	r3, [r7, #24]
        temp |= ((uint32_t)(GPIO_Init->Alternate) << (((uint32_t)position & 0x07U) * 4U));
 8000bb4:	683b      	ldr	r3, [r7, #0]
 8000bb6:	691a      	ldr	r2, [r3, #16]
 8000bb8:	69fb      	ldr	r3, [r7, #28]
 8000bba:	f003 0307 	and.w	r3, r3, #7
 8000bbe:	009b      	lsls	r3, r3, #2
 8000bc0:	fa02 f303 	lsl.w	r3, r2, r3
 8000bc4:	69ba      	ldr	r2, [r7, #24]
 8000bc6:	4313      	orrs	r3, r2
 8000bc8:	61bb      	str	r3, [r7, #24]
        GPIOx->AFR[position >> 3U] = temp;
 8000bca:	69fb      	ldr	r3, [r7, #28]
 8000bcc:	08da      	lsrs	r2, r3, #3
 8000bce:	687b      	ldr	r3, [r7, #4]
 8000bd0:	3208      	adds	r2, #8
 8000bd2:	69b9      	ldr	r1, [r7, #24]
 8000bd4:	f843 1022 	str.w	r1, [r3, r2, lsl #2]
      }

      /* Configure IO Direction mode (Input, Output, Alternate or Analog) */
      temp = GPIOx->MODER;
 8000bd8:	687b      	ldr	r3, [r7, #4]
 8000bda:	681b      	ldr	r3, [r3, #0]
 8000bdc:	61bb      	str	r3, [r7, #24]
      temp &= ~(GPIO_MODER_MODER0 << (position * 2U));
 8000bde:	69fb      	ldr	r3, [r7, #28]
 8000be0:	005b      	lsls	r3, r3, #1
 8000be2:	2203      	movs	r2, #3
 8000be4:	fa02 f303 	lsl.w	r3, r2, r3
 8000be8:	43db      	mvns	r3, r3
 8000bea:	69ba      	ldr	r2, [r7, #24]
 8000bec:	4013      	ands	r3, r2
 8000bee:	61bb      	str	r3, [r7, #24]
      temp |= ((GPIO_Init->Mode & GPIO_MODE) << (position * 2U));
 8000bf0:	683b      	ldr	r3, [r7, #0]
 8000bf2:	685b      	ldr	r3, [r3, #4]
 8000bf4:	f003 0203 	and.w	r2, r3, #3
 8000bf8:	69fb      	ldr	r3, [r7, #28]
 8000bfa:	005b      	lsls	r3, r3, #1
 8000bfc:	fa02 f303 	lsl.w	r3, r2, r3
 8000c00:	69ba      	ldr	r2, [r7, #24]
 8000c02:	4313      	orrs	r3, r2
 8000c04:	61bb      	str	r3, [r7, #24]
      GPIOx->MODER = temp;
 8000c06:	687b      	ldr	r3, [r7, #4]
 8000c08:	69ba      	ldr	r2, [r7, #24]
 8000c0a:	601a      	str	r2, [r3, #0]

      /*--------------------- EXTI Mode Configuration ------------------------*/
      /* Configure the External Interrupt or event for the current IO */
      if((GPIO_Init->Mode & EXTI_MODE) == EXTI_MODE)
 8000c0c:	683b      	ldr	r3, [r7, #0]
 8000c0e:	685b      	ldr	r3, [r3, #4]
 8000c10:	f003 5380 	and.w	r3, r3, #268435456	; 0x10000000
 8000c14:	2b00      	cmp	r3, #0
 8000c16:	f000 80c0 	beq.w	8000d9a <HAL_GPIO_Init+0x306>
      {
        /* Enable SYSCFG Clock */
        __HAL_RCC_SYSCFG_CLK_ENABLE();
 8000c1a:	2300      	movs	r3, #0
 8000c1c:	60fb      	str	r3, [r7, #12]
 8000c1e:	4b65      	ldr	r3, [pc, #404]	; (8000db4 <HAL_GPIO_Init+0x320>)
 8000c20:	6c5b      	ldr	r3, [r3, #68]	; 0x44
 8000c22:	4a64      	ldr	r2, [pc, #400]	; (8000db4 <HAL_GPIO_Init+0x320>)
 8000c24:	f443 4380 	orr.w	r3, r3, #16384	; 0x4000
 8000c28:	6453      	str	r3, [r2, #68]	; 0x44
 8000c2a:	4b62      	ldr	r3, [pc, #392]	; (8000db4 <HAL_GPIO_Init+0x320>)
 8000c2c:	6c5b      	ldr	r3, [r3, #68]	; 0x44
 8000c2e:	f403 4380 	and.w	r3, r3, #16384	; 0x4000
 8000c32:	60fb      	str	r3, [r7, #12]
 8000c34:	68fb      	ldr	r3, [r7, #12]

        temp = SYSCFG->EXTICR[position >> 2U];
 8000c36:	4a60      	ldr	r2, [pc, #384]	; (8000db8 <HAL_GPIO_Init+0x324>)
 8000c38:	69fb      	ldr	r3, [r7, #28]
 8000c3a:	089b      	lsrs	r3, r3, #2
 8000c3c:	3302      	adds	r3, #2
 8000c3e:	f852 3023 	ldr.w	r3, [r2, r3, lsl #2]
 8000c42:	61bb      	str	r3, [r7, #24]
        temp &= ~(0x0FU << (4U * (position & 0x03U)));
 8000c44:	69fb      	ldr	r3, [r7, #28]
 8000c46:	f003 0303 	and.w	r3, r3, #3
 8000c4a:	009b      	lsls	r3, r3, #2
 8000c4c:	220f      	movs	r2, #15
 8000c4e:	fa02 f303 	lsl.w	r3, r2, r3
 8000c52:	43db      	mvns	r3, r3
 8000c54:	69ba      	ldr	r2, [r7, #24]
 8000c56:	4013      	ands	r3, r2
 8000c58:	61bb      	str	r3, [r7, #24]
        temp |= ((uint32_t)(GPIO_GET_INDEX(GPIOx)) << (4U * (position & 0x03U)));
 8000c5a:	687b      	ldr	r3, [r7, #4]
 8000c5c:	4a57      	ldr	r2, [pc, #348]	; (8000dbc <HAL_GPIO_Init+0x328>)
 8000c5e:	4293      	cmp	r3, r2
 8000c60:	d037      	beq.n	8000cd2 <HAL_GPIO_Init+0x23e>
 8000c62:	687b      	ldr	r3, [r7, #4]
 8000c64:	4a56      	ldr	r2, [pc, #344]	; (8000dc0 <HAL_GPIO_Init+0x32c>)
 8000c66:	4293      	cmp	r3, r2
 8000c68:	d031      	beq.n	8000cce <HAL_GPIO_Init+0x23a>
 8000c6a:	687b      	ldr	r3, [r7, #4]
 8000c6c:	4a55      	ldr	r2, [pc, #340]	; (8000dc4 <HAL_GPIO_Init+0x330>)
 8000c6e:	4293      	cmp	r3, r2
 8000c70:	d02b      	beq.n	8000cca <HAL_GPIO_Init+0x236>
 8000c72:	687b      	ldr	r3, [r7, #4]
 8000c74:	4a54      	ldr	r2, [pc, #336]	; (8000dc8 <HAL_GPIO_Init+0x334>)
 8000c76:	4293      	cmp	r3, r2
 8000c78:	d025      	beq.n	8000cc6 <HAL_GPIO_Init+0x232>
 8000c7a:	687b      	ldr	r3, [r7, #4]
 8000c7c:	4a53      	ldr	r2, [pc, #332]	; (8000dcc <HAL_GPIO_Init+0x338>)
 8000c7e:	4293      	cmp	r3, r2
 8000c80:	d01f      	beq.n	8000cc2 <HAL_GPIO_Init+0x22e>
 8000c82:	687b      	ldr	r3, [r7, #4]
 8000c84:	4a52      	ldr	r2, [pc, #328]	; (8000dd0 <HAL_GPIO_Init+0x33c>)
 8000c86:	4293      	cmp	r3, r2
 8000c88:	d019      	beq.n	8000cbe <HAL_GPIO_Init+0x22a>
 8000c8a:	687b      	ldr	r3, [r7, #4]
 8000c8c:	4a51      	ldr	r2, [pc, #324]	; (8000dd4 <HAL_GPIO_Init+0x340>)
 8000c8e:	4293      	cmp	r3, r2
 8000c90:	d013      	beq.n	8000cba <HAL_GPIO_Init+0x226>
 8000c92:	687b      	ldr	r3, [r7, #4]
 8000c94:	4a50      	ldr	r2, [pc, #320]	; (8000dd8 <HAL_GPIO_Init+0x344>)
 8000c96:	4293      	cmp	r3, r2
 8000c98:	d00d      	beq.n	8000cb6 <HAL_GPIO_Init+0x222>
 8000c9a:	687b      	ldr	r3, [r7, #4]
 8000c9c:	4a4f      	ldr	r2, [pc, #316]	; (8000ddc <HAL_GPIO_Init+0x348>)
 8000c9e:	4293      	cmp	r3, r2
 8000ca0:	d007      	beq.n	8000cb2 <HAL_GPIO_Init+0x21e>
 8000ca2:	687b      	ldr	r3, [r7, #4]
 8000ca4:	4a4e      	ldr	r2, [pc, #312]	; (8000de0 <HAL_GPIO_Init+0x34c>)
 8000ca6:	4293      	cmp	r3, r2
 8000ca8:	d101      	bne.n	8000cae <HAL_GPIO_Init+0x21a>
 8000caa:	2309      	movs	r3, #9
 8000cac:	e012      	b.n	8000cd4 <HAL_GPIO_Init+0x240>
 8000cae:	230a      	movs	r3, #10
 8000cb0:	e010      	b.n	8000cd4 <HAL_GPIO_Init+0x240>
 8000cb2:	2308      	movs	r3, #8
 8000cb4:	e00e      	b.n	8000cd4 <HAL_GPIO_Init+0x240>
 8000cb6:	2307      	movs	r3, #7
 8000cb8:	e00c      	b.n	8000cd4 <HAL_GPIO_Init+0x240>
 8000cba:	2306      	movs	r3, #6
 8000cbc:	e00a      	b.n	8000cd4 <HAL_GPIO_Init+0x240>
 8000cbe:	2305      	movs	r3, #5
 8000cc0:	e008      	b.n	8000cd4 <HAL_GPIO_Init+0x240>
 8000cc2:	2304      	movs	r3, #4
 8000cc4:	e006      	b.n	8000cd4 <HAL_GPIO_Init+0x240>
 8000cc6:	2303      	movs	r3, #3
 8000cc8:	e004      	b.n	8000cd4 <HAL_GPIO_Init+0x240>
 8000cca:	2302      	movs	r3, #2
 8000ccc:	e002      	b.n	8000cd4 <HAL_GPIO_Init+0x240>
 8000cce:	2301      	movs	r3, #1
 8000cd0:	e000      	b.n	8000cd4 <HAL_GPIO_Init+0x240>
 8000cd2:	2300      	movs	r3, #0
 8000cd4:	69fa      	ldr	r2, [r7, #28]
 8000cd6:	f002 0203 	and.w	r2, r2, #3
 8000cda:	0092      	lsls	r2, r2, #2
 8000cdc:	4093      	lsls	r3, r2
 8000cde:	69ba      	ldr	r2, [r7, #24]
 8000ce0:	4313      	orrs	r3, r2
 8000ce2:	61bb      	str	r3, [r7, #24]
        SYSCFG->EXTICR[position >> 2U] = temp;
 8000ce4:	4934      	ldr	r1, [pc, #208]	; (8000db8 <HAL_GPIO_Init+0x324>)
 8000ce6:	69fb      	ldr	r3, [r7, #28]
 8000ce8:	089b      	lsrs	r3, r3, #2
 8000cea:	3302      	adds	r3, #2
 8000cec:	69ba      	ldr	r2, [r7, #24]
 8000cee:	f841 2023 	str.w	r2, [r1, r3, lsl #2]

        /* Clear EXTI line configuration */
        temp = EXTI->IMR;
 8000cf2:	4b3c      	ldr	r3, [pc, #240]	; (8000de4 <HAL_GPIO_Init+0x350>)
 8000cf4:	681b      	ldr	r3, [r3, #0]
 8000cf6:	61bb      	str	r3, [r7, #24]
        temp &= ~((uint32_t)iocurrent);
 8000cf8:	693b      	ldr	r3, [r7, #16]
 8000cfa:	43db      	mvns	r3, r3
 8000cfc:	69ba      	ldr	r2, [r7, #24]
 8000cfe:	4013      	ands	r3, r2
 8000d00:	61bb      	str	r3, [r7, #24]
        if((GPIO_Init->Mode & GPIO_MODE_IT) == GPIO_MODE_IT)
 8000d02:	683b      	ldr	r3, [r7, #0]
 8000d04:	685b      	ldr	r3, [r3, #4]
 8000d06:	f403 3380 	and.w	r3, r3, #65536	; 0x10000
 8000d0a:	2b00      	cmp	r3, #0
 8000d0c:	d003      	beq.n	8000d16 <HAL_GPIO_Init+0x282>
        {
          temp |= iocurrent;
 8000d0e:	69ba      	ldr	r2, [r7, #24]
 8000d10:	693b      	ldr	r3, [r7, #16]
 8000d12:	4313      	orrs	r3, r2
 8000d14:	61bb      	str	r3, [r7, #24]
        }
        EXTI->IMR = temp;
 8000d16:	4a33      	ldr	r2, [pc, #204]	; (8000de4 <HAL_GPIO_Init+0x350>)
 8000d18:	69bb      	ldr	r3, [r7, #24]
 8000d1a:	6013      	str	r3, [r2, #0]

        temp = EXTI->EMR;
 8000d1c:	4b31      	ldr	r3, [pc, #196]	; (8000de4 <HAL_GPIO_Init+0x350>)
 8000d1e:	685b      	ldr	r3, [r3, #4]
 8000d20:	61bb      	str	r3, [r7, #24]
        temp &= ~((uint32_t)iocurrent);
 8000d22:	693b      	ldr	r3, [r7, #16]
 8000d24:	43db      	mvns	r3, r3
 8000d26:	69ba      	ldr	r2, [r7, #24]
 8000d28:	4013      	ands	r3, r2
 8000d2a:	61bb      	str	r3, [r7, #24]
        if((GPIO_Init->Mode & GPIO_MODE_EVT) == GPIO_MODE_EVT)
 8000d2c:	683b      	ldr	r3, [r7, #0]
 8000d2e:	685b      	ldr	r3, [r3, #4]
 8000d30:	f403 3300 	and.w	r3, r3, #131072	; 0x20000
 8000d34:	2b00      	cmp	r3, #0
 8000d36:	d003      	beq.n	8000d40 <HAL_GPIO_Init+0x2ac>
        {
          temp |= iocurrent;
 8000d38:	69ba      	ldr	r2, [r7, #24]
 8000d3a:	693b      	ldr	r3, [r7, #16]
 8000d3c:	4313      	orrs	r3, r2
 8000d3e:	61bb      	str	r3, [r7, #24]
        }
        EXTI->EMR = temp;
 8000d40:	4a28      	ldr	r2, [pc, #160]	; (8000de4 <HAL_GPIO_Init+0x350>)
 8000d42:	69bb      	ldr	r3, [r7, #24]
 8000d44:	6053      	str	r3, [r2, #4]

        /* Clear Rising Falling edge configuration */
        temp = EXTI->RTSR;
 8000d46:	4b27      	ldr	r3, [pc, #156]	; (8000de4 <HAL_GPIO_Init+0x350>)
 8000d48:	689b      	ldr	r3, [r3, #8]
 8000d4a:	61bb      	str	r3, [r7, #24]
        temp &= ~((uint32_t)iocurrent);
 8000d4c:	693b      	ldr	r3, [r7, #16]
 8000d4e:	43db      	mvns	r3, r3
 8000d50:	69ba      	ldr	r2, [r7, #24]
 8000d52:	4013      	ands	r3, r2
 8000d54:	61bb      	str	r3, [r7, #24]
        if((GPIO_Init->Mode & RISING_EDGE) == RISING_EDGE)
 8000d56:	683b      	ldr	r3, [r7, #0]
 8000d58:	685b      	ldr	r3, [r3, #4]
 8000d5a:	f403 1380 	and.w	r3, r3, #1048576	; 0x100000
 8000d5e:	2b00      	cmp	r3, #0
 8000d60:	d003      	beq.n	8000d6a <HAL_GPIO_Init+0x2d6>
        {
          temp |= iocurrent;
 8000d62:	69ba      	ldr	r2, [r7, #24]
 8000d64:	693b      	ldr	r3, [r7, #16]
 8000d66:	4313      	orrs	r3, r2
 8000d68:	61bb      	str	r3, [r7, #24]
        }
        EXTI->RTSR = temp;
 8000d6a:	4a1e      	ldr	r2, [pc, #120]	; (8000de4 <HAL_GPIO_Init+0x350>)
 8000d6c:	69bb      	ldr	r3, [r7, #24]
 8000d6e:	6093      	str	r3, [r2, #8]

        temp = EXTI->FTSR;
 8000d70:	4b1c      	ldr	r3, [pc, #112]	; (8000de4 <HAL_GPIO_Init+0x350>)
 8000d72:	68db      	ldr	r3, [r3, #12]
 8000d74:	61bb      	str	r3, [r7, #24]
        temp &= ~((uint32_t)iocurrent);
 8000d76:	693b      	ldr	r3, [r7, #16]
 8000d78:	43db      	mvns	r3, r3
 8000d7a:	69ba      	ldr	r2, [r7, #24]
 8000d7c:	4013      	ands	r3, r2
 8000d7e:	61bb      	str	r3, [r7, #24]
        if((GPIO_Init->Mode & FALLING_EDGE) == FALLING_EDGE)
 8000d80:	683b      	ldr	r3, [r7, #0]
 8000d82:	685b      	ldr	r3, [r3, #4]
 8000d84:	f403 1300 	and.w	r3, r3, #2097152	; 0x200000
 8000d88:	2b00      	cmp	r3, #0
 8000d8a:	d003      	beq.n	8000d94 <HAL_GPIO_Init+0x300>
        {
          temp |= iocurrent;
 8000d8c:	69ba      	ldr	r2, [r7, #24]
 8000d8e:	693b      	ldr	r3, [r7, #16]
 8000d90:	4313      	orrs	r3, r2
 8000d92:	61bb      	str	r3, [r7, #24]
        }
        EXTI->FTSR = temp;
 8000d94:	4a13      	ldr	r2, [pc, #76]	; (8000de4 <HAL_GPIO_Init+0x350>)
 8000d96:	69bb      	ldr	r3, [r7, #24]
 8000d98:	60d3      	str	r3, [r2, #12]
  for(position = 0U; position < GPIO_NUMBER; position++)
 8000d9a:	69fb      	ldr	r3, [r7, #28]
 8000d9c:	3301      	adds	r3, #1
 8000d9e:	61fb      	str	r3, [r7, #28]
 8000da0:	69fb      	ldr	r3, [r7, #28]
 8000da2:	2b0f      	cmp	r3, #15
 8000da4:	f67f ae84 	bls.w	8000ab0 <HAL_GPIO_Init+0x1c>
      }
    }
  }
}
 8000da8:	bf00      	nop
 8000daa:	3724      	adds	r7, #36	; 0x24
 8000dac:	46bd      	mov	sp, r7
 8000dae:	f85d 7b04 	ldr.w	r7, [sp], #4
 8000db2:	4770      	bx	lr
 8000db4:	40023800 	.word	0x40023800
 8000db8:	40013800 	.word	0x40013800
 8000dbc:	40020000 	.word	0x40020000
 8000dc0:	40020400 	.word	0x40020400
 8000dc4:	40020800 	.word	0x40020800
 8000dc8:	40020c00 	.word	0x40020c00
 8000dcc:	40021000 	.word	0x40021000
 8000dd0:	40021400 	.word	0x40021400
 8000dd4:	40021800 	.word	0x40021800
 8000dd8:	40021c00 	.word	0x40021c00
 8000ddc:	40022000 	.word	0x40022000
 8000de0:	40022400 	.word	0x40022400
 8000de4:	40013c00 	.word	0x40013c00

08000de8 <HAL_GPIO_WritePin>:
  *            @arg GPIO_PIN_RESET: to clear the port pin
  *            @arg GPIO_PIN_SET: to set the port pin
  * @retval None
  */
void HAL_GPIO_WritePin(GPIO_TypeDef* GPIOx, uint16_t GPIO_Pin, GPIO_PinState PinState)
{
 8000de8:	b480      	push	{r7}
 8000dea:	b083      	sub	sp, #12
 8000dec:	af00      	add	r7, sp, #0
 8000dee:	6078      	str	r0, [r7, #4]
 8000df0:	460b      	mov	r3, r1
 8000df2:	807b      	strh	r3, [r7, #2]
 8000df4:	4613      	mov	r3, r2
 8000df6:	707b      	strb	r3, [r7, #1]
  /* Check the parameters */
  assert_param(IS_GPIO_PIN(GPIO_Pin));
  assert_param(IS_GPIO_PIN_ACTION(PinState));

  if(PinState != GPIO_PIN_RESET)
 8000df8:	787b      	ldrb	r3, [r7, #1]
 8000dfa:	2b00      	cmp	r3, #0
 8000dfc:	d003      	beq.n	8000e06 <HAL_GPIO_WritePin+0x1e>
  {
    GPIOx->BSRR = GPIO_Pin;
 8000dfe:	887a      	ldrh	r2, [r7, #2]
 8000e00:	687b      	ldr	r3, [r7, #4]
 8000e02:	619a      	str	r2, [r3, #24]
  }
  else
  {
    GPIOx->BSRR = (uint32_t)GPIO_Pin << 16U;
  }
}
 8000e04:	e003      	b.n	8000e0e <HAL_GPIO_WritePin+0x26>
    GPIOx->BSRR = (uint32_t)GPIO_Pin << 16U;
 8000e06:	887b      	ldrh	r3, [r7, #2]
 8000e08:	041a      	lsls	r2, r3, #16
 8000e0a:	687b      	ldr	r3, [r7, #4]
 8000e0c:	619a      	str	r2, [r3, #24]
}
 8000e0e:	bf00      	nop
 8000e10:	370c      	adds	r7, #12
 8000e12:	46bd      	mov	sp, r7
 8000e14:	f85d 7b04 	ldr.w	r7, [sp], #4
 8000e18:	4770      	bx	lr

08000e1a <HAL_GPIO_TogglePin>:
  *                      x can be (A..I) to select the GPIO peripheral for STM32F40XX and STM32F427X devices.
  * @param  GPIO_Pin Specifies the pins to be toggled.
  * @retval None
  */
void HAL_GPIO_TogglePin(GPIO_TypeDef* GPIOx, uint16_t GPIO_Pin)
{
 8000e1a:	b480      	push	{r7}
 8000e1c:	b083      	sub	sp, #12
 8000e1e:	af00      	add	r7, sp, #0
 8000e20:	6078      	str	r0, [r7, #4]
 8000e22:	460b      	mov	r3, r1
 8000e24:	807b      	strh	r3, [r7, #2]
  /* Check the parameters */
  assert_param(IS_GPIO_PIN(GPIO_Pin));

  if ((GPIOx->ODR & GPIO_Pin) == GPIO_Pin)
 8000e26:	687b      	ldr	r3, [r7, #4]
 8000e28:	695a      	ldr	r2, [r3, #20]
 8000e2a:	887b      	ldrh	r3, [r7, #2]
 8000e2c:	401a      	ands	r2, r3
 8000e2e:	887b      	ldrh	r3, [r7, #2]
 8000e30:	429a      	cmp	r2, r3
 8000e32:	d104      	bne.n	8000e3e <HAL_GPIO_TogglePin+0x24>
  {
    GPIOx->BSRR = (uint32_t)GPIO_Pin << GPIO_NUMBER;
 8000e34:	887b      	ldrh	r3, [r7, #2]
 8000e36:	041a      	lsls	r2, r3, #16
 8000e38:	687b      	ldr	r3, [r7, #4]
 8000e3a:	619a      	str	r2, [r3, #24]
  }
  else
  {
    GPIOx->BSRR = GPIO_Pin;
  }
}
 8000e3c:	e002      	b.n	8000e44 <HAL_GPIO_TogglePin+0x2a>
    GPIOx->BSRR = GPIO_Pin;
 8000e3e:	887a      	ldrh	r2, [r7, #2]
 8000e40:	687b      	ldr	r3, [r7, #4]
 8000e42:	619a      	str	r2, [r3, #24]
}
 8000e44:	bf00      	nop
 8000e46:	370c      	adds	r7, #12
 8000e48:	46bd      	mov	sp, r7
 8000e4a:	f85d 7b04 	ldr.w	r7, [sp], #4
 8000e4e:	4770      	bx	lr

08000e50 <HAL_RCC_OscConfig>:
  *         supported by this API. User should request a transition to HSE Off
  *         first and then HSE On or HSE Bypass.
  * @retval HAL status
  */
__weak HAL_StatusTypeDef HAL_RCC_OscConfig(RCC_OscInitTypeDef  *RCC_OscInitStruct)
{
 8000e50:	b580      	push	{r7, lr}
 8000e52:	b086      	sub	sp, #24
 8000e54:	af00      	add	r7, sp, #0
 8000e56:	6078      	str	r0, [r7, #4]
  uint32_t tickstart, pll_config;

  /* Check Null pointer */
  if(RCC_OscInitStruct == NULL)
 8000e58:	687b      	ldr	r3, [r7, #4]
 8000e5a:	2b00      	cmp	r3, #0
 8000e5c:	d101      	bne.n	8000e62 <HAL_RCC_OscConfig+0x12>
  {
    return HAL_ERROR;
 8000e5e:	2301      	movs	r3, #1
 8000e60:	e25b      	b.n	800131a <HAL_RCC_OscConfig+0x4ca>
  }

  /* Check the parameters */
  assert_param(IS_RCC_OSCILLATORTYPE(RCC_OscInitStruct->OscillatorType));
  /*------------------------------- HSE Configuration ------------------------*/
  if(((RCC_OscInitStruct->OscillatorType) & RCC_OSCILLATORTYPE_HSE) == RCC_OSCILLATORTYPE_HSE)
 8000e62:	687b      	ldr	r3, [r7, #4]
 8000e64:	681b      	ldr	r3, [r3, #0]
 8000e66:	f003 0301 	and.w	r3, r3, #1
 8000e6a:	2b00      	cmp	r3, #0
 8000e6c:	d075      	beq.n	8000f5a <HAL_RCC_OscConfig+0x10a>
  {
    /* Check the parameters */
    assert_param(IS_RCC_HSE(RCC_OscInitStruct->HSEState));
    /* When the HSE is used as system clock or clock source for PLL in these cases HSE will not disabled */
    if((__HAL_RCC_GET_SYSCLK_SOURCE() == RCC_CFGR_SWS_HSE) ||\
 8000e6e:	4ba3      	ldr	r3, [pc, #652]	; (80010fc <HAL_RCC_OscConfig+0x2ac>)
 8000e70:	689b      	ldr	r3, [r3, #8]
 8000e72:	f003 030c 	and.w	r3, r3, #12
 8000e76:	2b04      	cmp	r3, #4
 8000e78:	d00c      	beq.n	8000e94 <HAL_RCC_OscConfig+0x44>
      ((__HAL_RCC_GET_SYSCLK_SOURCE() == RCC_CFGR_SWS_PLL) && ((RCC->PLLCFGR & RCC_PLLCFGR_PLLSRC) == RCC_PLLCFGR_PLLSRC_HSE)))
 8000e7a:	4ba0      	ldr	r3, [pc, #640]	; (80010fc <HAL_RCC_OscConfig+0x2ac>)
 8000e7c:	689b      	ldr	r3, [r3, #8]
 8000e7e:	f003 030c 	and.w	r3, r3, #12
    if((__HAL_RCC_GET_SYSCLK_SOURCE() == RCC_CFGR_SWS_HSE) ||\
 8000e82:	2b08      	cmp	r3, #8
 8000e84:	d112      	bne.n	8000eac <HAL_RCC_OscConfig+0x5c>
      ((__HAL_RCC_GET_SYSCLK_SOURCE() == RCC_CFGR_SWS_PLL) && ((RCC->PLLCFGR & RCC_PLLCFGR_PLLSRC) == RCC_PLLCFGR_PLLSRC_HSE)))
 8000e86:	4b9d      	ldr	r3, [pc, #628]	; (80010fc <HAL_RCC_OscConfig+0x2ac>)
 8000e88:	685b      	ldr	r3, [r3, #4]
 8000e8a:	f403 0380 	and.w	r3, r3, #4194304	; 0x400000
 8000e8e:	f5b3 0f80 	cmp.w	r3, #4194304	; 0x400000
 8000e92:	d10b      	bne.n	8000eac <HAL_RCC_OscConfig+0x5c>
    {
      if((__HAL_RCC_GET_FLAG(RCC_FLAG_HSERDY) != RESET) && (RCC_OscInitStruct->HSEState == RCC_HSE_OFF))
 8000e94:	4b99      	ldr	r3, [pc, #612]	; (80010fc <HAL_RCC_OscConfig+0x2ac>)
 8000e96:	681b      	ldr	r3, [r3, #0]
 8000e98:	f403 3300 	and.w	r3, r3, #131072	; 0x20000
 8000e9c:	2b00      	cmp	r3, #0
 8000e9e:	d05b      	beq.n	8000f58 <HAL_RCC_OscConfig+0x108>
 8000ea0:	687b      	ldr	r3, [r7, #4]
 8000ea2:	685b      	ldr	r3, [r3, #4]
 8000ea4:	2b00      	cmp	r3, #0
 8000ea6:	d157      	bne.n	8000f58 <HAL_RCC_OscConfig+0x108>
      {
        return HAL_ERROR;
 8000ea8:	2301      	movs	r3, #1
 8000eaa:	e236      	b.n	800131a <HAL_RCC_OscConfig+0x4ca>
      }
    }
    else
    {
      /* Set the new HSE configuration ---------------------------------------*/
      __HAL_RCC_HSE_CONFIG(RCC_OscInitStruct->HSEState);
 8000eac:	687b      	ldr	r3, [r7, #4]
 8000eae:	685b      	ldr	r3, [r3, #4]
 8000eb0:	f5b3 3f80 	cmp.w	r3, #65536	; 0x10000
 8000eb4:	d106      	bne.n	8000ec4 <HAL_RCC_OscConfig+0x74>
 8000eb6:	4b91      	ldr	r3, [pc, #580]	; (80010fc <HAL_RCC_OscConfig+0x2ac>)
 8000eb8:	681b      	ldr	r3, [r3, #0]
 8000eba:	4a90      	ldr	r2, [pc, #576]	; (80010fc <HAL_RCC_OscConfig+0x2ac>)
 8000ebc:	f443 3380 	orr.w	r3, r3, #65536	; 0x10000
 8000ec0:	6013      	str	r3, [r2, #0]
 8000ec2:	e01d      	b.n	8000f00 <HAL_RCC_OscConfig+0xb0>
 8000ec4:	687b      	ldr	r3, [r7, #4]
 8000ec6:	685b      	ldr	r3, [r3, #4]
 8000ec8:	f5b3 2fa0 	cmp.w	r3, #327680	; 0x50000
 8000ecc:	d10c      	bne.n	8000ee8 <HAL_RCC_OscConfig+0x98>
 8000ece:	4b8b      	ldr	r3, [pc, #556]	; (80010fc <HAL_RCC_OscConfig+0x2ac>)
 8000ed0:	681b      	ldr	r3, [r3, #0]
 8000ed2:	4a8a      	ldr	r2, [pc, #552]	; (80010fc <HAL_RCC_OscConfig+0x2ac>)
 8000ed4:	f443 2380 	orr.w	r3, r3, #262144	; 0x40000
 8000ed8:	6013      	str	r3, [r2, #0]
 8000eda:	4b88      	ldr	r3, [pc, #544]	; (80010fc <HAL_RCC_OscConfig+0x2ac>)
 8000edc:	681b      	ldr	r3, [r3, #0]
 8000ede:	4a87      	ldr	r2, [pc, #540]	; (80010fc <HAL_RCC_OscConfig+0x2ac>)
 8000ee0:	f443 3380 	orr.w	r3, r3, #65536	; 0x10000
 8000ee4:	6013      	str	r3, [r2, #0]
 8000ee6:	e00b      	b.n	8000f00 <HAL_RCC_OscConfig+0xb0>
 8000ee8:	4b84      	ldr	r3, [pc, #528]	; (80010fc <HAL_RCC_OscConfig+0x2ac>)
 8000eea:	681b      	ldr	r3, [r3, #0]
 8000eec:	4a83      	ldr	r2, [pc, #524]	; (80010fc <HAL_RCC_OscConfig+0x2ac>)
 8000eee:	f423 3380 	bic.w	r3, r3, #65536	; 0x10000
 8000ef2:	6013      	str	r3, [r2, #0]
 8000ef4:	4b81      	ldr	r3, [pc, #516]	; (80010fc <HAL_RCC_OscConfig+0x2ac>)
 8000ef6:	681b      	ldr	r3, [r3, #0]
 8000ef8:	4a80      	ldr	r2, [pc, #512]	; (80010fc <HAL_RCC_OscConfig+0x2ac>)
 8000efa:	f423 2380 	bic.w	r3, r3, #262144	; 0x40000
 8000efe:	6013      	str	r3, [r2, #0]

      /* Check the HSE State */
      if((RCC_OscInitStruct->HSEState) != RCC_HSE_OFF)
 8000f00:	687b      	ldr	r3, [r7, #4]
 8000f02:	685b      	ldr	r3, [r3, #4]
 8000f04:	2b00      	cmp	r3, #0
 8000f06:	d013      	beq.n	8000f30 <HAL_RCC_OscConfig+0xe0>
      {
        /* Get Start Tick */
        tickstart = HAL_GetTick();
 8000f08:	f7ff fcd2 	bl	80008b0 <HAL_GetTick>
 8000f0c:	6138      	str	r0, [r7, #16]

        /* Wait till HSE is ready */
        while(__HAL_RCC_GET_FLAG(RCC_FLAG_HSERDY) == RESET)
 8000f0e:	e008      	b.n	8000f22 <HAL_RCC_OscConfig+0xd2>
        {
          if((HAL_GetTick() - tickstart ) > HSE_TIMEOUT_VALUE)
 8000f10:	f7ff fcce 	bl	80008b0 <HAL_GetTick>
 8000f14:	4602      	mov	r2, r0
 8000f16:	693b      	ldr	r3, [r7, #16]
 8000f18:	1ad3      	subs	r3, r2, r3
 8000f1a:	2b64      	cmp	r3, #100	; 0x64
 8000f1c:	d901      	bls.n	8000f22 <HAL_RCC_OscConfig+0xd2>
          {
            return HAL_TIMEOUT;
 8000f1e:	2303      	movs	r3, #3
 8000f20:	e1fb      	b.n	800131a <HAL_RCC_OscConfig+0x4ca>
        while(__HAL_RCC_GET_FLAG(RCC_FLAG_HSERDY) == RESET)
 8000f22:	4b76      	ldr	r3, [pc, #472]	; (80010fc <HAL_RCC_OscConfig+0x2ac>)
 8000f24:	681b      	ldr	r3, [r3, #0]
 8000f26:	f403 3300 	and.w	r3, r3, #131072	; 0x20000
 8000f2a:	2b00      	cmp	r3, #0
 8000f2c:	d0f0      	beq.n	8000f10 <HAL_RCC_OscConfig+0xc0>
 8000f2e:	e014      	b.n	8000f5a <HAL_RCC_OscConfig+0x10a>
        }
      }
      else
      {
        /* Get Start Tick */
        tickstart = HAL_GetTick();
 8000f30:	f7ff fcbe 	bl	80008b0 <HAL_GetTick>
 8000f34:	6138      	str	r0, [r7, #16]

        /* Wait till HSE is bypassed or disabled */
        while(__HAL_RCC_GET_FLAG(RCC_FLAG_HSERDY) != RESET)
 8000f36:	e008      	b.n	8000f4a <HAL_RCC_OscConfig+0xfa>
        {
          if((HAL_GetTick() - tickstart ) > HSE_TIMEOUT_VALUE)
 8000f38:	f7ff fcba 	bl	80008b0 <HAL_GetTick>
 8000f3c:	4602      	mov	r2, r0
 8000f3e:	693b      	ldr	r3, [r7, #16]
 8000f40:	1ad3      	subs	r3, r2, r3
 8000f42:	2b64      	cmp	r3, #100	; 0x64
 8000f44:	d901      	bls.n	8000f4a <HAL_RCC_OscConfig+0xfa>
          {
            return HAL_TIMEOUT;
 8000f46:	2303      	movs	r3, #3
 8000f48:	e1e7      	b.n	800131a <HAL_RCC_OscConfig+0x4ca>
        while(__HAL_RCC_GET_FLAG(RCC_FLAG_HSERDY) != RESET)
 8000f4a:	4b6c      	ldr	r3, [pc, #432]	; (80010fc <HAL_RCC_OscConfig+0x2ac>)
 8000f4c:	681b      	ldr	r3, [r3, #0]
 8000f4e:	f403 3300 	and.w	r3, r3, #131072	; 0x20000
 8000f52:	2b00      	cmp	r3, #0
 8000f54:	d1f0      	bne.n	8000f38 <HAL_RCC_OscConfig+0xe8>
 8000f56:	e000      	b.n	8000f5a <HAL_RCC_OscConfig+0x10a>
      if((__HAL_RCC_GET_FLAG(RCC_FLAG_HSERDY) != RESET) && (RCC_OscInitStruct->HSEState == RCC_HSE_OFF))
 8000f58:	bf00      	nop
        }
      }
    }
  }
  /*----------------------------- HSI Configuration --------------------------*/
  if(((RCC_OscInitStruct->OscillatorType) & RCC_OSCILLATORTYPE_HSI) == RCC_OSCILLATORTYPE_HSI)
 8000f5a:	687b      	ldr	r3, [r7, #4]
 8000f5c:	681b      	ldr	r3, [r3, #0]
 8000f5e:	f003 0302 	and.w	r3, r3, #2
 8000f62:	2b00      	cmp	r3, #0
 8000f64:	d063      	beq.n	800102e <HAL_RCC_OscConfig+0x1de>
    /* Check the parameters */
    assert_param(IS_RCC_HSI(RCC_OscInitStruct->HSIState));
    assert_param(IS_RCC_CALIBRATION_VALUE(RCC_OscInitStruct->HSICalibrationValue));

    /* Check if HSI is used as system clock or as PLL source when PLL is selected as system clock */
    if((__HAL_RCC_GET_SYSCLK_SOURCE() == RCC_CFGR_SWS_HSI) ||\
 8000f66:	4b65      	ldr	r3, [pc, #404]	; (80010fc <HAL_RCC_OscConfig+0x2ac>)
 8000f68:	689b      	ldr	r3, [r3, #8]
 8000f6a:	f003 030c 	and.w	r3, r3, #12
 8000f6e:	2b00      	cmp	r3, #0
 8000f70:	d00b      	beq.n	8000f8a <HAL_RCC_OscConfig+0x13a>
      ((__HAL_RCC_GET_SYSCLK_SOURCE() == RCC_CFGR_SWS_PLL) && ((RCC->PLLCFGR & RCC_PLLCFGR_PLLSRC) == RCC_PLLCFGR_PLLSRC_HSI)))
 8000f72:	4b62      	ldr	r3, [pc, #392]	; (80010fc <HAL_RCC_OscConfig+0x2ac>)
 8000f74:	689b      	ldr	r3, [r3, #8]
 8000f76:	f003 030c 	and.w	r3, r3, #12
    if((__HAL_RCC_GET_SYSCLK_SOURCE() == RCC_CFGR_SWS_HSI) ||\
 8000f7a:	2b08      	cmp	r3, #8
 8000f7c:	d11c      	bne.n	8000fb8 <HAL_RCC_OscConfig+0x168>
      ((__HAL_RCC_GET_SYSCLK_SOURCE() == RCC_CFGR_SWS_PLL) && ((RCC->PLLCFGR & RCC_PLLCFGR_PLLSRC) == RCC_PLLCFGR_PLLSRC_HSI)))
 8000f7e:	4b5f      	ldr	r3, [pc, #380]	; (80010fc <HAL_RCC_OscConfig+0x2ac>)
 8000f80:	685b      	ldr	r3, [r3, #4]
 8000f82:	f403 0380 	and.w	r3, r3, #4194304	; 0x400000
 8000f86:	2b00      	cmp	r3, #0
 8000f88:	d116      	bne.n	8000fb8 <HAL_RCC_OscConfig+0x168>
    {
      /* When HSI is used as system clock it will not disabled */
      if((__HAL_RCC_GET_FLAG(RCC_FLAG_HSIRDY) != RESET) && (RCC_OscInitStruct->HSIState != RCC_HSI_ON))
 8000f8a:	4b5c      	ldr	r3, [pc, #368]	; (80010fc <HAL_RCC_OscConfig+0x2ac>)
 8000f8c:	681b      	ldr	r3, [r3, #0]
 8000f8e:	f003 0302 	and.w	r3, r3, #2
 8000f92:	2b00      	cmp	r3, #0
 8000f94:	d005      	beq.n	8000fa2 <HAL_RCC_OscConfig+0x152>
 8000f96:	687b      	ldr	r3, [r7, #4]
 8000f98:	68db      	ldr	r3, [r3, #12]
 8000f9a:	2b01      	cmp	r3, #1
 8000f9c:	d001      	beq.n	8000fa2 <HAL_RCC_OscConfig+0x152>
      {
        return HAL_ERROR;
 8000f9e:	2301      	movs	r3, #1
 8000fa0:	e1bb      	b.n	800131a <HAL_RCC_OscConfig+0x4ca>
      }
      /* Otherwise, just the calibration is allowed */
      else
      {
        /* Adjusts the Internal High Speed oscillator (HSI) calibration value.*/
        __HAL_RCC_HSI_CALIBRATIONVALUE_ADJUST(RCC_OscInitStruct->HSICalibrationValue);
 8000fa2:	4b56      	ldr	r3, [pc, #344]	; (80010fc <HAL_RCC_OscConfig+0x2ac>)
 8000fa4:	681b      	ldr	r3, [r3, #0]
 8000fa6:	f023 02f8 	bic.w	r2, r3, #248	; 0xf8
 8000faa:	687b      	ldr	r3, [r7, #4]
 8000fac:	691b      	ldr	r3, [r3, #16]
 8000fae:	00db      	lsls	r3, r3, #3
 8000fb0:	4952      	ldr	r1, [pc, #328]	; (80010fc <HAL_RCC_OscConfig+0x2ac>)
 8000fb2:	4313      	orrs	r3, r2
 8000fb4:	600b      	str	r3, [r1, #0]
      if((__HAL_RCC_GET_FLAG(RCC_FLAG_HSIRDY) != RESET) && (RCC_OscInitStruct->HSIState != RCC_HSI_ON))
 8000fb6:	e03a      	b.n	800102e <HAL_RCC_OscConfig+0x1de>
      }
    }
    else
    {
      /* Check the HSI State */
      if((RCC_OscInitStruct->HSIState)!= RCC_HSI_OFF)
 8000fb8:	687b      	ldr	r3, [r7, #4]
 8000fba:	68db      	ldr	r3, [r3, #12]
 8000fbc:	2b00      	cmp	r3, #0
 8000fbe:	d020      	beq.n	8001002 <HAL_RCC_OscConfig+0x1b2>
      {
        /* Enable the Internal High Speed oscillator (HSI). */
        __HAL_RCC_HSI_ENABLE();
 8000fc0:	4b4f      	ldr	r3, [pc, #316]	; (8001100 <HAL_RCC_OscConfig+0x2b0>)
 8000fc2:	2201      	movs	r2, #1
 8000fc4:	601a      	str	r2, [r3, #0]

        /* Get Start Tick*/
        tickstart = HAL_GetTick();
 8000fc6:	f7ff fc73 	bl	80008b0 <HAL_GetTick>
 8000fca:	6138      	str	r0, [r7, #16]

        /* Wait till HSI is ready */
        while(__HAL_RCC_GET_FLAG(RCC_FLAG_HSIRDY) == RESET)
 8000fcc:	e008      	b.n	8000fe0 <HAL_RCC_OscConfig+0x190>
        {
          if((HAL_GetTick() - tickstart ) > HSI_TIMEOUT_VALUE)
 8000fce:	f7ff fc6f 	bl	80008b0 <HAL_GetTick>
 8000fd2:	4602      	mov	r2, r0
 8000fd4:	693b      	ldr	r3, [r7, #16]
 8000fd6:	1ad3      	subs	r3, r2, r3
 8000fd8:	2b02      	cmp	r3, #2
 8000fda:	d901      	bls.n	8000fe0 <HAL_RCC_OscConfig+0x190>
          {
            return HAL_TIMEOUT;
 8000fdc:	2303      	movs	r3, #3
 8000fde:	e19c      	b.n	800131a <HAL_RCC_OscConfig+0x4ca>
        while(__HAL_RCC_GET_FLAG(RCC_FLAG_HSIRDY) == RESET)
 8000fe0:	4b46      	ldr	r3, [pc, #280]	; (80010fc <HAL_RCC_OscConfig+0x2ac>)
 8000fe2:	681b      	ldr	r3, [r3, #0]
 8000fe4:	f003 0302 	and.w	r3, r3, #2
 8000fe8:	2b00      	cmp	r3, #0
 8000fea:	d0f0      	beq.n	8000fce <HAL_RCC_OscConfig+0x17e>
          }
        }

        /* Adjusts the Internal High Speed oscillator (HSI) calibration value. */
        __HAL_RCC_HSI_CALIBRATIONVALUE_ADJUST(RCC_OscInitStruct->HSICalibrationValue);
 8000fec:	4b43      	ldr	r3, [pc, #268]	; (80010fc <HAL_RCC_OscConfig+0x2ac>)
 8000fee:	681b      	ldr	r3, [r3, #0]
 8000ff0:	f023 02f8 	bic.w	r2, r3, #248	; 0xf8
 8000ff4:	687b      	ldr	r3, [r7, #4]
 8000ff6:	691b      	ldr	r3, [r3, #16]
 8000ff8:	00db      	lsls	r3, r3, #3
 8000ffa:	4940      	ldr	r1, [pc, #256]	; (80010fc <HAL_RCC_OscConfig+0x2ac>)
 8000ffc:	4313      	orrs	r3, r2
 8000ffe:	600b      	str	r3, [r1, #0]
 8001000:	e015      	b.n	800102e <HAL_RCC_OscConfig+0x1de>
      }
      else
      {
        /* Disable the Internal High Speed oscillator (HSI). */
        __HAL_RCC_HSI_DISABLE();
 8001002:	4b3f      	ldr	r3, [pc, #252]	; (8001100 <HAL_RCC_OscConfig+0x2b0>)
 8001004:	2200      	movs	r2, #0
 8001006:	601a      	str	r2, [r3, #0]

        /* Get Start Tick*/
        tickstart = HAL_GetTick();
 8001008:	f7ff fc52 	bl	80008b0 <HAL_GetTick>
 800100c:	6138      	str	r0, [r7, #16]

        /* Wait till HSI is ready */
        while(__HAL_RCC_GET_FLAG(RCC_FLAG_HSIRDY) != RESET)
 800100e:	e008      	b.n	8001022 <HAL_RCC_OscConfig+0x1d2>
        {
          if((HAL_GetTick() - tickstart ) > HSI_TIMEOUT_VALUE)
 8001010:	f7ff fc4e 	bl	80008b0 <HAL_GetTick>
 8001014:	4602      	mov	r2, r0
 8001016:	693b      	ldr	r3, [r7, #16]
 8001018:	1ad3      	subs	r3, r2, r3
 800101a:	2b02      	cmp	r3, #2
 800101c:	d901      	bls.n	8001022 <HAL_RCC_OscConfig+0x1d2>
          {
            return HAL_TIMEOUT;
 800101e:	2303      	movs	r3, #3
 8001020:	e17b      	b.n	800131a <HAL_RCC_OscConfig+0x4ca>
        while(__HAL_RCC_GET_FLAG(RCC_FLAG_HSIRDY) != RESET)
 8001022:	4b36      	ldr	r3, [pc, #216]	; (80010fc <HAL_RCC_OscConfig+0x2ac>)
 8001024:	681b      	ldr	r3, [r3, #0]
 8001026:	f003 0302 	and.w	r3, r3, #2
 800102a:	2b00      	cmp	r3, #0
 800102c:	d1f0      	bne.n	8001010 <HAL_RCC_OscConfig+0x1c0>
        }
      }
    }
  }
  /*------------------------------ LSI Configuration -------------------------*/
  if(((RCC_OscInitStruct->OscillatorType) & RCC_OSCILLATORTYPE_LSI) == RCC_OSCILLATORTYPE_LSI)
 800102e:	687b      	ldr	r3, [r7, #4]
 8001030:	681b      	ldr	r3, [r3, #0]
 8001032:	f003 0308 	and.w	r3, r3, #8
 8001036:	2b00      	cmp	r3, #0
 8001038:	d030      	beq.n	800109c <HAL_RCC_OscConfig+0x24c>
  {
    /* Check the parameters */
    assert_param(IS_RCC_LSI(RCC_OscInitStruct->LSIState));

    /* Check the LSI State */
    if((RCC_OscInitStruct->LSIState)!= RCC_LSI_OFF)
 800103a:	687b      	ldr	r3, [r7, #4]
 800103c:	695b      	ldr	r3, [r3, #20]
 800103e:	2b00      	cmp	r3, #0
 8001040:	d016      	beq.n	8001070 <HAL_RCC_OscConfig+0x220>
    {
      /* Enable the Internal Low Speed oscillator (LSI). */
      __HAL_RCC_LSI_ENABLE();
 8001042:	4b30      	ldr	r3, [pc, #192]	; (8001104 <HAL_RCC_OscConfig+0x2b4>)
 8001044:	2201      	movs	r2, #1
 8001046:	601a      	str	r2, [r3, #0]

      /* Get Start Tick*/
      tickstart = HAL_GetTick();
 8001048:	f7ff fc32 	bl	80008b0 <HAL_GetTick>
 800104c:	6138      	str	r0, [r7, #16]

      /* Wait till LSI is ready */
      while(__HAL_RCC_GET_FLAG(RCC_FLAG_LSIRDY) == RESET)
 800104e:	e008      	b.n	8001062 <HAL_RCC_OscConfig+0x212>
      {
        if((HAL_GetTick() - tickstart ) > LSI_TIMEOUT_VALUE)
 8001050:	f7ff fc2e 	bl	80008b0 <HAL_GetTick>
 8001054:	4602      	mov	r2, r0
 8001056:	693b      	ldr	r3, [r7, #16]
 8001058:	1ad3      	subs	r3, r2, r3
 800105a:	2b02      	cmp	r3, #2
 800105c:	d901      	bls.n	8001062 <HAL_RCC_OscConfig+0x212>
        {
          return HAL_TIMEOUT;
 800105e:	2303      	movs	r3, #3
 8001060:	e15b      	b.n	800131a <HAL_RCC_OscConfig+0x4ca>
      while(__HAL_RCC_GET_FLAG(RCC_FLAG_LSIRDY) == RESET)
 8001062:	4b26      	ldr	r3, [pc, #152]	; (80010fc <HAL_RCC_OscConfig+0x2ac>)
 8001064:	6f5b      	ldr	r3, [r3, #116]	; 0x74
 8001066:	f003 0302 	and.w	r3, r3, #2
 800106a:	2b00      	cmp	r3, #0
 800106c:	d0f0      	beq.n	8001050 <HAL_RCC_OscConfig+0x200>
 800106e:	e015      	b.n	800109c <HAL_RCC_OscConfig+0x24c>
      }
    }
    else
    {
      /* Disable the Internal Low Speed oscillator (LSI). */
      __HAL_RCC_LSI_DISABLE();
 8001070:	4b24      	ldr	r3, [pc, #144]	; (8001104 <HAL_RCC_OscConfig+0x2b4>)
 8001072:	2200      	movs	r2, #0
 8001074:	601a      	str	r2, [r3, #0]

      /* Get Start Tick */
      tickstart = HAL_GetTick();
 8001076:	f7ff fc1b 	bl	80008b0 <HAL_GetTick>
 800107a:	6138      	str	r0, [r7, #16]

      /* Wait till LSI is ready */
      while(__HAL_RCC_GET_FLAG(RCC_FLAG_LSIRDY) != RESET)
 800107c:	e008      	b.n	8001090 <HAL_RCC_OscConfig+0x240>
      {
        if((HAL_GetTick() - tickstart ) > LSI_TIMEOUT_VALUE)
 800107e:	f7ff fc17 	bl	80008b0 <HAL_GetTick>
 8001082:	4602      	mov	r2, r0
 8001084:	693b      	ldr	r3, [r7, #16]
 8001086:	1ad3      	subs	r3, r2, r3
 8001088:	2b02      	cmp	r3, #2
 800108a:	d901      	bls.n	8001090 <HAL_RCC_OscConfig+0x240>
        {
          return HAL_TIMEOUT;
 800108c:	2303      	movs	r3, #3
 800108e:	e144      	b.n	800131a <HAL_RCC_OscConfig+0x4ca>
      while(__HAL_RCC_GET_FLAG(RCC_FLAG_LSIRDY) != RESET)
 8001090:	4b1a      	ldr	r3, [pc, #104]	; (80010fc <HAL_RCC_OscConfig+0x2ac>)
 8001092:	6f5b      	ldr	r3, [r3, #116]	; 0x74
 8001094:	f003 0302 	and.w	r3, r3, #2
 8001098:	2b00      	cmp	r3, #0
 800109a:	d1f0      	bne.n	800107e <HAL_RCC_OscConfig+0x22e>
        }
      }
    }
  }
  /*------------------------------ LSE Configuration -------------------------*/
  if(((RCC_OscInitStruct->OscillatorType) & RCC_OSCILLATORTYPE_LSE) == RCC_OSCILLATORTYPE_LSE)
 800109c:	687b      	ldr	r3, [r7, #4]
 800109e:	681b      	ldr	r3, [r3, #0]
 80010a0:	f003 0304 	and.w	r3, r3, #4
 80010a4:	2b00      	cmp	r3, #0
 80010a6:	f000 80a0 	beq.w	80011ea <HAL_RCC_OscConfig+0x39a>
  {
    FlagStatus       pwrclkchanged = RESET;
 80010aa:	2300      	movs	r3, #0
 80010ac:	75fb      	strb	r3, [r7, #23]
    /* Check the parameters */
    assert_param(IS_RCC_LSE(RCC_OscInitStruct->LSEState));

    /* Update LSE configuration in Backup Domain control register    */
    /* Requires to enable write access to Backup Domain of necessary */
    if(__HAL_RCC_PWR_IS_CLK_DISABLED())
 80010ae:	4b13      	ldr	r3, [pc, #76]	; (80010fc <HAL_RCC_OscConfig+0x2ac>)
 80010b0:	6c1b      	ldr	r3, [r3, #64]	; 0x40
 80010b2:	f003 5380 	and.w	r3, r3, #268435456	; 0x10000000
 80010b6:	2b00      	cmp	r3, #0
 80010b8:	d10f      	bne.n	80010da <HAL_RCC_OscConfig+0x28a>
    {
      __HAL_RCC_PWR_CLK_ENABLE();
 80010ba:	2300      	movs	r3, #0
 80010bc:	60bb      	str	r3, [r7, #8]
 80010be:	4b0f      	ldr	r3, [pc, #60]	; (80010fc <HAL_RCC_OscConfig+0x2ac>)
 80010c0:	6c1b      	ldr	r3, [r3, #64]	; 0x40
 80010c2:	4a0e      	ldr	r2, [pc, #56]	; (80010fc <HAL_RCC_OscConfig+0x2ac>)
 80010c4:	f043 5380 	orr.w	r3, r3, #268435456	; 0x10000000
 80010c8:	6413      	str	r3, [r2, #64]	; 0x40
 80010ca:	4b0c      	ldr	r3, [pc, #48]	; (80010fc <HAL_RCC_OscConfig+0x2ac>)
 80010cc:	6c1b      	ldr	r3, [r3, #64]	; 0x40
 80010ce:	f003 5380 	and.w	r3, r3, #268435456	; 0x10000000
 80010d2:	60bb      	str	r3, [r7, #8]
 80010d4:	68bb      	ldr	r3, [r7, #8]
      pwrclkchanged = SET;
 80010d6:	2301      	movs	r3, #1
 80010d8:	75fb      	strb	r3, [r7, #23]
    }

    if(HAL_IS_BIT_CLR(PWR->CR, PWR_CR_DBP))
 80010da:	4b0b      	ldr	r3, [pc, #44]	; (8001108 <HAL_RCC_OscConfig+0x2b8>)
 80010dc:	681b      	ldr	r3, [r3, #0]
 80010de:	f403 7380 	and.w	r3, r3, #256	; 0x100
 80010e2:	2b00      	cmp	r3, #0
 80010e4:	d121      	bne.n	800112a <HAL_RCC_OscConfig+0x2da>
    {
      /* Enable write access to Backup domain */
      SET_BIT(PWR->CR, PWR_CR_DBP);
 80010e6:	4b08      	ldr	r3, [pc, #32]	; (8001108 <HAL_RCC_OscConfig+0x2b8>)
 80010e8:	681b      	ldr	r3, [r3, #0]
 80010ea:	4a07      	ldr	r2, [pc, #28]	; (8001108 <HAL_RCC_OscConfig+0x2b8>)
 80010ec:	f443 7380 	orr.w	r3, r3, #256	; 0x100
 80010f0:	6013      	str	r3, [r2, #0]

      /* Wait for Backup domain Write protection disable */
      tickstart = HAL_GetTick();
 80010f2:	f7ff fbdd 	bl	80008b0 <HAL_GetTick>
 80010f6:	6138      	str	r0, [r7, #16]

      while(HAL_IS_BIT_CLR(PWR->CR, PWR_CR_DBP))
 80010f8:	e011      	b.n	800111e <HAL_RCC_OscConfig+0x2ce>
 80010fa:	bf00      	nop
 80010fc:	40023800 	.word	0x40023800
 8001100:	42470000 	.word	0x42470000
 8001104:	42470e80 	.word	0x42470e80
 8001108:	40007000 	.word	0x40007000
      {
        if((HAL_GetTick() - tickstart) > RCC_DBP_TIMEOUT_VALUE)
 800110c:	f7ff fbd0 	bl	80008b0 <HAL_GetTick>
 8001110:	4602      	mov	r2, r0
 8001112:	693b      	ldr	r3, [r7, #16]
 8001114:	1ad3      	subs	r3, r2, r3
 8001116:	2b02      	cmp	r3, #2
 8001118:	d901      	bls.n	800111e <HAL_RCC_OscConfig+0x2ce>
        {
          return HAL_TIMEOUT;
 800111a:	2303      	movs	r3, #3
 800111c:	e0fd      	b.n	800131a <HAL_RCC_OscConfig+0x4ca>
      while(HAL_IS_BIT_CLR(PWR->CR, PWR_CR_DBP))
 800111e:	4b81      	ldr	r3, [pc, #516]	; (8001324 <HAL_RCC_OscConfig+0x4d4>)
 8001120:	681b      	ldr	r3, [r3, #0]
 8001122:	f403 7380 	and.w	r3, r3, #256	; 0x100
 8001126:	2b00      	cmp	r3, #0
 8001128:	d0f0      	beq.n	800110c <HAL_RCC_OscConfig+0x2bc>
        }
      }
    }

    /* Set the new LSE configuration -----------------------------------------*/
    __HAL_RCC_LSE_CONFIG(RCC_OscInitStruct->LSEState);
 800112a:	687b      	ldr	r3, [r7, #4]
 800112c:	689b      	ldr	r3, [r3, #8]
 800112e:	2b01      	cmp	r3, #1
 8001130:	d106      	bne.n	8001140 <HAL_RCC_OscConfig+0x2f0>
 8001132:	4b7d      	ldr	r3, [pc, #500]	; (8001328 <HAL_RCC_OscConfig+0x4d8>)
 8001134:	6f1b      	ldr	r3, [r3, #112]	; 0x70
 8001136:	4a7c      	ldr	r2, [pc, #496]	; (8001328 <HAL_RCC_OscConfig+0x4d8>)
 8001138:	f043 0301 	orr.w	r3, r3, #1
 800113c:	6713      	str	r3, [r2, #112]	; 0x70
 800113e:	e01c      	b.n	800117a <HAL_RCC_OscConfig+0x32a>
 8001140:	687b      	ldr	r3, [r7, #4]
 8001142:	689b      	ldr	r3, [r3, #8]
 8001144:	2b05      	cmp	r3, #5
 8001146:	d10c      	bne.n	8001162 <HAL_RCC_OscConfig+0x312>
 8001148:	4b77      	ldr	r3, [pc, #476]	; (8001328 <HAL_RCC_OscConfig+0x4d8>)
 800114a:	6f1b      	ldr	r3, [r3, #112]	; 0x70
 800114c:	4a76      	ldr	r2, [pc, #472]	; (8001328 <HAL_RCC_OscConfig+0x4d8>)
 800114e:	f043 0304 	orr.w	r3, r3, #4
 8001152:	6713      	str	r3, [r2, #112]	; 0x70
 8001154:	4b74      	ldr	r3, [pc, #464]	; (8001328 <HAL_RCC_OscConfig+0x4d8>)
 8001156:	6f1b      	ldr	r3, [r3, #112]	; 0x70
 8001158:	4a73      	ldr	r2, [pc, #460]	; (8001328 <HAL_RCC_OscConfig+0x4d8>)
 800115a:	f043 0301 	orr.w	r3, r3, #1
 800115e:	6713      	str	r3, [r2, #112]	; 0x70
 8001160:	e00b      	b.n	800117a <HAL_RCC_OscConfig+0x32a>
 8001162:	4b71      	ldr	r3, [pc, #452]	; (8001328 <HAL_RCC_OscConfig+0x4d8>)
 8001164:	6f1b      	ldr	r3, [r3, #112]	; 0x70
 8001166:	4a70      	ldr	r2, [pc, #448]	; (8001328 <HAL_RCC_OscConfig+0x4d8>)
 8001168:	f023 0301 	bic.w	r3, r3, #1
 800116c:	6713      	str	r3, [r2, #112]	; 0x70
 800116e:	4b6e      	ldr	r3, [pc, #440]	; (8001328 <HAL_RCC_OscConfig+0x4d8>)
 8001170:	6f1b      	ldr	r3, [r3, #112]	; 0x70
 8001172:	4a6d      	ldr	r2, [pc, #436]	; (8001328 <HAL_RCC_OscConfig+0x4d8>)
 8001174:	f023 0304 	bic.w	r3, r3, #4
 8001178:	6713      	str	r3, [r2, #112]	; 0x70
    /* Check the LSE State */
    if((RCC_OscInitStruct->LSEState) != RCC_LSE_OFF)
 800117a:	687b      	ldr	r3, [r7, #4]
 800117c:	689b      	ldr	r3, [r3, #8]
 800117e:	2b00      	cmp	r3, #0
 8001180:	d015      	beq.n	80011ae <HAL_RCC_OscConfig+0x35e>
    {
      /* Get Start Tick*/
      tickstart = HAL_GetTick();
 8001182:	f7ff fb95 	bl	80008b0 <HAL_GetTick>
 8001186:	6138      	str	r0, [r7, #16]

      /* Wait till LSE is ready */
      while(__HAL_RCC_GET_FLAG(RCC_FLAG_LSERDY) == RESET)
 8001188:	e00a      	b.n	80011a0 <HAL_RCC_OscConfig+0x350>
      {
        if((HAL_GetTick() - tickstart ) > RCC_LSE_TIMEOUT_VALUE)
 800118a:	f7ff fb91 	bl	80008b0 <HAL_GetTick>
 800118e:	4602      	mov	r2, r0
 8001190:	693b      	ldr	r3, [r7, #16]
 8001192:	1ad3      	subs	r3, r2, r3
 8001194:	f241 3288 	movw	r2, #5000	; 0x1388
 8001198:	4293      	cmp	r3, r2
 800119a:	d901      	bls.n	80011a0 <HAL_RCC_OscConfig+0x350>
        {
          return HAL_TIMEOUT;
 800119c:	2303      	movs	r3, #3
 800119e:	e0bc      	b.n	800131a <HAL_RCC_OscConfig+0x4ca>
      while(__HAL_RCC_GET_FLAG(RCC_FLAG_LSERDY) == RESET)
 80011a0:	4b61      	ldr	r3, [pc, #388]	; (8001328 <HAL_RCC_OscConfig+0x4d8>)
 80011a2:	6f1b      	ldr	r3, [r3, #112]	; 0x70
 80011a4:	f003 0302 	and.w	r3, r3, #2
 80011a8:	2b00      	cmp	r3, #0
 80011aa:	d0ee      	beq.n	800118a <HAL_RCC_OscConfig+0x33a>
 80011ac:	e014      	b.n	80011d8 <HAL_RCC_OscConfig+0x388>
      }
    }
    else
    {
      /* Get Start Tick */
      tickstart = HAL_GetTick();
 80011ae:	f7ff fb7f 	bl	80008b0 <HAL_GetTick>
 80011b2:	6138      	str	r0, [r7, #16]

      /* Wait till LSE is ready */
      while(__HAL_RCC_GET_FLAG(RCC_FLAG_LSERDY) != RESET)
 80011b4:	e00a      	b.n	80011cc <HAL_RCC_OscConfig+0x37c>
      {
        if((HAL_GetTick() - tickstart ) > RCC_LSE_TIMEOUT_VALUE)
 80011b6:	f7ff fb7b 	bl	80008b0 <HAL_GetTick>
 80011ba:	4602      	mov	r2, r0
 80011bc:	693b      	ldr	r3, [r7, #16]
 80011be:	1ad3      	subs	r3, r2, r3
 80011c0:	f241 3288 	movw	r2, #5000	; 0x1388
 80011c4:	4293      	cmp	r3, r2
 80011c6:	d901      	bls.n	80011cc <HAL_RCC_OscConfig+0x37c>
        {
          return HAL_TIMEOUT;
 80011c8:	2303      	movs	r3, #3
 80011ca:	e0a6      	b.n	800131a <HAL_RCC_OscConfig+0x4ca>
      while(__HAL_RCC_GET_FLAG(RCC_FLAG_LSERDY) != RESET)
 80011cc:	4b56      	ldr	r3, [pc, #344]	; (8001328 <HAL_RCC_OscConfig+0x4d8>)
 80011ce:	6f1b      	ldr	r3, [r3, #112]	; 0x70
 80011d0:	f003 0302 	and.w	r3, r3, #2
 80011d4:	2b00      	cmp	r3, #0
 80011d6:	d1ee      	bne.n	80011b6 <HAL_RCC_OscConfig+0x366>
        }
      }
    }

    /* Restore clock configuration if changed */
    if(pwrclkchanged == SET)
 80011d8:	7dfb      	ldrb	r3, [r7, #23]
 80011da:	2b01      	cmp	r3, #1
 80011dc:	d105      	bne.n	80011ea <HAL_RCC_OscConfig+0x39a>
    {
      __HAL_RCC_PWR_CLK_DISABLE();
 80011de:	4b52      	ldr	r3, [pc, #328]	; (8001328 <HAL_RCC_OscConfig+0x4d8>)
 80011e0:	6c1b      	ldr	r3, [r3, #64]	; 0x40
 80011e2:	4a51      	ldr	r2, [pc, #324]	; (8001328 <HAL_RCC_OscConfig+0x4d8>)
 80011e4:	f023 5380 	bic.w	r3, r3, #268435456	; 0x10000000
 80011e8:	6413      	str	r3, [r2, #64]	; 0x40
    }
  }
  /*-------------------------------- PLL Configuration -----------------------*/
  /* Check the parameters */
  assert_param(IS_RCC_PLL(RCC_OscInitStruct->PLL.PLLState));
  if ((RCC_OscInitStruct->PLL.PLLState) != RCC_PLL_NONE)
 80011ea:	687b      	ldr	r3, [r7, #4]
 80011ec:	699b      	ldr	r3, [r3, #24]
 80011ee:	2b00      	cmp	r3, #0
 80011f0:	f000 8092 	beq.w	8001318 <HAL_RCC_OscConfig+0x4c8>
  {
    /* Check if the PLL is used as system clock or not */
    if(__HAL_RCC_GET_SYSCLK_SOURCE() != RCC_CFGR_SWS_PLL)
 80011f4:	4b4c      	ldr	r3, [pc, #304]	; (8001328 <HAL_RCC_OscConfig+0x4d8>)
 80011f6:	689b      	ldr	r3, [r3, #8]
 80011f8:	f003 030c 	and.w	r3, r3, #12
 80011fc:	2b08      	cmp	r3, #8
 80011fe:	d05c      	beq.n	80012ba <HAL_RCC_OscConfig+0x46a>
    {
      if((RCC_OscInitStruct->PLL.PLLState) == RCC_PLL_ON)
 8001200:	687b      	ldr	r3, [r7, #4]
 8001202:	699b      	ldr	r3, [r3, #24]
 8001204:	2b02      	cmp	r3, #2
 8001206:	d141      	bne.n	800128c <HAL_RCC_OscConfig+0x43c>
        assert_param(IS_RCC_PLLN_VALUE(RCC_OscInitStruct->PLL.PLLN));
        assert_param(IS_RCC_PLLP_VALUE(RCC_OscInitStruct->PLL.PLLP));
        assert_param(IS_RCC_PLLQ_VALUE(RCC_OscInitStruct->PLL.PLLQ));

        /* Disable the main PLL. */
        __HAL_RCC_PLL_DISABLE();
 8001208:	4b48      	ldr	r3, [pc, #288]	; (800132c <HAL_RCC_OscConfig+0x4dc>)
 800120a:	2200      	movs	r2, #0
 800120c:	601a      	str	r2, [r3, #0]

        /* Get Start Tick */
        tickstart = HAL_GetTick();
 800120e:	f7ff fb4f 	bl	80008b0 <HAL_GetTick>
 8001212:	6138      	str	r0, [r7, #16]

        /* Wait till PLL is ready */
        while(__HAL_RCC_GET_FLAG(RCC_FLAG_PLLRDY) != RESET)
 8001214:	e008      	b.n	8001228 <HAL_RCC_OscConfig+0x3d8>
        {
          if((HAL_GetTick() - tickstart ) > PLL_TIMEOUT_VALUE)
 8001216:	f7ff fb4b 	bl	80008b0 <HAL_GetTick>
 800121a:	4602      	mov	r2, r0
 800121c:	693b      	ldr	r3, [r7, #16]
 800121e:	1ad3      	subs	r3, r2, r3
 8001220:	2b02      	cmp	r3, #2
 8001222:	d901      	bls.n	8001228 <HAL_RCC_OscConfig+0x3d8>
          {
            return HAL_TIMEOUT;
 8001224:	2303      	movs	r3, #3
 8001226:	e078      	b.n	800131a <HAL_RCC_OscConfig+0x4ca>
        while(__HAL_RCC_GET_FLAG(RCC_FLAG_PLLRDY) != RESET)
 8001228:	4b3f      	ldr	r3, [pc, #252]	; (8001328 <HAL_RCC_OscConfig+0x4d8>)
 800122a:	681b      	ldr	r3, [r3, #0]
 800122c:	f003 7300 	and.w	r3, r3, #33554432	; 0x2000000
 8001230:	2b00      	cmp	r3, #0
 8001232:	d1f0      	bne.n	8001216 <HAL_RCC_OscConfig+0x3c6>
          }
        }

        /* Configure the main PLL clock source, multiplication and division factors. */
        WRITE_REG(RCC->PLLCFGR, (RCC_OscInitStruct->PLL.PLLSource                                            | \
 8001234:	687b      	ldr	r3, [r7, #4]
 8001236:	69da      	ldr	r2, [r3, #28]
 8001238:	687b      	ldr	r3, [r7, #4]
 800123a:	6a1b      	ldr	r3, [r3, #32]
 800123c:	431a      	orrs	r2, r3
 800123e:	687b      	ldr	r3, [r7, #4]
 8001240:	6a5b      	ldr	r3, [r3, #36]	; 0x24
 8001242:	019b      	lsls	r3, r3, #6
 8001244:	431a      	orrs	r2, r3
 8001246:	687b      	ldr	r3, [r7, #4]
 8001248:	6a9b      	ldr	r3, [r3, #40]	; 0x28
 800124a:	085b      	lsrs	r3, r3, #1
 800124c:	3b01      	subs	r3, #1
 800124e:	041b      	lsls	r3, r3, #16
 8001250:	431a      	orrs	r2, r3
 8001252:	687b      	ldr	r3, [r7, #4]
 8001254:	6adb      	ldr	r3, [r3, #44]	; 0x2c
 8001256:	061b      	lsls	r3, r3, #24
 8001258:	4933      	ldr	r1, [pc, #204]	; (8001328 <HAL_RCC_OscConfig+0x4d8>)
 800125a:	4313      	orrs	r3, r2
 800125c:	604b      	str	r3, [r1, #4]
                                 RCC_OscInitStruct->PLL.PLLM                                                 | \
                                 (RCC_OscInitStruct->PLL.PLLN << RCC_PLLCFGR_PLLN_Pos)             | \
                                 (((RCC_OscInitStruct->PLL.PLLP >> 1U) - 1U) << RCC_PLLCFGR_PLLP_Pos) | \
                                 (RCC_OscInitStruct->PLL.PLLQ << RCC_PLLCFGR_PLLQ_Pos)));
        /* Enable the main PLL. */
        __HAL_RCC_PLL_ENABLE();
 800125e:	4b33      	ldr	r3, [pc, #204]	; (800132c <HAL_RCC_OscConfig+0x4dc>)
 8001260:	2201      	movs	r2, #1
 8001262:	601a      	str	r2, [r3, #0]

        /* Get Start Tick */
        tickstart = HAL_GetTick();
 8001264:	f7ff fb24 	bl	80008b0 <HAL_GetTick>
 8001268:	6138      	str	r0, [r7, #16]

        /* Wait till PLL is ready */
        while(__HAL_RCC_GET_FLAG(RCC_FLAG_PLLRDY) == RESET)
 800126a:	e008      	b.n	800127e <HAL_RCC_OscConfig+0x42e>
        {
          if((HAL_GetTick() - tickstart ) > PLL_TIMEOUT_VALUE)
 800126c:	f7ff fb20 	bl	80008b0 <HAL_GetTick>
 8001270:	4602      	mov	r2, r0
 8001272:	693b      	ldr	r3, [r7, #16]
 8001274:	1ad3      	subs	r3, r2, r3
 8001276:	2b02      	cmp	r3, #2
 8001278:	d901      	bls.n	800127e <HAL_RCC_OscConfig+0x42e>
          {
            return HAL_TIMEOUT;
 800127a:	2303      	movs	r3, #3
 800127c:	e04d      	b.n	800131a <HAL_RCC_OscConfig+0x4ca>
        while(__HAL_RCC_GET_FLAG(RCC_FLAG_PLLRDY) == RESET)
 800127e:	4b2a      	ldr	r3, [pc, #168]	; (8001328 <HAL_RCC_OscConfig+0x4d8>)
 8001280:	681b      	ldr	r3, [r3, #0]
 8001282:	f003 7300 	and.w	r3, r3, #33554432	; 0x2000000
 8001286:	2b00      	cmp	r3, #0
 8001288:	d0f0      	beq.n	800126c <HAL_RCC_OscConfig+0x41c>
 800128a:	e045      	b.n	8001318 <HAL_RCC_OscConfig+0x4c8>
        }
      }
      else
      {
        /* Disable the main PLL. */
        __HAL_RCC_PLL_DISABLE();
 800128c:	4b27      	ldr	r3, [pc, #156]	; (800132c <HAL_RCC_OscConfig+0x4dc>)
 800128e:	2200      	movs	r2, #0
 8001290:	601a      	str	r2, [r3, #0]

        /* Get Start Tick */
        tickstart = HAL_GetTick();
 8001292:	f7ff fb0d 	bl	80008b0 <HAL_GetTick>
 8001296:	6138      	str	r0, [r7, #16]

        /* Wait till PLL is ready */
        while(__HAL_RCC_GET_FLAG(RCC_FLAG_PLLRDY) != RESET)
 8001298:	e008      	b.n	80012ac <HAL_RCC_OscConfig+0x45c>
        {
          if((HAL_GetTick() - tickstart ) > PLL_TIMEOUT_VALUE)
 800129a:	f7ff fb09 	bl	80008b0 <HAL_GetTick>
 800129e:	4602      	mov	r2, r0
 80012a0:	693b      	ldr	r3, [r7, #16]
 80012a2:	1ad3      	subs	r3, r2, r3
 80012a4:	2b02      	cmp	r3, #2
 80012a6:	d901      	bls.n	80012ac <HAL_RCC_OscConfig+0x45c>
          {
            return HAL_TIMEOUT;
 80012a8:	2303      	movs	r3, #3
 80012aa:	e036      	b.n	800131a <HAL_RCC_OscConfig+0x4ca>
        while(__HAL_RCC_GET_FLAG(RCC_FLAG_PLLRDY) != RESET)
 80012ac:	4b1e      	ldr	r3, [pc, #120]	; (8001328 <HAL_RCC_OscConfig+0x4d8>)
 80012ae:	681b      	ldr	r3, [r3, #0]
 80012b0:	f003 7300 	and.w	r3, r3, #33554432	; 0x2000000
 80012b4:	2b00      	cmp	r3, #0
 80012b6:	d1f0      	bne.n	800129a <HAL_RCC_OscConfig+0x44a>
 80012b8:	e02e      	b.n	8001318 <HAL_RCC_OscConfig+0x4c8>
      }
    }
    else
    {
      /* Check if there is a request to disable the PLL used as System clock source */
      if((RCC_OscInitStruct->PLL.PLLState) == RCC_PLL_OFF)
 80012ba:	687b      	ldr	r3, [r7, #4]
 80012bc:	699b      	ldr	r3, [r3, #24]
 80012be:	2b01      	cmp	r3, #1
 80012c0:	d101      	bne.n	80012c6 <HAL_RCC_OscConfig+0x476>
      {
        return HAL_ERROR;
 80012c2:	2301      	movs	r3, #1
 80012c4:	e029      	b.n	800131a <HAL_RCC_OscConfig+0x4ca>
      }
      else
      {
        /* Do not return HAL_ERROR if request repeats the current configuration */
        pll_config = RCC->PLLCFGR;
 80012c6:	4b18      	ldr	r3, [pc, #96]	; (8001328 <HAL_RCC_OscConfig+0x4d8>)
 80012c8:	685b      	ldr	r3, [r3, #4]
 80012ca:	60fb      	str	r3, [r7, #12]
        if((READ_BIT(pll_config, RCC_PLLCFGR_PLLSRC) != RCC_OscInitStruct->PLL.PLLSource) ||
 80012cc:	68fb      	ldr	r3, [r7, #12]
 80012ce:	f403 0280 	and.w	r2, r3, #4194304	; 0x400000
 80012d2:	687b      	ldr	r3, [r7, #4]
 80012d4:	69db      	ldr	r3, [r3, #28]
 80012d6:	429a      	cmp	r2, r3
 80012d8:	d11c      	bne.n	8001314 <HAL_RCC_OscConfig+0x4c4>
           (READ_BIT(pll_config, RCC_PLLCFGR_PLLM) != RCC_OscInitStruct->PLL.PLLM) ||
 80012da:	68fb      	ldr	r3, [r7, #12]
 80012dc:	f003 023f 	and.w	r2, r3, #63	; 0x3f
 80012e0:	687b      	ldr	r3, [r7, #4]
 80012e2:	6a1b      	ldr	r3, [r3, #32]
        if((READ_BIT(pll_config, RCC_PLLCFGR_PLLSRC) != RCC_OscInitStruct->PLL.PLLSource) ||
 80012e4:	429a      	cmp	r2, r3
 80012e6:	d115      	bne.n	8001314 <HAL_RCC_OscConfig+0x4c4>
           (READ_BIT(pll_config, RCC_PLLCFGR_PLLN) != RCC_OscInitStruct->PLL.PLLN) ||
 80012e8:	68fa      	ldr	r2, [r7, #12]
 80012ea:	f647 73c0 	movw	r3, #32704	; 0x7fc0
 80012ee:	4013      	ands	r3, r2
 80012f0:	687a      	ldr	r2, [r7, #4]
 80012f2:	6a52      	ldr	r2, [r2, #36]	; 0x24
           (READ_BIT(pll_config, RCC_PLLCFGR_PLLM) != RCC_OscInitStruct->PLL.PLLM) ||
 80012f4:	4293      	cmp	r3, r2
 80012f6:	d10d      	bne.n	8001314 <HAL_RCC_OscConfig+0x4c4>
           (READ_BIT(pll_config, RCC_PLLCFGR_PLLP) != RCC_OscInitStruct->PLL.PLLP) ||
 80012f8:	68fb      	ldr	r3, [r7, #12]
 80012fa:	f403 3240 	and.w	r2, r3, #196608	; 0x30000
 80012fe:	687b      	ldr	r3, [r7, #4]
 8001300:	6a9b      	ldr	r3, [r3, #40]	; 0x28
           (READ_BIT(pll_config, RCC_PLLCFGR_PLLN) != RCC_OscInitStruct->PLL.PLLN) ||
 8001302:	429a      	cmp	r2, r3
 8001304:	d106      	bne.n	8001314 <HAL_RCC_OscConfig+0x4c4>
           (READ_BIT(pll_config, RCC_PLLCFGR_PLLQ) != RCC_OscInitStruct->PLL.PLLQ))
 8001306:	68fb      	ldr	r3, [r7, #12]
 8001308:	f003 6270 	and.w	r2, r3, #251658240	; 0xf000000
 800130c:	687b      	ldr	r3, [r7, #4]
 800130e:	6adb      	ldr	r3, [r3, #44]	; 0x2c
           (READ_BIT(pll_config, RCC_PLLCFGR_PLLP) != RCC_OscInitStruct->PLL.PLLP) ||
 8001310:	429a      	cmp	r2, r3
 8001312:	d001      	beq.n	8001318 <HAL_RCC_OscConfig+0x4c8>
        {
          return HAL_ERROR;
 8001314:	2301      	movs	r3, #1
 8001316:	e000      	b.n	800131a <HAL_RCC_OscConfig+0x4ca>
        }
      }
    }
  }
  return HAL_OK;
 8001318:	2300      	movs	r3, #0
}
 800131a:	4618      	mov	r0, r3
 800131c:	3718      	adds	r7, #24
 800131e:	46bd      	mov	sp, r7
 8001320:	bd80      	pop	{r7, pc}
 8001322:	bf00      	nop
 8001324:	40007000 	.word	0x40007000
 8001328:	40023800 	.word	0x40023800
 800132c:	42470060 	.word	0x42470060

08001330 <HAL_RCC_ClockConfig>:
  *         HPRE[3:0] bits to ensure that HCLK not exceed the maximum allowed frequency
  *         (for more details refer to section above "Initialization/de-initialization functions")
  * @retval None
  */
HAL_StatusTypeDef HAL_RCC_ClockConfig(RCC_ClkInitTypeDef  *RCC_ClkInitStruct, uint32_t FLatency)
{
 8001330:	b580      	push	{r7, lr}
 8001332:	b084      	sub	sp, #16
 8001334:	af00      	add	r7, sp, #0
 8001336:	6078      	str	r0, [r7, #4]
 8001338:	6039      	str	r1, [r7, #0]
  uint32_t tickstart;

  /* Check Null pointer */
  if(RCC_ClkInitStruct == NULL)
 800133a:	687b      	ldr	r3, [r7, #4]
 800133c:	2b00      	cmp	r3, #0
 800133e:	d101      	bne.n	8001344 <HAL_RCC_ClockConfig+0x14>
  {
    return HAL_ERROR;
 8001340:	2301      	movs	r3, #1
 8001342:	e0cc      	b.n	80014de <HAL_RCC_ClockConfig+0x1ae>
  /* To correctly read data from FLASH memory, the number of wait states (LATENCY)
    must be correctly programmed according to the frequency of the CPU clock
    (HCLK) and the supply voltage of the device. */

  /* Increasing the number of wait states because of higher CPU frequency */
  if(FLatency > __HAL_FLASH_GET_LATENCY())
 8001344:	4b68      	ldr	r3, [pc, #416]	; (80014e8 <HAL_RCC_ClockConfig+0x1b8>)
 8001346:	681b      	ldr	r3, [r3, #0]
 8001348:	f003 030f 	and.w	r3, r3, #15
 800134c:	683a      	ldr	r2, [r7, #0]
 800134e:	429a      	cmp	r2, r3
 8001350:	d90c      	bls.n	800136c <HAL_RCC_ClockConfig+0x3c>
  {
    /* Program the new number of wait states to the LATENCY bits in the FLASH_ACR register */
    __HAL_FLASH_SET_LATENCY(FLatency);
 8001352:	4b65      	ldr	r3, [pc, #404]	; (80014e8 <HAL_RCC_ClockConfig+0x1b8>)
 8001354:	683a      	ldr	r2, [r7, #0]
 8001356:	b2d2      	uxtb	r2, r2
 8001358:	701a      	strb	r2, [r3, #0]

    /* Check that the new number of wait states is taken into account to access the Flash
    memory by reading the FLASH_ACR register */
    if(__HAL_FLASH_GET_LATENCY() != FLatency)
 800135a:	4b63      	ldr	r3, [pc, #396]	; (80014e8 <HAL_RCC_ClockConfig+0x1b8>)
 800135c:	681b      	ldr	r3, [r3, #0]
 800135e:	f003 030f 	and.w	r3, r3, #15
 8001362:	683a      	ldr	r2, [r7, #0]
 8001364:	429a      	cmp	r2, r3
 8001366:	d001      	beq.n	800136c <HAL_RCC_ClockConfig+0x3c>
    {
      return HAL_ERROR;
 8001368:	2301      	movs	r3, #1
 800136a:	e0b8      	b.n	80014de <HAL_RCC_ClockConfig+0x1ae>
    }
  }

  /*-------------------------- HCLK Configuration --------------------------*/
  if(((RCC_ClkInitStruct->ClockType) & RCC_CLOCKTYPE_HCLK) == RCC_CLOCKTYPE_HCLK)
 800136c:	687b      	ldr	r3, [r7, #4]
 800136e:	681b      	ldr	r3, [r3, #0]
 8001370:	f003 0302 	and.w	r3, r3, #2
 8001374:	2b00      	cmp	r3, #0
 8001376:	d020      	beq.n	80013ba <HAL_RCC_ClockConfig+0x8a>
  {
    /* Set the highest APBx dividers in order to ensure that we do not go through
       a non-spec phase whatever we decrease or increase HCLK. */
    if(((RCC_ClkInitStruct->ClockType) & RCC_CLOCKTYPE_PCLK1) == RCC_CLOCKTYPE_PCLK1)
 8001378:	687b      	ldr	r3, [r7, #4]
 800137a:	681b      	ldr	r3, [r3, #0]
 800137c:	f003 0304 	and.w	r3, r3, #4
 8001380:	2b00      	cmp	r3, #0
 8001382:	d005      	beq.n	8001390 <HAL_RCC_ClockConfig+0x60>
    {
      MODIFY_REG(RCC->CFGR, RCC_CFGR_PPRE1, RCC_HCLK_DIV16);
 8001384:	4b59      	ldr	r3, [pc, #356]	; (80014ec <HAL_RCC_ClockConfig+0x1bc>)
 8001386:	689b      	ldr	r3, [r3, #8]
 8001388:	4a58      	ldr	r2, [pc, #352]	; (80014ec <HAL_RCC_ClockConfig+0x1bc>)
 800138a:	f443 53e0 	orr.w	r3, r3, #7168	; 0x1c00
 800138e:	6093      	str	r3, [r2, #8]
    }

    if(((RCC_ClkInitStruct->ClockType) & RCC_CLOCKTYPE_PCLK2) == RCC_CLOCKTYPE_PCLK2)
 8001390:	687b      	ldr	r3, [r7, #4]
 8001392:	681b      	ldr	r3, [r3, #0]
 8001394:	f003 0308 	and.w	r3, r3, #8
 8001398:	2b00      	cmp	r3, #0
 800139a:	d005      	beq.n	80013a8 <HAL_RCC_ClockConfig+0x78>
    {
      MODIFY_REG(RCC->CFGR, RCC_CFGR_PPRE2, (RCC_HCLK_DIV16 << 3));
 800139c:	4b53      	ldr	r3, [pc, #332]	; (80014ec <HAL_RCC_ClockConfig+0x1bc>)
 800139e:	689b      	ldr	r3, [r3, #8]
 80013a0:	4a52      	ldr	r2, [pc, #328]	; (80014ec <HAL_RCC_ClockConfig+0x1bc>)
 80013a2:	f443 4360 	orr.w	r3, r3, #57344	; 0xe000
 80013a6:	6093      	str	r3, [r2, #8]
    }

    assert_param(IS_RCC_HCLK(RCC_ClkInitStruct->AHBCLKDivider));
    MODIFY_REG(RCC->CFGR, RCC_CFGR_HPRE, RCC_ClkInitStruct->AHBCLKDivider);
 80013a8:	4b50      	ldr	r3, [pc, #320]	; (80014ec <HAL_RCC_ClockConfig+0x1bc>)
 80013aa:	689b      	ldr	r3, [r3, #8]
 80013ac:	f023 02f0 	bic.w	r2, r3, #240	; 0xf0
 80013b0:	687b      	ldr	r3, [r7, #4]
 80013b2:	689b      	ldr	r3, [r3, #8]
 80013b4:	494d      	ldr	r1, [pc, #308]	; (80014ec <HAL_RCC_ClockConfig+0x1bc>)
 80013b6:	4313      	orrs	r3, r2
 80013b8:	608b      	str	r3, [r1, #8]
  }

  /*------------------------- SYSCLK Configuration ---------------------------*/
  if(((RCC_ClkInitStruct->ClockType) & RCC_CLOCKTYPE_SYSCLK) == RCC_CLOCKTYPE_SYSCLK)
 80013ba:	687b      	ldr	r3, [r7, #4]
 80013bc:	681b      	ldr	r3, [r3, #0]
 80013be:	f003 0301 	and.w	r3, r3, #1
 80013c2:	2b00      	cmp	r3, #0
 80013c4:	d044      	beq.n	8001450 <HAL_RCC_ClockConfig+0x120>
  {
    assert_param(IS_RCC_SYSCLKSOURCE(RCC_ClkInitStruct->SYSCLKSource));

    /* HSE is selected as System Clock Source */
    if(RCC_ClkInitStruct->SYSCLKSource == RCC_SYSCLKSOURCE_HSE)
 80013c6:	687b      	ldr	r3, [r7, #4]
 80013c8:	685b      	ldr	r3, [r3, #4]
 80013ca:	2b01      	cmp	r3, #1
 80013cc:	d107      	bne.n	80013de <HAL_RCC_ClockConfig+0xae>
    {
      /* Check the HSE ready flag */
      if(__HAL_RCC_GET_FLAG(RCC_FLAG_HSERDY) == RESET)
 80013ce:	4b47      	ldr	r3, [pc, #284]	; (80014ec <HAL_RCC_ClockConfig+0x1bc>)
 80013d0:	681b      	ldr	r3, [r3, #0]
 80013d2:	f403 3300 	and.w	r3, r3, #131072	; 0x20000
 80013d6:	2b00      	cmp	r3, #0
 80013d8:	d119      	bne.n	800140e <HAL_RCC_ClockConfig+0xde>
      {
        return HAL_ERROR;
 80013da:	2301      	movs	r3, #1
 80013dc:	e07f      	b.n	80014de <HAL_RCC_ClockConfig+0x1ae>
      }
    }
    /* PLL is selected as System Clock Source */
    else if((RCC_ClkInitStruct->SYSCLKSource == RCC_SYSCLKSOURCE_PLLCLK)   ||
 80013de:	687b      	ldr	r3, [r7, #4]
 80013e0:	685b      	ldr	r3, [r3, #4]
 80013e2:	2b02      	cmp	r3, #2
 80013e4:	d003      	beq.n	80013ee <HAL_RCC_ClockConfig+0xbe>
            (RCC_ClkInitStruct->SYSCLKSource == RCC_SYSCLKSOURCE_PLLRCLK))
 80013e6:	687b      	ldr	r3, [r7, #4]
 80013e8:	685b      	ldr	r3, [r3, #4]
    else if((RCC_ClkInitStruct->SYSCLKSource == RCC_SYSCLKSOURCE_PLLCLK)   ||
 80013ea:	2b03      	cmp	r3, #3
 80013ec:	d107      	bne.n	80013fe <HAL_RCC_ClockConfig+0xce>
    {
      /* Check the PLL ready flag */
      if(__HAL_RCC_GET_FLAG(RCC_FLAG_PLLRDY) == RESET)
 80013ee:	4b3f      	ldr	r3, [pc, #252]	; (80014ec <HAL_RCC_ClockConfig+0x1bc>)
 80013f0:	681b      	ldr	r3, [r3, #0]
 80013f2:	f003 7300 	and.w	r3, r3, #33554432	; 0x2000000
 80013f6:	2b00      	cmp	r3, #0
 80013f8:	d109      	bne.n	800140e <HAL_RCC_ClockConfig+0xde>
      {
        return HAL_ERROR;
 80013fa:	2301      	movs	r3, #1
 80013fc:	e06f      	b.n	80014de <HAL_RCC_ClockConfig+0x1ae>
    }
    /* HSI is selected as System Clock Source */
    else
    {
      /* Check the HSI ready flag */
      if(__HAL_RCC_GET_FLAG(RCC_FLAG_HSIRDY) == RESET)
 80013fe:	4b3b      	ldr	r3, [pc, #236]	; (80014ec <HAL_RCC_ClockConfig+0x1bc>)
 8001400:	681b      	ldr	r3, [r3, #0]
 8001402:	f003 0302 	and.w	r3, r3, #2
 8001406:	2b00      	cmp	r3, #0
 8001408:	d101      	bne.n	800140e <HAL_RCC_ClockConfig+0xde>
      {
        return HAL_ERROR;
 800140a:	2301      	movs	r3, #1
 800140c:	e067      	b.n	80014de <HAL_RCC_ClockConfig+0x1ae>
      }
    }

    __HAL_RCC_SYSCLK_CONFIG(RCC_ClkInitStruct->SYSCLKSource);
 800140e:	4b37      	ldr	r3, [pc, #220]	; (80014ec <HAL_RCC_ClockConfig+0x1bc>)
 8001410:	689b      	ldr	r3, [r3, #8]
 8001412:	f023 0203 	bic.w	r2, r3, #3
 8001416:	687b      	ldr	r3, [r7, #4]
 8001418:	685b      	ldr	r3, [r3, #4]
 800141a:	4934      	ldr	r1, [pc, #208]	; (80014ec <HAL_RCC_ClockConfig+0x1bc>)
 800141c:	4313      	orrs	r3, r2
 800141e:	608b      	str	r3, [r1, #8]

    /* Get Start Tick */
    tickstart = HAL_GetTick();
 8001420:	f7ff fa46 	bl	80008b0 <HAL_GetTick>
 8001424:	60f8      	str	r0, [r7, #12]

    while (__HAL_RCC_GET_SYSCLK_SOURCE() != (RCC_ClkInitStruct->SYSCLKSource << RCC_CFGR_SWS_Pos))
 8001426:	e00a      	b.n	800143e <HAL_RCC_ClockConfig+0x10e>
    {
      if ((HAL_GetTick() - tickstart) > CLOCKSWITCH_TIMEOUT_VALUE)
 8001428:	f7ff fa42 	bl	80008b0 <HAL_GetTick>
 800142c:	4602      	mov	r2, r0
 800142e:	68fb      	ldr	r3, [r7, #12]
 8001430:	1ad3      	subs	r3, r2, r3
 8001432:	f241 3288 	movw	r2, #5000	; 0x1388
 8001436:	4293      	cmp	r3, r2
 8001438:	d901      	bls.n	800143e <HAL_RCC_ClockConfig+0x10e>
      {
        return HAL_TIMEOUT;
 800143a:	2303      	movs	r3, #3
 800143c:	e04f      	b.n	80014de <HAL_RCC_ClockConfig+0x1ae>
    while (__HAL_RCC_GET_SYSCLK_SOURCE() != (RCC_ClkInitStruct->SYSCLKSource << RCC_CFGR_SWS_Pos))
 800143e:	4b2b      	ldr	r3, [pc, #172]	; (80014ec <HAL_RCC_ClockConfig+0x1bc>)
 8001440:	689b      	ldr	r3, [r3, #8]
 8001442:	f003 020c 	and.w	r2, r3, #12
 8001446:	687b      	ldr	r3, [r7, #4]
 8001448:	685b      	ldr	r3, [r3, #4]
 800144a:	009b      	lsls	r3, r3, #2
 800144c:	429a      	cmp	r2, r3
 800144e:	d1eb      	bne.n	8001428 <HAL_RCC_ClockConfig+0xf8>
      }
    }
  }

  /* Decreasing the number of wait states because of lower CPU frequency */
  if(FLatency < __HAL_FLASH_GET_LATENCY())
 8001450:	4b25      	ldr	r3, [pc, #148]	; (80014e8 <HAL_RCC_ClockConfig+0x1b8>)
 8001452:	681b      	ldr	r3, [r3, #0]
 8001454:	f003 030f 	and.w	r3, r3, #15
 8001458:	683a      	ldr	r2, [r7, #0]
 800145a:	429a      	cmp	r2, r3
 800145c:	d20c      	bcs.n	8001478 <HAL_RCC_ClockConfig+0x148>
  {
     /* Program the new number of wait states to the LATENCY bits in the FLASH_ACR register */
    __HAL_FLASH_SET_LATENCY(FLatency);
 800145e:	4b22      	ldr	r3, [pc, #136]	; (80014e8 <HAL_RCC_ClockConfig+0x1b8>)
 8001460:	683a      	ldr	r2, [r7, #0]
 8001462:	b2d2      	uxtb	r2, r2
 8001464:	701a      	strb	r2, [r3, #0]

    /* Check that the new number of wait states is taken into account to access the Flash
    memory by reading the FLASH_ACR register */
    if(__HAL_FLASH_GET_LATENCY() != FLatency)
 8001466:	4b20      	ldr	r3, [pc, #128]	; (80014e8 <HAL_RCC_ClockConfig+0x1b8>)
 8001468:	681b      	ldr	r3, [r3, #0]
 800146a:	f003 030f 	and.w	r3, r3, #15
 800146e:	683a      	ldr	r2, [r7, #0]
 8001470:	429a      	cmp	r2, r3
 8001472:	d001      	beq.n	8001478 <HAL_RCC_ClockConfig+0x148>
    {
      return HAL_ERROR;
 8001474:	2301      	movs	r3, #1
 8001476:	e032      	b.n	80014de <HAL_RCC_ClockConfig+0x1ae>
    }
  }

  /*-------------------------- PCLK1 Configuration ---------------------------*/
  if(((RCC_ClkInitStruct->ClockType) & RCC_CLOCKTYPE_PCLK1) == RCC_CLOCKTYPE_PCLK1)
 8001478:	687b      	ldr	r3, [r7, #4]
 800147a:	681b      	ldr	r3, [r3, #0]
 800147c:	f003 0304 	and.w	r3, r3, #4
 8001480:	2b00      	cmp	r3, #0
 8001482:	d008      	beq.n	8001496 <HAL_RCC_ClockConfig+0x166>
  {
    assert_param(IS_RCC_PCLK(RCC_ClkInitStruct->APB1CLKDivider));
    MODIFY_REG(RCC->CFGR, RCC_CFGR_PPRE1, RCC_ClkInitStruct->APB1CLKDivider);
 8001484:	4b19      	ldr	r3, [pc, #100]	; (80014ec <HAL_RCC_ClockConfig+0x1bc>)
 8001486:	689b      	ldr	r3, [r3, #8]
 8001488:	f423 52e0 	bic.w	r2, r3, #7168	; 0x1c00
 800148c:	687b      	ldr	r3, [r7, #4]
 800148e:	68db      	ldr	r3, [r3, #12]
 8001490:	4916      	ldr	r1, [pc, #88]	; (80014ec <HAL_RCC_ClockConfig+0x1bc>)
 8001492:	4313      	orrs	r3, r2
 8001494:	608b      	str	r3, [r1, #8]
  }

  /*-------------------------- PCLK2 Configuration ---------------------------*/
  if(((RCC_ClkInitStruct->ClockType) & RCC_CLOCKTYPE_PCLK2) == RCC_CLOCKTYPE_PCLK2)
 8001496:	687b      	ldr	r3, [r7, #4]
 8001498:	681b      	ldr	r3, [r3, #0]
 800149a:	f003 0308 	and.w	r3, r3, #8
 800149e:	2b00      	cmp	r3, #0
 80014a0:	d009      	beq.n	80014b6 <HAL_RCC_ClockConfig+0x186>
  {
    assert_param(IS_RCC_PCLK(RCC_ClkInitStruct->APB2CLKDivider));
    MODIFY_REG(RCC->CFGR, RCC_CFGR_PPRE2, ((RCC_ClkInitStruct->APB2CLKDivider) << 3U));
 80014a2:	4b12      	ldr	r3, [pc, #72]	; (80014ec <HAL_RCC_ClockConfig+0x1bc>)
 80014a4:	689b      	ldr	r3, [r3, #8]
 80014a6:	f423 4260 	bic.w	r2, r3, #57344	; 0xe000
 80014aa:	687b      	ldr	r3, [r7, #4]
 80014ac:	691b      	ldr	r3, [r3, #16]
 80014ae:	00db      	lsls	r3, r3, #3
 80014b0:	490e      	ldr	r1, [pc, #56]	; (80014ec <HAL_RCC_ClockConfig+0x1bc>)
 80014b2:	4313      	orrs	r3, r2
 80014b4:	608b      	str	r3, [r1, #8]
  }

  /* Update the SystemCoreClock global variable */
  SystemCoreClock = HAL_RCC_GetSysClockFreq() >> AHBPrescTable[(RCC->CFGR & RCC_CFGR_HPRE)>> RCC_CFGR_HPRE_Pos];
 80014b6:	f000 f821 	bl	80014fc <HAL_RCC_GetSysClockFreq>
 80014ba:	4601      	mov	r1, r0
 80014bc:	4b0b      	ldr	r3, [pc, #44]	; (80014ec <HAL_RCC_ClockConfig+0x1bc>)
 80014be:	689b      	ldr	r3, [r3, #8]
 80014c0:	091b      	lsrs	r3, r3, #4
 80014c2:	f003 030f 	and.w	r3, r3, #15
 80014c6:	4a0a      	ldr	r2, [pc, #40]	; (80014f0 <HAL_RCC_ClockConfig+0x1c0>)
 80014c8:	5cd3      	ldrb	r3, [r2, r3]
 80014ca:	fa21 f303 	lsr.w	r3, r1, r3
 80014ce:	4a09      	ldr	r2, [pc, #36]	; (80014f4 <HAL_RCC_ClockConfig+0x1c4>)
 80014d0:	6013      	str	r3, [r2, #0]

  /* Configure the source of time base considering new system clocks settings */
  HAL_InitTick (uwTickPrio);
 80014d2:	4b09      	ldr	r3, [pc, #36]	; (80014f8 <HAL_RCC_ClockConfig+0x1c8>)
 80014d4:	681b      	ldr	r3, [r3, #0]
 80014d6:	4618      	mov	r0, r3
 80014d8:	f7ff f9a6 	bl	8000828 <HAL_InitTick>

  return HAL_OK;
 80014dc:	2300      	movs	r3, #0
}
 80014de:	4618      	mov	r0, r3
 80014e0:	3710      	adds	r7, #16
 80014e2:	46bd      	mov	sp, r7
 80014e4:	bd80      	pop	{r7, pc}
 80014e6:	bf00      	nop
 80014e8:	40023c00 	.word	0x40023c00
 80014ec:	40023800 	.word	0x40023800
 80014f0:	080041ec 	.word	0x080041ec
 80014f4:	20000000 	.word	0x20000000
 80014f8:	20000004 	.word	0x20000004

080014fc <HAL_RCC_GetSysClockFreq>:
  *
  *
  * @retval SYSCLK frequency
  */
__weak uint32_t HAL_RCC_GetSysClockFreq(void)
{
 80014fc:	b5f0      	push	{r4, r5, r6, r7, lr}
 80014fe:	b085      	sub	sp, #20
 8001500:	af00      	add	r7, sp, #0
  uint32_t pllm = 0U, pllvco = 0U, pllp = 0U;
 8001502:	2300      	movs	r3, #0
 8001504:	607b      	str	r3, [r7, #4]
 8001506:	2300      	movs	r3, #0
 8001508:	60fb      	str	r3, [r7, #12]
 800150a:	2300      	movs	r3, #0
 800150c:	603b      	str	r3, [r7, #0]
  uint32_t sysclockfreq = 0U;
 800150e:	2300      	movs	r3, #0
 8001510:	60bb      	str	r3, [r7, #8]

  /* Get SYSCLK source -------------------------------------------------------*/
  switch (RCC->CFGR & RCC_CFGR_SWS)
 8001512:	4b50      	ldr	r3, [pc, #320]	; (8001654 <HAL_RCC_GetSysClockFreq+0x158>)
 8001514:	689b      	ldr	r3, [r3, #8]
 8001516:	f003 030c 	and.w	r3, r3, #12
 800151a:	2b04      	cmp	r3, #4
 800151c:	d007      	beq.n	800152e <HAL_RCC_GetSysClockFreq+0x32>
 800151e:	2b08      	cmp	r3, #8
 8001520:	d008      	beq.n	8001534 <HAL_RCC_GetSysClockFreq+0x38>
 8001522:	2b00      	cmp	r3, #0
 8001524:	f040 808d 	bne.w	8001642 <HAL_RCC_GetSysClockFreq+0x146>
  {
    case RCC_CFGR_SWS_HSI:  /* HSI used as system clock source */
    {
      sysclockfreq = HSI_VALUE;
 8001528:	4b4b      	ldr	r3, [pc, #300]	; (8001658 <HAL_RCC_GetSysClockFreq+0x15c>)
 800152a:	60bb      	str	r3, [r7, #8]
       break;
 800152c:	e08c      	b.n	8001648 <HAL_RCC_GetSysClockFreq+0x14c>
    }
    case RCC_CFGR_SWS_HSE:  /* HSE used as system clock  source */
    {
      sysclockfreq = HSE_VALUE;
 800152e:	4b4b      	ldr	r3, [pc, #300]	; (800165c <HAL_RCC_GetSysClockFreq+0x160>)
 8001530:	60bb      	str	r3, [r7, #8]
      break;
 8001532:	e089      	b.n	8001648 <HAL_RCC_GetSysClockFreq+0x14c>
    }
    case RCC_CFGR_SWS_PLL:  /* PLL used as system clock  source */
    {
      /* PLL_VCO = (HSE_VALUE or HSI_VALUE / PLLM) * PLLN
      SYSCLK = PLL_VCO / PLLP */
      pllm = RCC->PLLCFGR & RCC_PLLCFGR_PLLM;
 8001534:	4b47      	ldr	r3, [pc, #284]	; (8001654 <HAL_RCC_GetSysClockFreq+0x158>)
 8001536:	685b      	ldr	r3, [r3, #4]
 8001538:	f003 033f 	and.w	r3, r3, #63	; 0x3f
 800153c:	607b      	str	r3, [r7, #4]
      if(__HAL_RCC_GET_PLL_OSCSOURCE() != RCC_PLLSOURCE_HSI)
 800153e:	4b45      	ldr	r3, [pc, #276]	; (8001654 <HAL_RCC_GetSysClockFreq+0x158>)
 8001540:	685b      	ldr	r3, [r3, #4]
 8001542:	f403 0380 	and.w	r3, r3, #4194304	; 0x400000
 8001546:	2b00      	cmp	r3, #0
 8001548:	d023      	beq.n	8001592 <HAL_RCC_GetSysClockFreq+0x96>
      {
        /* HSE used as PLL clock source */
        pllvco = (uint32_t) ((((uint64_t) HSE_VALUE * ((uint64_t) ((RCC->PLLCFGR & RCC_PLLCFGR_PLLN) >> RCC_PLLCFGR_PLLN_Pos)))) / (uint64_t)pllm);
 800154a:	4b42      	ldr	r3, [pc, #264]	; (8001654 <HAL_RCC_GetSysClockFreq+0x158>)
 800154c:	685b      	ldr	r3, [r3, #4]
 800154e:	099b      	lsrs	r3, r3, #6
 8001550:	f04f 0400 	mov.w	r4, #0
 8001554:	f240 11ff 	movw	r1, #511	; 0x1ff
 8001558:	f04f 0200 	mov.w	r2, #0
 800155c:	ea03 0501 	and.w	r5, r3, r1
 8001560:	ea04 0602 	and.w	r6, r4, r2
 8001564:	4a3d      	ldr	r2, [pc, #244]	; (800165c <HAL_RCC_GetSysClockFreq+0x160>)
 8001566:	fb02 f106 	mul.w	r1, r2, r6
 800156a:	2200      	movs	r2, #0
 800156c:	fb02 f205 	mul.w	r2, r2, r5
 8001570:	440a      	add	r2, r1
 8001572:	493a      	ldr	r1, [pc, #232]	; (800165c <HAL_RCC_GetSysClockFreq+0x160>)
 8001574:	fba5 0101 	umull	r0, r1, r5, r1
 8001578:	1853      	adds	r3, r2, r1
 800157a:	4619      	mov	r1, r3
 800157c:	687b      	ldr	r3, [r7, #4]
 800157e:	f04f 0400 	mov.w	r4, #0
 8001582:	461a      	mov	r2, r3
 8001584:	4623      	mov	r3, r4
 8001586:	f7fe fe33 	bl	80001f0 <__aeabi_uldivmod>
 800158a:	4603      	mov	r3, r0
 800158c:	460c      	mov	r4, r1
 800158e:	60fb      	str	r3, [r7, #12]
 8001590:	e049      	b.n	8001626 <HAL_RCC_GetSysClockFreq+0x12a>
      }
      else
      {
        /* HSI used as PLL clock source */
        pllvco = (uint32_t) ((((uint64_t) HSI_VALUE * ((uint64_t) ((RCC->PLLCFGR & RCC_PLLCFGR_PLLN) >> RCC_PLLCFGR_PLLN_Pos)))) / (uint64_t)pllm);
 8001592:	4b30      	ldr	r3, [pc, #192]	; (8001654 <HAL_RCC_GetSysClockFreq+0x158>)
 8001594:	685b      	ldr	r3, [r3, #4]
 8001596:	099b      	lsrs	r3, r3, #6
 8001598:	f04f 0400 	mov.w	r4, #0
 800159c:	f240 11ff 	movw	r1, #511	; 0x1ff
 80015a0:	f04f 0200 	mov.w	r2, #0
 80015a4:	ea03 0501 	and.w	r5, r3, r1
 80015a8:	ea04 0602 	and.w	r6, r4, r2
 80015ac:	4629      	mov	r1, r5
 80015ae:	4632      	mov	r2, r6
 80015b0:	f04f 0300 	mov.w	r3, #0
 80015b4:	f04f 0400 	mov.w	r4, #0
 80015b8:	0154      	lsls	r4, r2, #5
 80015ba:	ea44 64d1 	orr.w	r4, r4, r1, lsr #27
 80015be:	014b      	lsls	r3, r1, #5
 80015c0:	4619      	mov	r1, r3
 80015c2:	4622      	mov	r2, r4
 80015c4:	1b49      	subs	r1, r1, r5
 80015c6:	eb62 0206 	sbc.w	r2, r2, r6
 80015ca:	f04f 0300 	mov.w	r3, #0
 80015ce:	f04f 0400 	mov.w	r4, #0
 80015d2:	0194      	lsls	r4, r2, #6
 80015d4:	ea44 6491 	orr.w	r4, r4, r1, lsr #26
 80015d8:	018b      	lsls	r3, r1, #6
 80015da:	1a5b      	subs	r3, r3, r1
 80015dc:	eb64 0402 	sbc.w	r4, r4, r2
 80015e0:	f04f 0100 	mov.w	r1, #0
 80015e4:	f04f 0200 	mov.w	r2, #0
 80015e8:	00e2      	lsls	r2, r4, #3
 80015ea:	ea42 7253 	orr.w	r2, r2, r3, lsr #29
 80015ee:	00d9      	lsls	r1, r3, #3
 80015f0:	460b      	mov	r3, r1
 80015f2:	4614      	mov	r4, r2
 80015f4:	195b      	adds	r3, r3, r5
 80015f6:	eb44 0406 	adc.w	r4, r4, r6
 80015fa:	f04f 0100 	mov.w	r1, #0
 80015fe:	f04f 0200 	mov.w	r2, #0
 8001602:	02a2      	lsls	r2, r4, #10
 8001604:	ea42 5293 	orr.w	r2, r2, r3, lsr #22
 8001608:	0299      	lsls	r1, r3, #10
 800160a:	460b      	mov	r3, r1
 800160c:	4614      	mov	r4, r2
 800160e:	4618      	mov	r0, r3
 8001610:	4621      	mov	r1, r4
 8001612:	687b      	ldr	r3, [r7, #4]
 8001614:	f04f 0400 	mov.w	r4, #0
 8001618:	461a      	mov	r2, r3
 800161a:	4623      	mov	r3, r4
 800161c:	f7fe fde8 	bl	80001f0 <__aeabi_uldivmod>
 8001620:	4603      	mov	r3, r0
 8001622:	460c      	mov	r4, r1
 8001624:	60fb      	str	r3, [r7, #12]
      }
      pllp = ((((RCC->PLLCFGR & RCC_PLLCFGR_PLLP) >> RCC_PLLCFGR_PLLP_Pos) + 1U) *2U);
 8001626:	4b0b      	ldr	r3, [pc, #44]	; (8001654 <HAL_RCC_GetSysClockFreq+0x158>)
 8001628:	685b      	ldr	r3, [r3, #4]
 800162a:	0c1b      	lsrs	r3, r3, #16
 800162c:	f003 0303 	and.w	r3, r3, #3
 8001630:	3301      	adds	r3, #1
 8001632:	005b      	lsls	r3, r3, #1
 8001634:	603b      	str	r3, [r7, #0]

      sysclockfreq = pllvco/pllp;
 8001636:	68fa      	ldr	r2, [r7, #12]
 8001638:	683b      	ldr	r3, [r7, #0]
 800163a:	fbb2 f3f3 	udiv	r3, r2, r3
 800163e:	60bb      	str	r3, [r7, #8]
      break;
 8001640:	e002      	b.n	8001648 <HAL_RCC_GetSysClockFreq+0x14c>
    }
    default:
    {
      sysclockfreq = HSI_VALUE;
 8001642:	4b05      	ldr	r3, [pc, #20]	; (8001658 <HAL_RCC_GetSysClockFreq+0x15c>)
 8001644:	60bb      	str	r3, [r7, #8]
      break;
 8001646:	bf00      	nop
    }
  }
  return sysclockfreq;
 8001648:	68bb      	ldr	r3, [r7, #8]
}
 800164a:	4618      	mov	r0, r3
 800164c:	3714      	adds	r7, #20
 800164e:	46bd      	mov	sp, r7
 8001650:	bdf0      	pop	{r4, r5, r6, r7, pc}
 8001652:	bf00      	nop
 8001654:	40023800 	.word	0x40023800
 8001658:	00f42400 	.word	0x00f42400
 800165c:	017d7840 	.word	0x017d7840

08001660 <SVC_Setup>:
#endif /* SysTick */

/*
  Setup SVC to reset value.
*/
__STATIC_INLINE void SVC_Setup (void) {
 8001660:	b480      	push	{r7}
 8001662:	af00      	add	r7, sp, #0
  * The issue was logged under:https://github.com/ARM-software/CMSIS-FreeRTOS/issues/35
  * until it is correctly fixed, the code below is commented
  */
/*    NVIC_SetPriority (SVCall_IRQn, 0U); */
#endif
}
 8001664:	bf00      	nop
 8001666:	46bd      	mov	sp, r7
 8001668:	f85d 7b04 	ldr.w	r7, [sp], #4
 800166c:	4770      	bx	lr
	...

08001670 <osKernelInitialize>:

/*---------------------------------------------------------------------------*/

osStatus_t osKernelInitialize (void) {
 8001670:	b480      	push	{r7}
 8001672:	b085      	sub	sp, #20
 8001674:	af00      	add	r7, sp, #0
 */
__STATIC_FORCEINLINE uint32_t __get_IPSR(void)
{
  uint32_t result;

  __ASM volatile ("MRS %0, ipsr" : "=r" (result) );
 8001676:	f3ef 8305 	mrs	r3, IPSR
 800167a:	60bb      	str	r3, [r7, #8]
  return(result);
 800167c:	68bb      	ldr	r3, [r7, #8]
  osStatus_t stat;

  if (IS_IRQ()) {
 800167e:	2b00      	cmp	r3, #0
 8001680:	d10f      	bne.n	80016a2 <osKernelInitialize+0x32>
 */
__STATIC_FORCEINLINE uint32_t __get_PRIMASK(void)
{
  uint32_t result;

  __ASM volatile ("MRS %0, primask" : "=r" (result) :: "memory");
 8001682:	f3ef 8310 	mrs	r3, PRIMASK
 8001686:	607b      	str	r3, [r7, #4]
  return(result);
 8001688:	687b      	ldr	r3, [r7, #4]
 800168a:	2b00      	cmp	r3, #0
 800168c:	d105      	bne.n	800169a <osKernelInitialize+0x2a>
 */
__STATIC_FORCEINLINE uint32_t __get_BASEPRI(void)
{
  uint32_t result;

  __ASM volatile ("MRS %0, basepri" : "=r" (result) );
 800168e:	f3ef 8311 	mrs	r3, BASEPRI
 8001692:	603b      	str	r3, [r7, #0]
  return(result);
 8001694:	683b      	ldr	r3, [r7, #0]
 8001696:	2b00      	cmp	r3, #0
 8001698:	d007      	beq.n	80016aa <osKernelInitialize+0x3a>
 800169a:	4b0e      	ldr	r3, [pc, #56]	; (80016d4 <osKernelInitialize+0x64>)
 800169c:	681b      	ldr	r3, [r3, #0]
 800169e:	2b02      	cmp	r3, #2
 80016a0:	d103      	bne.n	80016aa <osKernelInitialize+0x3a>
    stat = osErrorISR;
 80016a2:	f06f 0305 	mvn.w	r3, #5
 80016a6:	60fb      	str	r3, [r7, #12]
 80016a8:	e00c      	b.n	80016c4 <osKernelInitialize+0x54>
  }
  else {
    if (KernelState == osKernelInactive) {
 80016aa:	4b0a      	ldr	r3, [pc, #40]	; (80016d4 <osKernelInitialize+0x64>)
 80016ac:	681b      	ldr	r3, [r3, #0]
 80016ae:	2b00      	cmp	r3, #0
 80016b0:	d105      	bne.n	80016be <osKernelInitialize+0x4e>
      #if defined(USE_FREERTOS_HEAP_5) && (HEAP_5_REGION_SETUP == 1)
        vPortDefineHeapRegions (configHEAP_5_REGIONS);
      #endif
      KernelState = osKernelReady;
 80016b2:	4b08      	ldr	r3, [pc, #32]	; (80016d4 <osKernelInitialize+0x64>)
 80016b4:	2201      	movs	r2, #1
 80016b6:	601a      	str	r2, [r3, #0]
      stat = osOK;
 80016b8:	2300      	movs	r3, #0
 80016ba:	60fb      	str	r3, [r7, #12]
 80016bc:	e002      	b.n	80016c4 <osKernelInitialize+0x54>
    } else {
      stat = osError;
 80016be:	f04f 33ff 	mov.w	r3, #4294967295
 80016c2:	60fb      	str	r3, [r7, #12]
    }
  }

  return (stat);
 80016c4:	68fb      	ldr	r3, [r7, #12]
}
 80016c6:	4618      	mov	r0, r3
 80016c8:	3714      	adds	r7, #20
 80016ca:	46bd      	mov	sp, r7
 80016cc:	f85d 7b04 	ldr.w	r7, [sp], #4
 80016d0:	4770      	bx	lr
 80016d2:	bf00      	nop
 80016d4:	2000002c 	.word	0x2000002c

080016d8 <osKernelStart>:
  }

  return (state);
}

osStatus_t osKernelStart (void) {
 80016d8:	b580      	push	{r7, lr}
 80016da:	b084      	sub	sp, #16
 80016dc:	af00      	add	r7, sp, #0
  __ASM volatile ("MRS %0, ipsr" : "=r" (result) );
 80016de:	f3ef 8305 	mrs	r3, IPSR
 80016e2:	60bb      	str	r3, [r7, #8]
  return(result);
 80016e4:	68bb      	ldr	r3, [r7, #8]
  osStatus_t stat;

  if (IS_IRQ()) {
 80016e6:	2b00      	cmp	r3, #0
 80016e8:	d10f      	bne.n	800170a <osKernelStart+0x32>
  __ASM volatile ("MRS %0, primask" : "=r" (result) :: "memory");
 80016ea:	f3ef 8310 	mrs	r3, PRIMASK
 80016ee:	607b      	str	r3, [r7, #4]
  return(result);
 80016f0:	687b      	ldr	r3, [r7, #4]
 80016f2:	2b00      	cmp	r3, #0
 80016f4:	d105      	bne.n	8001702 <osKernelStart+0x2a>
  __ASM volatile ("MRS %0, basepri" : "=r" (result) );
 80016f6:	f3ef 8311 	mrs	r3, BASEPRI
 80016fa:	603b      	str	r3, [r7, #0]
  return(result);
 80016fc:	683b      	ldr	r3, [r7, #0]
 80016fe:	2b00      	cmp	r3, #0
 8001700:	d007      	beq.n	8001712 <osKernelStart+0x3a>
 8001702:	4b0f      	ldr	r3, [pc, #60]	; (8001740 <osKernelStart+0x68>)
 8001704:	681b      	ldr	r3, [r3, #0]
 8001706:	2b02      	cmp	r3, #2
 8001708:	d103      	bne.n	8001712 <osKernelStart+0x3a>
    stat = osErrorISR;
 800170a:	f06f 0305 	mvn.w	r3, #5
 800170e:	60fb      	str	r3, [r7, #12]
 8001710:	e010      	b.n	8001734 <osKernelStart+0x5c>
  }
  else {
    if (KernelState == osKernelReady) {
 8001712:	4b0b      	ldr	r3, [pc, #44]	; (8001740 <osKernelStart+0x68>)
 8001714:	681b      	ldr	r3, [r3, #0]
 8001716:	2b01      	cmp	r3, #1
 8001718:	d109      	bne.n	800172e <osKernelStart+0x56>
      /* Ensure SVC priority is at the reset value */
      SVC_Setup();
 800171a:	f7ff ffa1 	bl	8001660 <SVC_Setup>
      /* Change state to enable IRQ masking check */
      KernelState = osKernelRunning;
 800171e:	4b08      	ldr	r3, [pc, #32]	; (8001740 <osKernelStart+0x68>)
 8001720:	2202      	movs	r2, #2
 8001722:	601a      	str	r2, [r3, #0]
      /* Start the kernel scheduler */
      vTaskStartScheduler();
 8001724:	f001 f870 	bl	8002808 <vTaskStartScheduler>
      stat = osOK;
 8001728:	2300      	movs	r3, #0
 800172a:	60fb      	str	r3, [r7, #12]
 800172c:	e002      	b.n	8001734 <osKernelStart+0x5c>
    } else {
      stat = osError;
 800172e:	f04f 33ff 	mov.w	r3, #4294967295
 8001732:	60fb      	str	r3, [r7, #12]
    }
  }

  return (stat);
 8001734:	68fb      	ldr	r3, [r7, #12]
}
 8001736:	4618      	mov	r0, r3
 8001738:	3710      	adds	r7, #16
 800173a:	46bd      	mov	sp, r7
 800173c:	bd80      	pop	{r7, pc}
 800173e:	bf00      	nop
 8001740:	2000002c 	.word	0x2000002c

08001744 <osThreadNew>:
  return (configCPU_CLOCK_HZ);
}

/*---------------------------------------------------------------------------*/

osThreadId_t osThreadNew (osThreadFunc_t func, void *argument, const osThreadAttr_t *attr) {
 8001744:	b580      	push	{r7, lr}
 8001746:	b090      	sub	sp, #64	; 0x40
 8001748:	af04      	add	r7, sp, #16
 800174a:	60f8      	str	r0, [r7, #12]
 800174c:	60b9      	str	r1, [r7, #8]
 800174e:	607a      	str	r2, [r7, #4]
  uint32_t stack;
  TaskHandle_t hTask;
  UBaseType_t prio;
  int32_t mem;

  hTask = NULL;
 8001750:	2300      	movs	r3, #0
 8001752:	613b      	str	r3, [r7, #16]
  __ASM volatile ("MRS %0, ipsr" : "=r" (result) );
 8001754:	f3ef 8305 	mrs	r3, IPSR
 8001758:	61fb      	str	r3, [r7, #28]
  return(result);
 800175a:	69fb      	ldr	r3, [r7, #28]

  if (!IS_IRQ() && (func != NULL)) {
 800175c:	2b00      	cmp	r3, #0
 800175e:	f040 808f 	bne.w	8001880 <osThreadNew+0x13c>
  __ASM volatile ("MRS %0, primask" : "=r" (result) :: "memory");
 8001762:	f3ef 8310 	mrs	r3, PRIMASK
 8001766:	61bb      	str	r3, [r7, #24]
  return(result);
 8001768:	69bb      	ldr	r3, [r7, #24]
 800176a:	2b00      	cmp	r3, #0
 800176c:	d105      	bne.n	800177a <osThreadNew+0x36>
  __ASM volatile ("MRS %0, basepri" : "=r" (result) );
 800176e:	f3ef 8311 	mrs	r3, BASEPRI
 8001772:	617b      	str	r3, [r7, #20]
  return(result);
 8001774:	697b      	ldr	r3, [r7, #20]
 8001776:	2b00      	cmp	r3, #0
 8001778:	d003      	beq.n	8001782 <osThreadNew+0x3e>
 800177a:	4b44      	ldr	r3, [pc, #272]	; (800188c <osThreadNew+0x148>)
 800177c:	681b      	ldr	r3, [r3, #0]
 800177e:	2b02      	cmp	r3, #2
 8001780:	d07e      	beq.n	8001880 <osThreadNew+0x13c>
 8001782:	68fb      	ldr	r3, [r7, #12]
 8001784:	2b00      	cmp	r3, #0
 8001786:	d07b      	beq.n	8001880 <osThreadNew+0x13c>
    stack = configMINIMAL_STACK_SIZE;
 8001788:	2380      	movs	r3, #128	; 0x80
 800178a:	62bb      	str	r3, [r7, #40]	; 0x28
    prio  = (UBaseType_t)osPriorityNormal;
 800178c:	2318      	movs	r3, #24
 800178e:	627b      	str	r3, [r7, #36]	; 0x24

    name = NULL;
 8001790:	2300      	movs	r3, #0
 8001792:	62fb      	str	r3, [r7, #44]	; 0x2c
    mem  = -1;
 8001794:	f04f 33ff 	mov.w	r3, #4294967295
 8001798:	623b      	str	r3, [r7, #32]

    if (attr != NULL) {
 800179a:	687b      	ldr	r3, [r7, #4]
 800179c:	2b00      	cmp	r3, #0
 800179e:	d045      	beq.n	800182c <osThreadNew+0xe8>
      if (attr->name != NULL) {
 80017a0:	687b      	ldr	r3, [r7, #4]
 80017a2:	681b      	ldr	r3, [r3, #0]
 80017a4:	2b00      	cmp	r3, #0
 80017a6:	d002      	beq.n	80017ae <osThreadNew+0x6a>
        name = attr->name;
 80017a8:	687b      	ldr	r3, [r7, #4]
 80017aa:	681b      	ldr	r3, [r3, #0]
 80017ac:	62fb      	str	r3, [r7, #44]	; 0x2c
      }
      if (attr->priority != osPriorityNone) {
 80017ae:	687b      	ldr	r3, [r7, #4]
 80017b0:	699b      	ldr	r3, [r3, #24]
 80017b2:	2b00      	cmp	r3, #0
 80017b4:	d002      	beq.n	80017bc <osThreadNew+0x78>
        prio = (UBaseType_t)attr->priority;
 80017b6:	687b      	ldr	r3, [r7, #4]
 80017b8:	699b      	ldr	r3, [r3, #24]
 80017ba:	627b      	str	r3, [r7, #36]	; 0x24
      }

      if ((prio < osPriorityIdle) || (prio > osPriorityISR) || ((attr->attr_bits & osThreadJoinable) == osThreadJoinable)) {
 80017bc:	6a7b      	ldr	r3, [r7, #36]	; 0x24
 80017be:	2b00      	cmp	r3, #0
 80017c0:	d008      	beq.n	80017d4 <osThreadNew+0x90>
 80017c2:	6a7b      	ldr	r3, [r7, #36]	; 0x24
 80017c4:	2b38      	cmp	r3, #56	; 0x38
 80017c6:	d805      	bhi.n	80017d4 <osThreadNew+0x90>
 80017c8:	687b      	ldr	r3, [r7, #4]
 80017ca:	685b      	ldr	r3, [r3, #4]
 80017cc:	f003 0301 	and.w	r3, r3, #1
 80017d0:	2b00      	cmp	r3, #0
 80017d2:	d001      	beq.n	80017d8 <osThreadNew+0x94>
        return (NULL);
 80017d4:	2300      	movs	r3, #0
 80017d6:	e054      	b.n	8001882 <osThreadNew+0x13e>
      }

      if (attr->stack_size > 0U) {
 80017d8:	687b      	ldr	r3, [r7, #4]
 80017da:	695b      	ldr	r3, [r3, #20]
 80017dc:	2b00      	cmp	r3, #0
 80017de:	d003      	beq.n	80017e8 <osThreadNew+0xa4>
        /* In FreeRTOS stack is not in bytes, but in sizeof(StackType_t) which is 4 on ARM ports.       */
        /* Stack size should be therefore 4 byte aligned in order to avoid division caused side effects */
        stack = attr->stack_size / sizeof(StackType_t);
 80017e0:	687b      	ldr	r3, [r7, #4]
 80017e2:	695b      	ldr	r3, [r3, #20]
 80017e4:	089b      	lsrs	r3, r3, #2
 80017e6:	62bb      	str	r3, [r7, #40]	; 0x28
      }

      if ((attr->cb_mem    != NULL) && (attr->cb_size    >= sizeof(StaticTask_t)) &&
 80017e8:	687b      	ldr	r3, [r7, #4]
 80017ea:	689b      	ldr	r3, [r3, #8]
 80017ec:	2b00      	cmp	r3, #0
 80017ee:	d00e      	beq.n	800180e <osThreadNew+0xca>
 80017f0:	687b      	ldr	r3, [r7, #4]
 80017f2:	68db      	ldr	r3, [r3, #12]
 80017f4:	2b5b      	cmp	r3, #91	; 0x5b
 80017f6:	d90a      	bls.n	800180e <osThreadNew+0xca>
          (attr->stack_mem != NULL) && (attr->stack_size >  0U)) {
 80017f8:	687b      	ldr	r3, [r7, #4]
 80017fa:	691b      	ldr	r3, [r3, #16]
      if ((attr->cb_mem    != NULL) && (attr->cb_size    >= sizeof(StaticTask_t)) &&
 80017fc:	2b00      	cmp	r3, #0
 80017fe:	d006      	beq.n	800180e <osThreadNew+0xca>
          (attr->stack_mem != NULL) && (attr->stack_size >  0U)) {
 8001800:	687b      	ldr	r3, [r7, #4]
 8001802:	695b      	ldr	r3, [r3, #20]
 8001804:	2b00      	cmp	r3, #0
 8001806:	d002      	beq.n	800180e <osThreadNew+0xca>
        mem = 1;
 8001808:	2301      	movs	r3, #1
 800180a:	623b      	str	r3, [r7, #32]
 800180c:	e010      	b.n	8001830 <osThreadNew+0xec>
      }
      else {
        if ((attr->cb_mem == NULL) && (attr->cb_size == 0U) && (attr->stack_mem == NULL)) {
 800180e:	687b      	ldr	r3, [r7, #4]
 8001810:	689b      	ldr	r3, [r3, #8]
 8001812:	2b00      	cmp	r3, #0
 8001814:	d10c      	bne.n	8001830 <osThreadNew+0xec>
 8001816:	687b      	ldr	r3, [r7, #4]
 8001818:	68db      	ldr	r3, [r3, #12]
 800181a:	2b00      	cmp	r3, #0
 800181c:	d108      	bne.n	8001830 <osThreadNew+0xec>
 800181e:	687b      	ldr	r3, [r7, #4]
 8001820:	691b      	ldr	r3, [r3, #16]
 8001822:	2b00      	cmp	r3, #0
 8001824:	d104      	bne.n	8001830 <osThreadNew+0xec>
          mem = 0;
 8001826:	2300      	movs	r3, #0
 8001828:	623b      	str	r3, [r7, #32]
 800182a:	e001      	b.n	8001830 <osThreadNew+0xec>
        }
      }
    }
    else {
      mem = 0;
 800182c:	2300      	movs	r3, #0
 800182e:	623b      	str	r3, [r7, #32]
    }

    if (mem == 1) {
 8001830:	6a3b      	ldr	r3, [r7, #32]
 8001832:	2b01      	cmp	r3, #1
 8001834:	d110      	bne.n	8001858 <osThreadNew+0x114>
      hTask = xTaskCreateStatic ((TaskFunction_t)func, name, stack, argument, prio, (StackType_t  *)attr->stack_mem,
 8001836:	687b      	ldr	r3, [r7, #4]
 8001838:	691b      	ldr	r3, [r3, #16]
                                                                                    (StaticTask_t *)attr->cb_mem);
 800183a:	687a      	ldr	r2, [r7, #4]
 800183c:	6892      	ldr	r2, [r2, #8]
      hTask = xTaskCreateStatic ((TaskFunction_t)func, name, stack, argument, prio, (StackType_t  *)attr->stack_mem,
 800183e:	9202      	str	r2, [sp, #8]
 8001840:	9301      	str	r3, [sp, #4]
 8001842:	6a7b      	ldr	r3, [r7, #36]	; 0x24
 8001844:	9300      	str	r3, [sp, #0]
 8001846:	68bb      	ldr	r3, [r7, #8]
 8001848:	6aba      	ldr	r2, [r7, #40]	; 0x28
 800184a:	6af9      	ldr	r1, [r7, #44]	; 0x2c
 800184c:	68f8      	ldr	r0, [r7, #12]
 800184e:	f000 fe09 	bl	8002464 <xTaskCreateStatic>
 8001852:	4603      	mov	r3, r0
 8001854:	613b      	str	r3, [r7, #16]
 8001856:	e013      	b.n	8001880 <osThreadNew+0x13c>
    }
    else {
      if (mem == 0) {
 8001858:	6a3b      	ldr	r3, [r7, #32]
 800185a:	2b00      	cmp	r3, #0
 800185c:	d110      	bne.n	8001880 <osThreadNew+0x13c>
        if (xTaskCreate ((TaskFunction_t)func, name, (uint16_t)stack, argument, prio, &hTask) != pdPASS) {
 800185e:	6abb      	ldr	r3, [r7, #40]	; 0x28
 8001860:	b29a      	uxth	r2, r3
 8001862:	f107 0310 	add.w	r3, r7, #16
 8001866:	9301      	str	r3, [sp, #4]
 8001868:	6a7b      	ldr	r3, [r7, #36]	; 0x24
 800186a:	9300      	str	r3, [sp, #0]
 800186c:	68bb      	ldr	r3, [r7, #8]
 800186e:	6af9      	ldr	r1, [r7, #44]	; 0x2c
 8001870:	68f8      	ldr	r0, [r7, #12]
 8001872:	f000 fe51 	bl	8002518 <xTaskCreate>
 8001876:	4603      	mov	r3, r0
 8001878:	2b01      	cmp	r3, #1
 800187a:	d001      	beq.n	8001880 <osThreadNew+0x13c>
          hTask = NULL;
 800187c:	2300      	movs	r3, #0
 800187e:	613b      	str	r3, [r7, #16]
        }
      }
    }
  }

  return ((osThreadId_t)hTask);
 8001880:	693b      	ldr	r3, [r7, #16]
}
 8001882:	4618      	mov	r0, r3
 8001884:	3730      	adds	r7, #48	; 0x30
 8001886:	46bd      	mov	sp, r7
 8001888:	bd80      	pop	{r7, pc}
 800188a:	bf00      	nop
 800188c:	2000002c 	.word	0x2000002c

08001890 <osDelay>:

  /* Return flags before clearing */
  return (rflags);
}

osStatus_t osDelay (uint32_t ticks) {
 8001890:	b580      	push	{r7, lr}
 8001892:	b086      	sub	sp, #24
 8001894:	af00      	add	r7, sp, #0
 8001896:	6078      	str	r0, [r7, #4]
  __ASM volatile ("MRS %0, ipsr" : "=r" (result) );
 8001898:	f3ef 8305 	mrs	r3, IPSR
 800189c:	613b      	str	r3, [r7, #16]
  return(result);
 800189e:	693b      	ldr	r3, [r7, #16]
  osStatus_t stat;

  if (IS_IRQ()) {
 80018a0:	2b00      	cmp	r3, #0
 80018a2:	d10f      	bne.n	80018c4 <osDelay+0x34>
  __ASM volatile ("MRS %0, primask" : "=r" (result) :: "memory");
 80018a4:	f3ef 8310 	mrs	r3, PRIMASK
 80018a8:	60fb      	str	r3, [r7, #12]
  return(result);
 80018aa:	68fb      	ldr	r3, [r7, #12]
 80018ac:	2b00      	cmp	r3, #0
 80018ae:	d105      	bne.n	80018bc <osDelay+0x2c>
  __ASM volatile ("MRS %0, basepri" : "=r" (result) );
 80018b0:	f3ef 8311 	mrs	r3, BASEPRI
 80018b4:	60bb      	str	r3, [r7, #8]
  return(result);
 80018b6:	68bb      	ldr	r3, [r7, #8]
 80018b8:	2b00      	cmp	r3, #0
 80018ba:	d007      	beq.n	80018cc <osDelay+0x3c>
 80018bc:	4b0a      	ldr	r3, [pc, #40]	; (80018e8 <osDelay+0x58>)
 80018be:	681b      	ldr	r3, [r3, #0]
 80018c0:	2b02      	cmp	r3, #2
 80018c2:	d103      	bne.n	80018cc <osDelay+0x3c>
    stat = osErrorISR;
 80018c4:	f06f 0305 	mvn.w	r3, #5
 80018c8:	617b      	str	r3, [r7, #20]
 80018ca:	e007      	b.n	80018dc <osDelay+0x4c>
  }
  else {
    stat = osOK;
 80018cc:	2300      	movs	r3, #0
 80018ce:	617b      	str	r3, [r7, #20]

    if (ticks != 0U) {
 80018d0:	687b      	ldr	r3, [r7, #4]
 80018d2:	2b00      	cmp	r3, #0
 80018d4:	d002      	beq.n	80018dc <osDelay+0x4c>
      vTaskDelay(ticks);
 80018d6:	6878      	ldr	r0, [r7, #4]
 80018d8:	f000 ff62 	bl	80027a0 <vTaskDelay>
    }
  }

  return (stat);
 80018dc:	697b      	ldr	r3, [r7, #20]
}
 80018de:	4618      	mov	r0, r3
 80018e0:	3718      	adds	r7, #24
 80018e2:	46bd      	mov	sp, r7
 80018e4:	bd80      	pop	{r7, pc}
 80018e6:	bf00      	nop
 80018e8:	2000002c 	.word	0x2000002c

080018ec <vApplicationGetIdleTaskMemory>:

/*
  vApplicationGetIdleTaskMemory gets called when configSUPPORT_STATIC_ALLOCATION
  equals to 1 and is required for static memory allocation support.
*/
void vApplicationGetIdleTaskMemory (StaticTask_t **ppxIdleTaskTCBBuffer, StackType_t **ppxIdleTaskStackBuffer, uint32_t *pulIdleTaskStackSize) {
 80018ec:	b480      	push	{r7}
 80018ee:	b085      	sub	sp, #20
 80018f0:	af00      	add	r7, sp, #0
 80018f2:	60f8      	str	r0, [r7, #12]
 80018f4:	60b9      	str	r1, [r7, #8]
 80018f6:	607a      	str	r2, [r7, #4]
  *ppxIdleTaskTCBBuffer   = &Idle_TCB;
 80018f8:	68fb      	ldr	r3, [r7, #12]
 80018fa:	4a07      	ldr	r2, [pc, #28]	; (8001918 <vApplicationGetIdleTaskMemory+0x2c>)
 80018fc:	601a      	str	r2, [r3, #0]
  *ppxIdleTaskStackBuffer = &Idle_Stack[0];
 80018fe:	68bb      	ldr	r3, [r7, #8]
 8001900:	4a06      	ldr	r2, [pc, #24]	; (800191c <vApplicationGetIdleTaskMemory+0x30>)
 8001902:	601a      	str	r2, [r3, #0]
  *pulIdleTaskStackSize   = (uint32_t)configMINIMAL_STACK_SIZE;
 8001904:	687b      	ldr	r3, [r7, #4]
 8001906:	2280      	movs	r2, #128	; 0x80
 8001908:	601a      	str	r2, [r3, #0]
}
 800190a:	bf00      	nop
 800190c:	3714      	adds	r7, #20
 800190e:	46bd      	mov	sp, r7
 8001910:	f85d 7b04 	ldr.w	r7, [sp], #4
 8001914:	4770      	bx	lr
 8001916:	bf00      	nop
 8001918:	20000030 	.word	0x20000030
 800191c:	2000008c 	.word	0x2000008c

08001920 <vApplicationGetTimerTaskMemory>:

/*
  vApplicationGetTimerTaskMemory gets called when configSUPPORT_STATIC_ALLOCATION
  equals to 1 and is required for static memory allocation support.
*/
void vApplicationGetTimerTaskMemory (StaticTask_t **ppxTimerTaskTCBBuffer, StackType_t **ppxTimerTaskStackBuffer, uint32_t *pulTimerTaskStackSize) {
 8001920:	b480      	push	{r7}
 8001922:	b085      	sub	sp, #20
 8001924:	af00      	add	r7, sp, #0
 8001926:	60f8      	str	r0, [r7, #12]
 8001928:	60b9      	str	r1, [r7, #8]
 800192a:	607a      	str	r2, [r7, #4]
  *ppxTimerTaskTCBBuffer   = &Timer_TCB;
 800192c:	68fb      	ldr	r3, [r7, #12]
 800192e:	4a07      	ldr	r2, [pc, #28]	; (800194c <vApplicationGetTimerTaskMemory+0x2c>)
 8001930:	601a      	str	r2, [r3, #0]
  *ppxTimerTaskStackBuffer = &Timer_Stack[0];
 8001932:	68bb      	ldr	r3, [r7, #8]
 8001934:	4a06      	ldr	r2, [pc, #24]	; (8001950 <vApplicationGetTimerTaskMemory+0x30>)
 8001936:	601a      	str	r2, [r3, #0]
  *pulTimerTaskStackSize   = (uint32_t)configTIMER_TASK_STACK_DEPTH;
 8001938:	687b      	ldr	r3, [r7, #4]
 800193a:	f44f 7280 	mov.w	r2, #256	; 0x100
 800193e:	601a      	str	r2, [r3, #0]
}
 8001940:	bf00      	nop
 8001942:	3714      	adds	r7, #20
 8001944:	46bd      	mov	sp, r7
 8001946:	f85d 7b04 	ldr.w	r7, [sp], #4
 800194a:	4770      	bx	lr
 800194c:	2000028c 	.word	0x2000028c
 8001950:	200002e8 	.word	0x200002e8

08001954 <vListInitialise>:
/*-----------------------------------------------------------
 * PUBLIC LIST API documented in list.h
 *----------------------------------------------------------*/

void vListInitialise( List_t * const pxList )
{
 8001954:	b480      	push	{r7}
 8001956:	b083      	sub	sp, #12
 8001958:	af00      	add	r7, sp, #0
 800195a:	6078      	str	r0, [r7, #4]
	/* The list structure contains a list item which is used to mark the
	end of the list.  To initialise the list the list end is inserted
	as the only list entry. */
	pxList->pxIndex = ( ListItem_t * ) &( pxList->xListEnd );			/*lint !e826 !e740 !e9087 The mini list structure is used as the list end to save RAM.  This is checked and valid. */
 800195c:	687b      	ldr	r3, [r7, #4]
 800195e:	f103 0208 	add.w	r2, r3, #8
 8001962:	687b      	ldr	r3, [r7, #4]
 8001964:	605a      	str	r2, [r3, #4]

	/* The list end value is the highest possible value in the list to
	ensure it remains at the end of the list. */
	pxList->xListEnd.xItemValue = portMAX_DELAY;
 8001966:	687b      	ldr	r3, [r7, #4]
 8001968:	f04f 32ff 	mov.w	r2, #4294967295
 800196c:	609a      	str	r2, [r3, #8]

	/* The list end next and previous pointers point to itself so we know
	when the list is empty. */
	pxList->xListEnd.pxNext = ( ListItem_t * ) &( pxList->xListEnd );	/*lint !e826 !e740 !e9087 The mini list structure is used as the list end to save RAM.  This is checked and valid. */
 800196e:	687b      	ldr	r3, [r7, #4]
 8001970:	f103 0208 	add.w	r2, r3, #8
 8001974:	687b      	ldr	r3, [r7, #4]
 8001976:	60da      	str	r2, [r3, #12]
	pxList->xListEnd.pxPrevious = ( ListItem_t * ) &( pxList->xListEnd );/*lint !e826 !e740 !e9087 The mini list structure is used as the list end to save RAM.  This is checked and valid. */
 8001978:	687b      	ldr	r3, [r7, #4]
 800197a:	f103 0208 	add.w	r2, r3, #8
 800197e:	687b      	ldr	r3, [r7, #4]
 8001980:	611a      	str	r2, [r3, #16]

	pxList->uxNumberOfItems = ( UBaseType_t ) 0U;
 8001982:	687b      	ldr	r3, [r7, #4]
 8001984:	2200      	movs	r2, #0
 8001986:	601a      	str	r2, [r3, #0]

	/* Write known values into the list if
	configUSE_LIST_DATA_INTEGRITY_CHECK_BYTES is set to 1. */
	listSET_LIST_INTEGRITY_CHECK_1_VALUE( pxList );
	listSET_LIST_INTEGRITY_CHECK_2_VALUE( pxList );
}
 8001988:	bf00      	nop
 800198a:	370c      	adds	r7, #12
 800198c:	46bd      	mov	sp, r7
 800198e:	f85d 7b04 	ldr.w	r7, [sp], #4
 8001992:	4770      	bx	lr

08001994 <vListInitialiseItem>:
/*-----------------------------------------------------------*/

void vListInitialiseItem( ListItem_t * const pxItem )
{
 8001994:	b480      	push	{r7}
 8001996:	b083      	sub	sp, #12
 8001998:	af00      	add	r7, sp, #0
 800199a:	6078      	str	r0, [r7, #4]
	/* Make sure the list item is not recorded as being on a list. */
	pxItem->pxContainer = NULL;
 800199c:	687b      	ldr	r3, [r7, #4]
 800199e:	2200      	movs	r2, #0
 80019a0:	611a      	str	r2, [r3, #16]

	/* Write known values into the list item if
	configUSE_LIST_DATA_INTEGRITY_CHECK_BYTES is set to 1. */
	listSET_FIRST_LIST_ITEM_INTEGRITY_CHECK_VALUE( pxItem );
	listSET_SECOND_LIST_ITEM_INTEGRITY_CHECK_VALUE( pxItem );
}
 80019a2:	bf00      	nop
 80019a4:	370c      	adds	r7, #12
 80019a6:	46bd      	mov	sp, r7
 80019a8:	f85d 7b04 	ldr.w	r7, [sp], #4
 80019ac:	4770      	bx	lr

080019ae <vListInsertEnd>:
/*-----------------------------------------------------------*/

void vListInsertEnd( List_t * const pxList, ListItem_t * const pxNewListItem )
{
 80019ae:	b480      	push	{r7}
 80019b0:	b085      	sub	sp, #20
 80019b2:	af00      	add	r7, sp, #0
 80019b4:	6078      	str	r0, [r7, #4]
 80019b6:	6039      	str	r1, [r7, #0]
ListItem_t * const pxIndex = pxList->pxIndex;
 80019b8:	687b      	ldr	r3, [r7, #4]
 80019ba:	685b      	ldr	r3, [r3, #4]
 80019bc:	60fb      	str	r3, [r7, #12]
	listTEST_LIST_ITEM_INTEGRITY( pxNewListItem );

	/* Insert a new list item into pxList, but rather than sort the list,
	makes the new list item the last item to be removed by a call to
	listGET_OWNER_OF_NEXT_ENTRY(). */
	pxNewListItem->pxNext = pxIndex;
 80019be:	683b      	ldr	r3, [r7, #0]
 80019c0:	68fa      	ldr	r2, [r7, #12]
 80019c2:	605a      	str	r2, [r3, #4]
	pxNewListItem->pxPrevious = pxIndex->pxPrevious;
 80019c4:	68fb      	ldr	r3, [r7, #12]
 80019c6:	689a      	ldr	r2, [r3, #8]
 80019c8:	683b      	ldr	r3, [r7, #0]
 80019ca:	609a      	str	r2, [r3, #8]

	/* Only used during decision coverage testing. */
	mtCOVERAGE_TEST_DELAY();

	pxIndex->pxPrevious->pxNext = pxNewListItem;
 80019cc:	68fb      	ldr	r3, [r7, #12]
 80019ce:	689b      	ldr	r3, [r3, #8]
 80019d0:	683a      	ldr	r2, [r7, #0]
 80019d2:	605a      	str	r2, [r3, #4]
	pxIndex->pxPrevious = pxNewListItem;
 80019d4:	68fb      	ldr	r3, [r7, #12]
 80019d6:	683a      	ldr	r2, [r7, #0]
 80019d8:	609a      	str	r2, [r3, #8]

	/* Remember which list the item is in. */
	pxNewListItem->pxContainer = pxList;
 80019da:	683b      	ldr	r3, [r7, #0]
 80019dc:	687a      	ldr	r2, [r7, #4]
 80019de:	611a      	str	r2, [r3, #16]

	( pxList->uxNumberOfItems )++;
 80019e0:	687b      	ldr	r3, [r7, #4]
 80019e2:	681b      	ldr	r3, [r3, #0]
 80019e4:	1c5a      	adds	r2, r3, #1
 80019e6:	687b      	ldr	r3, [r7, #4]
 80019e8:	601a      	str	r2, [r3, #0]
}
 80019ea:	bf00      	nop
 80019ec:	3714      	adds	r7, #20
 80019ee:	46bd      	mov	sp, r7
 80019f0:	f85d 7b04 	ldr.w	r7, [sp], #4
 80019f4:	4770      	bx	lr

080019f6 <vListInsert>:
/*-----------------------------------------------------------*/

void vListInsert( List_t * const pxList, ListItem_t * const pxNewListItem )
{
 80019f6:	b480      	push	{r7}
 80019f8:	b085      	sub	sp, #20
 80019fa:	af00      	add	r7, sp, #0
 80019fc:	6078      	str	r0, [r7, #4]
 80019fe:	6039      	str	r1, [r7, #0]
ListItem_t *pxIterator;
const TickType_t xValueOfInsertion = pxNewListItem->xItemValue;
 8001a00:	683b      	ldr	r3, [r7, #0]
 8001a02:	681b      	ldr	r3, [r3, #0]
 8001a04:	60bb      	str	r3, [r7, #8]
	new list item should be placed after it.  This ensures that TCBs which are
	stored in ready lists (all of which have the same xItemValue value) get a
	share of the CPU.  However, if the xItemValue is the same as the back marker
	the iteration loop below will not end.  Therefore the value is checked
	first, and the algorithm slightly modified if necessary. */
	if( xValueOfInsertion == portMAX_DELAY )
 8001a06:	68bb      	ldr	r3, [r7, #8]
 8001a08:	f1b3 3fff 	cmp.w	r3, #4294967295
 8001a0c:	d103      	bne.n	8001a16 <vListInsert+0x20>
	{
		pxIterator = pxList->xListEnd.pxPrevious;
 8001a0e:	687b      	ldr	r3, [r7, #4]
 8001a10:	691b      	ldr	r3, [r3, #16]
 8001a12:	60fb      	str	r3, [r7, #12]
 8001a14:	e00c      	b.n	8001a30 <vListInsert+0x3a>
			4) Using a queue or semaphore before it has been initialised or
			   before the scheduler has been started (are interrupts firing
			   before vTaskStartScheduler() has been called?).
		**********************************************************************/

		for( pxIterator = ( ListItem_t * ) &( pxList->xListEnd ); pxIterator->pxNext->xItemValue <= xValueOfInsertion; pxIterator = pxIterator->pxNext ) /*lint !e826 !e740 !e9087 The mini list structure is used as the list end to save RAM.  This is checked and valid. *//*lint !e440 The iterator moves to a different value, not xValueOfInsertion. */
 8001a16:	687b      	ldr	r3, [r7, #4]
 8001a18:	3308      	adds	r3, #8
 8001a1a:	60fb      	str	r3, [r7, #12]
 8001a1c:	e002      	b.n	8001a24 <vListInsert+0x2e>
 8001a1e:	68fb      	ldr	r3, [r7, #12]
 8001a20:	685b      	ldr	r3, [r3, #4]
 8001a22:	60fb      	str	r3, [r7, #12]
 8001a24:	68fb      	ldr	r3, [r7, #12]
 8001a26:	685b      	ldr	r3, [r3, #4]
 8001a28:	681b      	ldr	r3, [r3, #0]
 8001a2a:	68ba      	ldr	r2, [r7, #8]
 8001a2c:	429a      	cmp	r2, r3
 8001a2e:	d2f6      	bcs.n	8001a1e <vListInsert+0x28>
			/* There is nothing to do here, just iterating to the wanted
			insertion position. */
		}
	}

	pxNewListItem->pxNext = pxIterator->pxNext;
 8001a30:	68fb      	ldr	r3, [r7, #12]
 8001a32:	685a      	ldr	r2, [r3, #4]
 8001a34:	683b      	ldr	r3, [r7, #0]
 8001a36:	605a      	str	r2, [r3, #4]
	pxNewListItem->pxNext->pxPrevious = pxNewListItem;
 8001a38:	683b      	ldr	r3, [r7, #0]
 8001a3a:	685b      	ldr	r3, [r3, #4]
 8001a3c:	683a      	ldr	r2, [r7, #0]
 8001a3e:	609a      	str	r2, [r3, #8]
	pxNewListItem->pxPrevious = pxIterator;
 8001a40:	683b      	ldr	r3, [r7, #0]
 8001a42:	68fa      	ldr	r2, [r7, #12]
 8001a44:	609a      	str	r2, [r3, #8]
	pxIterator->pxNext = pxNewListItem;
 8001a46:	68fb      	ldr	r3, [r7, #12]
 8001a48:	683a      	ldr	r2, [r7, #0]
 8001a4a:	605a      	str	r2, [r3, #4]

	/* Remember which list the item is in.  This allows fast removal of the
	item later. */
	pxNewListItem->pxContainer = pxList;
 8001a4c:	683b      	ldr	r3, [r7, #0]
 8001a4e:	687a      	ldr	r2, [r7, #4]
 8001a50:	611a      	str	r2, [r3, #16]

	( pxList->uxNumberOfItems )++;
 8001a52:	687b      	ldr	r3, [r7, #4]
 8001a54:	681b      	ldr	r3, [r3, #0]
 8001a56:	1c5a      	adds	r2, r3, #1
 8001a58:	687b      	ldr	r3, [r7, #4]
 8001a5a:	601a      	str	r2, [r3, #0]
}
 8001a5c:	bf00      	nop
 8001a5e:	3714      	adds	r7, #20
 8001a60:	46bd      	mov	sp, r7
 8001a62:	f85d 7b04 	ldr.w	r7, [sp], #4
 8001a66:	4770      	bx	lr

08001a68 <uxListRemove>:
/*-----------------------------------------------------------*/

UBaseType_t uxListRemove( ListItem_t * const pxItemToRemove )
{
 8001a68:	b480      	push	{r7}
 8001a6a:	b085      	sub	sp, #20
 8001a6c:	af00      	add	r7, sp, #0
 8001a6e:	6078      	str	r0, [r7, #4]
/* The list item knows which list it is in.  Obtain the list from the list
item. */
List_t * const pxList = pxItemToRemove->pxContainer;
 8001a70:	687b      	ldr	r3, [r7, #4]
 8001a72:	691b      	ldr	r3, [r3, #16]
 8001a74:	60fb      	str	r3, [r7, #12]

	pxItemToRemove->pxNext->pxPrevious = pxItemToRemove->pxPrevious;
 8001a76:	687b      	ldr	r3, [r7, #4]
 8001a78:	685b      	ldr	r3, [r3, #4]
 8001a7a:	687a      	ldr	r2, [r7, #4]
 8001a7c:	6892      	ldr	r2, [r2, #8]
 8001a7e:	609a      	str	r2, [r3, #8]
	pxItemToRemove->pxPrevious->pxNext = pxItemToRemove->pxNext;
 8001a80:	687b      	ldr	r3, [r7, #4]
 8001a82:	689b      	ldr	r3, [r3, #8]
 8001a84:	687a      	ldr	r2, [r7, #4]
 8001a86:	6852      	ldr	r2, [r2, #4]
 8001a88:	605a      	str	r2, [r3, #4]

	/* Only used during decision coverage testing. */
	mtCOVERAGE_TEST_DELAY();

	/* Make sure the index is left pointing to a valid item. */
	if( pxList->pxIndex == pxItemToRemove )
 8001a8a:	68fb      	ldr	r3, [r7, #12]
 8001a8c:	685b      	ldr	r3, [r3, #4]
 8001a8e:	687a      	ldr	r2, [r7, #4]
 8001a90:	429a      	cmp	r2, r3
 8001a92:	d103      	bne.n	8001a9c <uxListRemove+0x34>
	{
		pxList->pxIndex = pxItemToRemove->pxPrevious;
 8001a94:	687b      	ldr	r3, [r7, #4]
 8001a96:	689a      	ldr	r2, [r3, #8]
 8001a98:	68fb      	ldr	r3, [r7, #12]
 8001a9a:	605a      	str	r2, [r3, #4]
	else
	{
		mtCOVERAGE_TEST_MARKER();
	}

	pxItemToRemove->pxContainer = NULL;
 8001a9c:	687b      	ldr	r3, [r7, #4]
 8001a9e:	2200      	movs	r2, #0
 8001aa0:	611a      	str	r2, [r3, #16]
	( pxList->uxNumberOfItems )--;
 8001aa2:	68fb      	ldr	r3, [r7, #12]
 8001aa4:	681b      	ldr	r3, [r3, #0]
 8001aa6:	1e5a      	subs	r2, r3, #1
 8001aa8:	68fb      	ldr	r3, [r7, #12]
 8001aaa:	601a      	str	r2, [r3, #0]

	return pxList->uxNumberOfItems;
 8001aac:	68fb      	ldr	r3, [r7, #12]
 8001aae:	681b      	ldr	r3, [r3, #0]
}
 8001ab0:	4618      	mov	r0, r3
 8001ab2:	3714      	adds	r7, #20
 8001ab4:	46bd      	mov	sp, r7
 8001ab6:	f85d 7b04 	ldr.w	r7, [sp], #4
 8001aba:	4770      	bx	lr

08001abc <xQueueGenericReset>:
	}														\
	taskEXIT_CRITICAL()
/*-----------------------------------------------------------*/

BaseType_t xQueueGenericReset( QueueHandle_t xQueue, BaseType_t xNewQueue )
{
 8001abc:	b580      	push	{r7, lr}
 8001abe:	b084      	sub	sp, #16
 8001ac0:	af00      	add	r7, sp, #0
 8001ac2:	6078      	str	r0, [r7, #4]
 8001ac4:	6039      	str	r1, [r7, #0]
Queue_t * const pxQueue = xQueue;
 8001ac6:	687b      	ldr	r3, [r7, #4]
 8001ac8:	60fb      	str	r3, [r7, #12]

	configASSERT( pxQueue );
 8001aca:	68fb      	ldr	r3, [r7, #12]
 8001acc:	2b00      	cmp	r3, #0
 8001ace:	d109      	bne.n	8001ae4 <xQueueGenericReset+0x28>

portFORCE_INLINE static void vPortRaiseBASEPRI( void )
{
uint32_t ulNewBASEPRI;

	__asm volatile
 8001ad0:	f04f 0350 	mov.w	r3, #80	; 0x50
 8001ad4:	f383 8811 	msr	BASEPRI, r3
 8001ad8:	f3bf 8f6f 	isb	sy
 8001adc:	f3bf 8f4f 	dsb	sy
 8001ae0:	60bb      	str	r3, [r7, #8]
 8001ae2:	e7fe      	b.n	8001ae2 <xQueueGenericReset+0x26>

	taskENTER_CRITICAL();
 8001ae4:	f002 f812 	bl	8003b0c <vPortEnterCritical>
	{
		pxQueue->u.xQueue.pcTail = pxQueue->pcHead + ( pxQueue->uxLength * pxQueue->uxItemSize ); /*lint !e9016 Pointer arithmetic allowed on char types, especially when it assists conveying intent. */
 8001ae8:	68fb      	ldr	r3, [r7, #12]
 8001aea:	681a      	ldr	r2, [r3, #0]
 8001aec:	68fb      	ldr	r3, [r7, #12]
 8001aee:	6bdb      	ldr	r3, [r3, #60]	; 0x3c
 8001af0:	68f9      	ldr	r1, [r7, #12]
 8001af2:	6c09      	ldr	r1, [r1, #64]	; 0x40
 8001af4:	fb01 f303 	mul.w	r3, r1, r3
 8001af8:	441a      	add	r2, r3
 8001afa:	68fb      	ldr	r3, [r7, #12]
 8001afc:	609a      	str	r2, [r3, #8]
		pxQueue->uxMessagesWaiting = ( UBaseType_t ) 0U;
 8001afe:	68fb      	ldr	r3, [r7, #12]
 8001b00:	2200      	movs	r2, #0
 8001b02:	639a      	str	r2, [r3, #56]	; 0x38
		pxQueue->pcWriteTo = pxQueue->pcHead;
 8001b04:	68fb      	ldr	r3, [r7, #12]
 8001b06:	681a      	ldr	r2, [r3, #0]
 8001b08:	68fb      	ldr	r3, [r7, #12]
 8001b0a:	605a      	str	r2, [r3, #4]
		pxQueue->u.xQueue.pcReadFrom = pxQueue->pcHead + ( ( pxQueue->uxLength - 1U ) * pxQueue->uxItemSize ); /*lint !e9016 Pointer arithmetic allowed on char types, especially when it assists conveying intent. */
 8001b0c:	68fb      	ldr	r3, [r7, #12]
 8001b0e:	681a      	ldr	r2, [r3, #0]
 8001b10:	68fb      	ldr	r3, [r7, #12]
 8001b12:	6bdb      	ldr	r3, [r3, #60]	; 0x3c
 8001b14:	3b01      	subs	r3, #1
 8001b16:	68f9      	ldr	r1, [r7, #12]
 8001b18:	6c09      	ldr	r1, [r1, #64]	; 0x40
 8001b1a:	fb01 f303 	mul.w	r3, r1, r3
 8001b1e:	441a      	add	r2, r3
 8001b20:	68fb      	ldr	r3, [r7, #12]
 8001b22:	60da      	str	r2, [r3, #12]
		pxQueue->cRxLock = queueUNLOCKED;
 8001b24:	68fb      	ldr	r3, [r7, #12]
 8001b26:	22ff      	movs	r2, #255	; 0xff
 8001b28:	f883 2044 	strb.w	r2, [r3, #68]	; 0x44
		pxQueue->cTxLock = queueUNLOCKED;
 8001b2c:	68fb      	ldr	r3, [r7, #12]
 8001b2e:	22ff      	movs	r2, #255	; 0xff
 8001b30:	f883 2045 	strb.w	r2, [r3, #69]	; 0x45

		if( xNewQueue == pdFALSE )
 8001b34:	683b      	ldr	r3, [r7, #0]
 8001b36:	2b00      	cmp	r3, #0
 8001b38:	d114      	bne.n	8001b64 <xQueueGenericReset+0xa8>
			/* If there are tasks blocked waiting to read from the queue, then
			the tasks will remain blocked as after this function exits the queue
			will still be empty.  If there are tasks blocked waiting to write to
			the queue, then one should be unblocked as after this function exits
			it will be possible to write to it. */
			if( listLIST_IS_EMPTY( &( pxQueue->xTasksWaitingToSend ) ) == pdFALSE )
 8001b3a:	68fb      	ldr	r3, [r7, #12]
 8001b3c:	691b      	ldr	r3, [r3, #16]
 8001b3e:	2b00      	cmp	r3, #0
 8001b40:	d01a      	beq.n	8001b78 <xQueueGenericReset+0xbc>
			{
				if( xTaskRemoveFromEventList( &( pxQueue->xTasksWaitingToSend ) ) != pdFALSE )
 8001b42:	68fb      	ldr	r3, [r7, #12]
 8001b44:	3310      	adds	r3, #16
 8001b46:	4618      	mov	r0, r3
 8001b48:	f001 f8de 	bl	8002d08 <xTaskRemoveFromEventList>
 8001b4c:	4603      	mov	r3, r0
 8001b4e:	2b00      	cmp	r3, #0
 8001b50:	d012      	beq.n	8001b78 <xQueueGenericReset+0xbc>
				{
					queueYIELD_IF_USING_PREEMPTION();
 8001b52:	4b0d      	ldr	r3, [pc, #52]	; (8001b88 <xQueueGenericReset+0xcc>)
 8001b54:	f04f 5280 	mov.w	r2, #268435456	; 0x10000000
 8001b58:	601a      	str	r2, [r3, #0]
 8001b5a:	f3bf 8f4f 	dsb	sy
 8001b5e:	f3bf 8f6f 	isb	sy
 8001b62:	e009      	b.n	8001b78 <xQueueGenericReset+0xbc>
			}
		}
		else
		{
			/* Ensure the event queues start in the correct state. */
			vListInitialise( &( pxQueue->xTasksWaitingToSend ) );
 8001b64:	68fb      	ldr	r3, [r7, #12]
 8001b66:	3310      	adds	r3, #16
 8001b68:	4618      	mov	r0, r3
 8001b6a:	f7ff fef3 	bl	8001954 <vListInitialise>
			vListInitialise( &( pxQueue->xTasksWaitingToReceive ) );
 8001b6e:	68fb      	ldr	r3, [r7, #12]
 8001b70:	3324      	adds	r3, #36	; 0x24
 8001b72:	4618      	mov	r0, r3
 8001b74:	f7ff feee 	bl	8001954 <vListInitialise>
		}
	}
	taskEXIT_CRITICAL();
 8001b78:	f001 fff6 	bl	8003b68 <vPortExitCritical>

	/* A value is returned for calling semantic consistency with previous
	versions. */
	return pdPASS;
 8001b7c:	2301      	movs	r3, #1
}
 8001b7e:	4618      	mov	r0, r3
 8001b80:	3710      	adds	r7, #16
 8001b82:	46bd      	mov	sp, r7
 8001b84:	bd80      	pop	{r7, pc}
 8001b86:	bf00      	nop
 8001b88:	e000ed04 	.word	0xe000ed04

08001b8c <xQueueGenericCreateStatic>:
/*-----------------------------------------------------------*/

#if( configSUPPORT_STATIC_ALLOCATION == 1 )

	QueueHandle_t xQueueGenericCreateStatic( const UBaseType_t uxQueueLength, const UBaseType_t uxItemSize, uint8_t *pucQueueStorage, StaticQueue_t *pxStaticQueue, const uint8_t ucQueueType )
	{
 8001b8c:	b580      	push	{r7, lr}
 8001b8e:	b08e      	sub	sp, #56	; 0x38
 8001b90:	af02      	add	r7, sp, #8
 8001b92:	60f8      	str	r0, [r7, #12]
 8001b94:	60b9      	str	r1, [r7, #8]
 8001b96:	607a      	str	r2, [r7, #4]
 8001b98:	603b      	str	r3, [r7, #0]
	Queue_t *pxNewQueue;

		configASSERT( uxQueueLength > ( UBaseType_t ) 0 );
 8001b9a:	68fb      	ldr	r3, [r7, #12]
 8001b9c:	2b00      	cmp	r3, #0
 8001b9e:	d109      	bne.n	8001bb4 <xQueueGenericCreateStatic+0x28>
 8001ba0:	f04f 0350 	mov.w	r3, #80	; 0x50
 8001ba4:	f383 8811 	msr	BASEPRI, r3
 8001ba8:	f3bf 8f6f 	isb	sy
 8001bac:	f3bf 8f4f 	dsb	sy
 8001bb0:	62bb      	str	r3, [r7, #40]	; 0x28
 8001bb2:	e7fe      	b.n	8001bb2 <xQueueGenericCreateStatic+0x26>

		/* The StaticQueue_t structure and the queue storage area must be
		supplied. */
		configASSERT( pxStaticQueue != NULL );
 8001bb4:	683b      	ldr	r3, [r7, #0]
 8001bb6:	2b00      	cmp	r3, #0
 8001bb8:	d109      	bne.n	8001bce <xQueueGenericCreateStatic+0x42>
 8001bba:	f04f 0350 	mov.w	r3, #80	; 0x50
 8001bbe:	f383 8811 	msr	BASEPRI, r3
 8001bc2:	f3bf 8f6f 	isb	sy
 8001bc6:	f3bf 8f4f 	dsb	sy
 8001bca:	627b      	str	r3, [r7, #36]	; 0x24
 8001bcc:	e7fe      	b.n	8001bcc <xQueueGenericCreateStatic+0x40>

		/* A queue storage area should be provided if the item size is not 0, and
		should not be provided if the item size is 0. */
		configASSERT( !( ( pucQueueStorage != NULL ) && ( uxItemSize == 0 ) ) );
 8001bce:	687b      	ldr	r3, [r7, #4]
 8001bd0:	2b00      	cmp	r3, #0
 8001bd2:	d002      	beq.n	8001bda <xQueueGenericCreateStatic+0x4e>
 8001bd4:	68bb      	ldr	r3, [r7, #8]
 8001bd6:	2b00      	cmp	r3, #0
 8001bd8:	d001      	beq.n	8001bde <xQueueGenericCreateStatic+0x52>
 8001bda:	2301      	movs	r3, #1
 8001bdc:	e000      	b.n	8001be0 <xQueueGenericCreateStatic+0x54>
 8001bde:	2300      	movs	r3, #0
 8001be0:	2b00      	cmp	r3, #0
 8001be2:	d109      	bne.n	8001bf8 <xQueueGenericCreateStatic+0x6c>
 8001be4:	f04f 0350 	mov.w	r3, #80	; 0x50
 8001be8:	f383 8811 	msr	BASEPRI, r3
 8001bec:	f3bf 8f6f 	isb	sy
 8001bf0:	f3bf 8f4f 	dsb	sy
 8001bf4:	623b      	str	r3, [r7, #32]
 8001bf6:	e7fe      	b.n	8001bf6 <xQueueGenericCreateStatic+0x6a>
		configASSERT( !( ( pucQueueStorage == NULL ) && ( uxItemSize != 0 ) ) );
 8001bf8:	687b      	ldr	r3, [r7, #4]
 8001bfa:	2b00      	cmp	r3, #0
 8001bfc:	d102      	bne.n	8001c04 <xQueueGenericCreateStatic+0x78>
 8001bfe:	68bb      	ldr	r3, [r7, #8]
 8001c00:	2b00      	cmp	r3, #0
 8001c02:	d101      	bne.n	8001c08 <xQueueGenericCreateStatic+0x7c>
 8001c04:	2301      	movs	r3, #1
 8001c06:	e000      	b.n	8001c0a <xQueueGenericCreateStatic+0x7e>
 8001c08:	2300      	movs	r3, #0
 8001c0a:	2b00      	cmp	r3, #0
 8001c0c:	d109      	bne.n	8001c22 <xQueueGenericCreateStatic+0x96>
 8001c0e:	f04f 0350 	mov.w	r3, #80	; 0x50
 8001c12:	f383 8811 	msr	BASEPRI, r3
 8001c16:	f3bf 8f6f 	isb	sy
 8001c1a:	f3bf 8f4f 	dsb	sy
 8001c1e:	61fb      	str	r3, [r7, #28]
 8001c20:	e7fe      	b.n	8001c20 <xQueueGenericCreateStatic+0x94>
		#if( configASSERT_DEFINED == 1 )
		{
			/* Sanity check that the size of the structure used to declare a
			variable of type StaticQueue_t or StaticSemaphore_t equals the size of
			the real queue and semaphore structures. */
			volatile size_t xSize = sizeof( StaticQueue_t );
 8001c22:	2350      	movs	r3, #80	; 0x50
 8001c24:	617b      	str	r3, [r7, #20]
			configASSERT( xSize == sizeof( Queue_t ) );
 8001c26:	697b      	ldr	r3, [r7, #20]
 8001c28:	2b50      	cmp	r3, #80	; 0x50
 8001c2a:	d009      	beq.n	8001c40 <xQueueGenericCreateStatic+0xb4>
 8001c2c:	f04f 0350 	mov.w	r3, #80	; 0x50
 8001c30:	f383 8811 	msr	BASEPRI, r3
 8001c34:	f3bf 8f6f 	isb	sy
 8001c38:	f3bf 8f4f 	dsb	sy
 8001c3c:	61bb      	str	r3, [r7, #24]
 8001c3e:	e7fe      	b.n	8001c3e <xQueueGenericCreateStatic+0xb2>
			( void ) xSize; /* Keeps lint quiet when configASSERT() is not defined. */
 8001c40:	697b      	ldr	r3, [r7, #20]
		#endif /* configASSERT_DEFINED */

		/* The address of a statically allocated queue was passed in, use it.
		The address of a statically allocated storage area was also passed in
		but is already set. */
		pxNewQueue = ( Queue_t * ) pxStaticQueue; /*lint !e740 !e9087 Unusual cast is ok as the structures are designed to have the same alignment, and the size is checked by an assert. */
 8001c42:	683b      	ldr	r3, [r7, #0]
 8001c44:	62fb      	str	r3, [r7, #44]	; 0x2c

		if( pxNewQueue != NULL )
 8001c46:	6afb      	ldr	r3, [r7, #44]	; 0x2c
 8001c48:	2b00      	cmp	r3, #0
 8001c4a:	d00d      	beq.n	8001c68 <xQueueGenericCreateStatic+0xdc>
			#if( configSUPPORT_DYNAMIC_ALLOCATION == 1 )
			{
				/* Queues can be allocated wither statically or dynamically, so
				note this queue was allocated statically in case the queue is
				later deleted. */
				pxNewQueue->ucStaticallyAllocated = pdTRUE;
 8001c4c:	6afb      	ldr	r3, [r7, #44]	; 0x2c
 8001c4e:	2201      	movs	r2, #1
 8001c50:	f883 2046 	strb.w	r2, [r3, #70]	; 0x46
			}
			#endif /* configSUPPORT_DYNAMIC_ALLOCATION */

			prvInitialiseNewQueue( uxQueueLength, uxItemSize, pucQueueStorage, ucQueueType, pxNewQueue );
 8001c54:	f897 2038 	ldrb.w	r2, [r7, #56]	; 0x38
 8001c58:	6afb      	ldr	r3, [r7, #44]	; 0x2c
 8001c5a:	9300      	str	r3, [sp, #0]
 8001c5c:	4613      	mov	r3, r2
 8001c5e:	687a      	ldr	r2, [r7, #4]
 8001c60:	68b9      	ldr	r1, [r7, #8]
 8001c62:	68f8      	ldr	r0, [r7, #12]
 8001c64:	f000 f805 	bl	8001c72 <prvInitialiseNewQueue>
		{
			traceQUEUE_CREATE_FAILED( ucQueueType );
			mtCOVERAGE_TEST_MARKER();
		}

		return pxNewQueue;
 8001c68:	6afb      	ldr	r3, [r7, #44]	; 0x2c
	}
 8001c6a:	4618      	mov	r0, r3
 8001c6c:	3730      	adds	r7, #48	; 0x30
 8001c6e:	46bd      	mov	sp, r7
 8001c70:	bd80      	pop	{r7, pc}

08001c72 <prvInitialiseNewQueue>:

#endif /* configSUPPORT_STATIC_ALLOCATION */
/*-----------------------------------------------------------*/

static void prvInitialiseNewQueue( const UBaseType_t uxQueueLength, const UBaseType_t uxItemSize, uint8_t *pucQueueStorage, const uint8_t ucQueueType, Queue_t *pxNewQueue )
{
 8001c72:	b580      	push	{r7, lr}
 8001c74:	b084      	sub	sp, #16
 8001c76:	af00      	add	r7, sp, #0
 8001c78:	60f8      	str	r0, [r7, #12]
 8001c7a:	60b9      	str	r1, [r7, #8]
 8001c7c:	607a      	str	r2, [r7, #4]
 8001c7e:	70fb      	strb	r3, [r7, #3]
	/* Remove compiler warnings about unused parameters should
	configUSE_TRACE_FACILITY not be set to 1. */
	( void ) ucQueueType;

	if( uxItemSize == ( UBaseType_t ) 0 )
 8001c80:	68bb      	ldr	r3, [r7, #8]
 8001c82:	2b00      	cmp	r3, #0
 8001c84:	d103      	bne.n	8001c8e <prvInitialiseNewQueue+0x1c>
	{
		/* No RAM was allocated for the queue storage area, but PC head cannot
		be set to NULL because NULL is used as a key to say the queue is used as
		a mutex.  Therefore just set pcHead to point to the queue as a benign
		value that is known to be within the memory map. */
		pxNewQueue->pcHead = ( int8_t * ) pxNewQueue;
 8001c86:	69bb      	ldr	r3, [r7, #24]
 8001c88:	69ba      	ldr	r2, [r7, #24]
 8001c8a:	601a      	str	r2, [r3, #0]
 8001c8c:	e002      	b.n	8001c94 <prvInitialiseNewQueue+0x22>
	}
	else
	{
		/* Set the head to the start of the queue storage area. */
		pxNewQueue->pcHead = ( int8_t * ) pucQueueStorage;
 8001c8e:	69bb      	ldr	r3, [r7, #24]
 8001c90:	687a      	ldr	r2, [r7, #4]
 8001c92:	601a      	str	r2, [r3, #0]
	}

	/* Initialise the queue members as described where the queue type is
	defined. */
	pxNewQueue->uxLength = uxQueueLength;
 8001c94:	69bb      	ldr	r3, [r7, #24]
 8001c96:	68fa      	ldr	r2, [r7, #12]
 8001c98:	63da      	str	r2, [r3, #60]	; 0x3c
	pxNewQueue->uxItemSize = uxItemSize;
 8001c9a:	69bb      	ldr	r3, [r7, #24]
 8001c9c:	68ba      	ldr	r2, [r7, #8]
 8001c9e:	641a      	str	r2, [r3, #64]	; 0x40
	( void ) xQueueGenericReset( pxNewQueue, pdTRUE );
 8001ca0:	2101      	movs	r1, #1
 8001ca2:	69b8      	ldr	r0, [r7, #24]
 8001ca4:	f7ff ff0a 	bl	8001abc <xQueueGenericReset>

	#if ( configUSE_TRACE_FACILITY == 1 )
	{
		pxNewQueue->ucQueueType = ucQueueType;
 8001ca8:	69bb      	ldr	r3, [r7, #24]
 8001caa:	78fa      	ldrb	r2, [r7, #3]
 8001cac:	f883 204c 	strb.w	r2, [r3, #76]	; 0x4c
		pxNewQueue->pxQueueSetContainer = NULL;
	}
	#endif /* configUSE_QUEUE_SETS */

	traceQUEUE_CREATE( pxNewQueue );
}
 8001cb0:	bf00      	nop
 8001cb2:	3710      	adds	r7, #16
 8001cb4:	46bd      	mov	sp, r7
 8001cb6:	bd80      	pop	{r7, pc}

08001cb8 <xQueueGenericSend>:

#endif /* ( ( configUSE_COUNTING_SEMAPHORES == 1 ) && ( configSUPPORT_DYNAMIC_ALLOCATION == 1 ) ) */
/*-----------------------------------------------------------*/

BaseType_t xQueueGenericSend( QueueHandle_t xQueue, const void * const pvItemToQueue, TickType_t xTicksToWait, const BaseType_t xCopyPosition )
{
 8001cb8:	b580      	push	{r7, lr}
 8001cba:	b08e      	sub	sp, #56	; 0x38
 8001cbc:	af00      	add	r7, sp, #0
 8001cbe:	60f8      	str	r0, [r7, #12]
 8001cc0:	60b9      	str	r1, [r7, #8]
 8001cc2:	607a      	str	r2, [r7, #4]
 8001cc4:	603b      	str	r3, [r7, #0]
BaseType_t xEntryTimeSet = pdFALSE, xYieldRequired;
 8001cc6:	2300      	movs	r3, #0
 8001cc8:	637b      	str	r3, [r7, #52]	; 0x34
TimeOut_t xTimeOut;
Queue_t * const pxQueue = xQueue;
 8001cca:	68fb      	ldr	r3, [r7, #12]
 8001ccc:	633b      	str	r3, [r7, #48]	; 0x30

	configASSERT( pxQueue );
 8001cce:	6b3b      	ldr	r3, [r7, #48]	; 0x30
 8001cd0:	2b00      	cmp	r3, #0
 8001cd2:	d109      	bne.n	8001ce8 <xQueueGenericSend+0x30>
 8001cd4:	f04f 0350 	mov.w	r3, #80	; 0x50
 8001cd8:	f383 8811 	msr	BASEPRI, r3
 8001cdc:	f3bf 8f6f 	isb	sy
 8001ce0:	f3bf 8f4f 	dsb	sy
 8001ce4:	62bb      	str	r3, [r7, #40]	; 0x28
 8001ce6:	e7fe      	b.n	8001ce6 <xQueueGenericSend+0x2e>
	configASSERT( !( ( pvItemToQueue == NULL ) && ( pxQueue->uxItemSize != ( UBaseType_t ) 0U ) ) );
 8001ce8:	68bb      	ldr	r3, [r7, #8]
 8001cea:	2b00      	cmp	r3, #0
 8001cec:	d103      	bne.n	8001cf6 <xQueueGenericSend+0x3e>
 8001cee:	6b3b      	ldr	r3, [r7, #48]	; 0x30
 8001cf0:	6c1b      	ldr	r3, [r3, #64]	; 0x40
 8001cf2:	2b00      	cmp	r3, #0
 8001cf4:	d101      	bne.n	8001cfa <xQueueGenericSend+0x42>
 8001cf6:	2301      	movs	r3, #1
 8001cf8:	e000      	b.n	8001cfc <xQueueGenericSend+0x44>
 8001cfa:	2300      	movs	r3, #0
 8001cfc:	2b00      	cmp	r3, #0
 8001cfe:	d109      	bne.n	8001d14 <xQueueGenericSend+0x5c>
 8001d00:	f04f 0350 	mov.w	r3, #80	; 0x50
 8001d04:	f383 8811 	msr	BASEPRI, r3
 8001d08:	f3bf 8f6f 	isb	sy
 8001d0c:	f3bf 8f4f 	dsb	sy
 8001d10:	627b      	str	r3, [r7, #36]	; 0x24
 8001d12:	e7fe      	b.n	8001d12 <xQueueGenericSend+0x5a>
	configASSERT( !( ( xCopyPosition == queueOVERWRITE ) && ( pxQueue->uxLength != 1 ) ) );
 8001d14:	683b      	ldr	r3, [r7, #0]
 8001d16:	2b02      	cmp	r3, #2
 8001d18:	d103      	bne.n	8001d22 <xQueueGenericSend+0x6a>
 8001d1a:	6b3b      	ldr	r3, [r7, #48]	; 0x30
 8001d1c:	6bdb      	ldr	r3, [r3, #60]	; 0x3c
 8001d1e:	2b01      	cmp	r3, #1
 8001d20:	d101      	bne.n	8001d26 <xQueueGenericSend+0x6e>
 8001d22:	2301      	movs	r3, #1
 8001d24:	e000      	b.n	8001d28 <xQueueGenericSend+0x70>
 8001d26:	2300      	movs	r3, #0
 8001d28:	2b00      	cmp	r3, #0
 8001d2a:	d109      	bne.n	8001d40 <xQueueGenericSend+0x88>
 8001d2c:	f04f 0350 	mov.w	r3, #80	; 0x50
 8001d30:	f383 8811 	msr	BASEPRI, r3
 8001d34:	f3bf 8f6f 	isb	sy
 8001d38:	f3bf 8f4f 	dsb	sy
 8001d3c:	623b      	str	r3, [r7, #32]
 8001d3e:	e7fe      	b.n	8001d3e <xQueueGenericSend+0x86>
	#if ( ( INCLUDE_xTaskGetSchedulerState == 1 ) || ( configUSE_TIMERS == 1 ) )
	{
		configASSERT( !( ( xTaskGetSchedulerState() == taskSCHEDULER_SUSPENDED ) && ( xTicksToWait != 0 ) ) );
 8001d40:	f001 f998 	bl	8003074 <xTaskGetSchedulerState>
 8001d44:	4603      	mov	r3, r0
 8001d46:	2b00      	cmp	r3, #0
 8001d48:	d102      	bne.n	8001d50 <xQueueGenericSend+0x98>
 8001d4a:	687b      	ldr	r3, [r7, #4]
 8001d4c:	2b00      	cmp	r3, #0
 8001d4e:	d101      	bne.n	8001d54 <xQueueGenericSend+0x9c>
 8001d50:	2301      	movs	r3, #1
 8001d52:	e000      	b.n	8001d56 <xQueueGenericSend+0x9e>
 8001d54:	2300      	movs	r3, #0
 8001d56:	2b00      	cmp	r3, #0
 8001d58:	d109      	bne.n	8001d6e <xQueueGenericSend+0xb6>
 8001d5a:	f04f 0350 	mov.w	r3, #80	; 0x50
 8001d5e:	f383 8811 	msr	BASEPRI, r3
 8001d62:	f3bf 8f6f 	isb	sy
 8001d66:	f3bf 8f4f 	dsb	sy
 8001d6a:	61fb      	str	r3, [r7, #28]
 8001d6c:	e7fe      	b.n	8001d6c <xQueueGenericSend+0xb4>
	/*lint -save -e904 This function relaxes the coding standard somewhat to
	allow return statements within the function itself.  This is done in the
	interest of execution time efficiency. */
	for( ;; )
	{
		taskENTER_CRITICAL();
 8001d6e:	f001 fecd 	bl	8003b0c <vPortEnterCritical>
		{
			/* Is there room on the queue now?  The running task must be the
			highest priority task wanting to access the queue.  If the head item
			in the queue is to be overwritten then it does not matter if the
			queue is full. */
			if( ( pxQueue->uxMessagesWaiting < pxQueue->uxLength ) || ( xCopyPosition == queueOVERWRITE ) )
 8001d72:	6b3b      	ldr	r3, [r7, #48]	; 0x30
 8001d74:	6b9a      	ldr	r2, [r3, #56]	; 0x38
 8001d76:	6b3b      	ldr	r3, [r7, #48]	; 0x30
 8001d78:	6bdb      	ldr	r3, [r3, #60]	; 0x3c
 8001d7a:	429a      	cmp	r2, r3
 8001d7c:	d302      	bcc.n	8001d84 <xQueueGenericSend+0xcc>
 8001d7e:	683b      	ldr	r3, [r7, #0]
 8001d80:	2b02      	cmp	r3, #2
 8001d82:	d129      	bne.n	8001dd8 <xQueueGenericSend+0x120>
						}
					}
				}
				#else /* configUSE_QUEUE_SETS */
				{
					xYieldRequired = prvCopyDataToQueue( pxQueue, pvItemToQueue, xCopyPosition );
 8001d84:	683a      	ldr	r2, [r7, #0]
 8001d86:	68b9      	ldr	r1, [r7, #8]
 8001d88:	6b38      	ldr	r0, [r7, #48]	; 0x30
 8001d8a:	f000 f9ff 	bl	800218c <prvCopyDataToQueue>
 8001d8e:	62f8      	str	r0, [r7, #44]	; 0x2c

					/* If there was a task waiting for data to arrive on the
					queue then unblock it now. */
					if( listLIST_IS_EMPTY( &( pxQueue->xTasksWaitingToReceive ) ) == pdFALSE )
 8001d90:	6b3b      	ldr	r3, [r7, #48]	; 0x30
 8001d92:	6a5b      	ldr	r3, [r3, #36]	; 0x24
 8001d94:	2b00      	cmp	r3, #0
 8001d96:	d010      	beq.n	8001dba <xQueueGenericSend+0x102>
					{
						if( xTaskRemoveFromEventList( &( pxQueue->xTasksWaitingToReceive ) ) != pdFALSE )
 8001d98:	6b3b      	ldr	r3, [r7, #48]	; 0x30
 8001d9a:	3324      	adds	r3, #36	; 0x24
 8001d9c:	4618      	mov	r0, r3
 8001d9e:	f000 ffb3 	bl	8002d08 <xTaskRemoveFromEventList>
 8001da2:	4603      	mov	r3, r0
 8001da4:	2b00      	cmp	r3, #0
 8001da6:	d013      	beq.n	8001dd0 <xQueueGenericSend+0x118>
						{
							/* The unblocked task has a priority higher than
							our own so yield immediately.  Yes it is ok to do
							this from within the critical section - the kernel
							takes care of that. */
							queueYIELD_IF_USING_PREEMPTION();
 8001da8:	4b3f      	ldr	r3, [pc, #252]	; (8001ea8 <xQueueGenericSend+0x1f0>)
 8001daa:	f04f 5280 	mov.w	r2, #268435456	; 0x10000000
 8001dae:	601a      	str	r2, [r3, #0]
 8001db0:	f3bf 8f4f 	dsb	sy
 8001db4:	f3bf 8f6f 	isb	sy
 8001db8:	e00a      	b.n	8001dd0 <xQueueGenericSend+0x118>
						else
						{
							mtCOVERAGE_TEST_MARKER();
						}
					}
					else if( xYieldRequired != pdFALSE )
 8001dba:	6afb      	ldr	r3, [r7, #44]	; 0x2c
 8001dbc:	2b00      	cmp	r3, #0
 8001dbe:	d007      	beq.n	8001dd0 <xQueueGenericSend+0x118>
					{
						/* This path is a special case that will only get
						executed if the task was holding multiple mutexes and
						the mutexes were given back in an order that is
						different to that in which they were taken. */
						queueYIELD_IF_USING_PREEMPTION();
 8001dc0:	4b39      	ldr	r3, [pc, #228]	; (8001ea8 <xQueueGenericSend+0x1f0>)
 8001dc2:	f04f 5280 	mov.w	r2, #268435456	; 0x10000000
 8001dc6:	601a      	str	r2, [r3, #0]
 8001dc8:	f3bf 8f4f 	dsb	sy
 8001dcc:	f3bf 8f6f 	isb	sy
						mtCOVERAGE_TEST_MARKER();
					}
				}
				#endif /* configUSE_QUEUE_SETS */

				taskEXIT_CRITICAL();
 8001dd0:	f001 feca 	bl	8003b68 <vPortExitCritical>
				return pdPASS;
 8001dd4:	2301      	movs	r3, #1
 8001dd6:	e063      	b.n	8001ea0 <xQueueGenericSend+0x1e8>
			}
			else
			{
				if( xTicksToWait == ( TickType_t ) 0 )
 8001dd8:	687b      	ldr	r3, [r7, #4]
 8001dda:	2b00      	cmp	r3, #0
 8001ddc:	d103      	bne.n	8001de6 <xQueueGenericSend+0x12e>
				{
					/* The queue was full and no block time is specified (or
					the block time has expired) so leave now. */
					taskEXIT_CRITICAL();
 8001dde:	f001 fec3 	bl	8003b68 <vPortExitCritical>

					/* Return to the original privilege level before exiting
					the function. */
					traceQUEUE_SEND_FAILED( pxQueue );
					return errQUEUE_FULL;
 8001de2:	2300      	movs	r3, #0
 8001de4:	e05c      	b.n	8001ea0 <xQueueGenericSend+0x1e8>
				}
				else if( xEntryTimeSet == pdFALSE )
 8001de6:	6b7b      	ldr	r3, [r7, #52]	; 0x34
 8001de8:	2b00      	cmp	r3, #0
 8001dea:	d106      	bne.n	8001dfa <xQueueGenericSend+0x142>
				{
					/* The queue was full and a block time was specified so
					configure the timeout structure. */
					vTaskInternalSetTimeOutState( &xTimeOut );
 8001dec:	f107 0314 	add.w	r3, r7, #20
 8001df0:	4618      	mov	r0, r3
 8001df2:	f000 ffeb 	bl	8002dcc <vTaskInternalSetTimeOutState>
					xEntryTimeSet = pdTRUE;
 8001df6:	2301      	movs	r3, #1
 8001df8:	637b      	str	r3, [r7, #52]	; 0x34
					/* Entry time was already set. */
					mtCOVERAGE_TEST_MARKER();
				}
			}
		}
		taskEXIT_CRITICAL();
 8001dfa:	f001 feb5 	bl	8003b68 <vPortExitCritical>

		/* Interrupts and other tasks can send to and receive from the queue
		now the critical section has been exited. */

		vTaskSuspendAll();
 8001dfe:	f000 fd67 	bl	80028d0 <vTaskSuspendAll>
		prvLockQueue( pxQueue );
 8001e02:	f001 fe83 	bl	8003b0c <vPortEnterCritical>
 8001e06:	6b3b      	ldr	r3, [r7, #48]	; 0x30
 8001e08:	f893 3044 	ldrb.w	r3, [r3, #68]	; 0x44
 8001e0c:	b25b      	sxtb	r3, r3
 8001e0e:	f1b3 3fff 	cmp.w	r3, #4294967295
 8001e12:	d103      	bne.n	8001e1c <xQueueGenericSend+0x164>
 8001e14:	6b3b      	ldr	r3, [r7, #48]	; 0x30
 8001e16:	2200      	movs	r2, #0
 8001e18:	f883 2044 	strb.w	r2, [r3, #68]	; 0x44
 8001e1c:	6b3b      	ldr	r3, [r7, #48]	; 0x30
 8001e1e:	f893 3045 	ldrb.w	r3, [r3, #69]	; 0x45
 8001e22:	b25b      	sxtb	r3, r3
 8001e24:	f1b3 3fff 	cmp.w	r3, #4294967295
 8001e28:	d103      	bne.n	8001e32 <xQueueGenericSend+0x17a>
 8001e2a:	6b3b      	ldr	r3, [r7, #48]	; 0x30
 8001e2c:	2200      	movs	r2, #0
 8001e2e:	f883 2045 	strb.w	r2, [r3, #69]	; 0x45
 8001e32:	f001 fe99 	bl	8003b68 <vPortExitCritical>

		/* Update the timeout state to see if it has expired yet. */
		if( xTaskCheckForTimeOut( &xTimeOut, &xTicksToWait ) == pdFALSE )
 8001e36:	1d3a      	adds	r2, r7, #4
 8001e38:	f107 0314 	add.w	r3, r7, #20
 8001e3c:	4611      	mov	r1, r2
 8001e3e:	4618      	mov	r0, r3
 8001e40:	f000 ffda 	bl	8002df8 <xTaskCheckForTimeOut>
 8001e44:	4603      	mov	r3, r0
 8001e46:	2b00      	cmp	r3, #0
 8001e48:	d124      	bne.n	8001e94 <xQueueGenericSend+0x1dc>
		{
			if( prvIsQueueFull( pxQueue ) != pdFALSE )
 8001e4a:	6b38      	ldr	r0, [r7, #48]	; 0x30
 8001e4c:	f000 fa96 	bl	800237c <prvIsQueueFull>
 8001e50:	4603      	mov	r3, r0
 8001e52:	2b00      	cmp	r3, #0
 8001e54:	d018      	beq.n	8001e88 <xQueueGenericSend+0x1d0>
			{
				traceBLOCKING_ON_QUEUE_SEND( pxQueue );
				vTaskPlaceOnEventList( &( pxQueue->xTasksWaitingToSend ), xTicksToWait );
 8001e56:	6b3b      	ldr	r3, [r7, #48]	; 0x30
 8001e58:	3310      	adds	r3, #16
 8001e5a:	687a      	ldr	r2, [r7, #4]
 8001e5c:	4611      	mov	r1, r2
 8001e5e:	4618      	mov	r0, r3
 8001e60:	f000 ff04 	bl	8002c6c <vTaskPlaceOnEventList>
				/* Unlocking the queue means queue events can effect the
				event list.  It is possible that interrupts occurring now
				remove this task from the event list again - but as the
				scheduler is suspended the task will go onto the pending
				ready last instead of the actual ready list. */
				prvUnlockQueue( pxQueue );
 8001e64:	6b38      	ldr	r0, [r7, #48]	; 0x30
 8001e66:	f000 fa21 	bl	80022ac <prvUnlockQueue>
				/* Resuming the scheduler will move tasks from the pending
				ready list into the ready list - so it is feasible that this
				task is already in a ready list before it yields - in which
				case the yield will not cause a context switch unless there
				is also a higher priority task in the pending ready list. */
				if( xTaskResumeAll() == pdFALSE )
 8001e6a:	f000 fd3f 	bl	80028ec <xTaskResumeAll>
 8001e6e:	4603      	mov	r3, r0
 8001e70:	2b00      	cmp	r3, #0
 8001e72:	f47f af7c 	bne.w	8001d6e <xQueueGenericSend+0xb6>
				{
					portYIELD_WITHIN_API();
 8001e76:	4b0c      	ldr	r3, [pc, #48]	; (8001ea8 <xQueueGenericSend+0x1f0>)
 8001e78:	f04f 5280 	mov.w	r2, #268435456	; 0x10000000
 8001e7c:	601a      	str	r2, [r3, #0]
 8001e7e:	f3bf 8f4f 	dsb	sy
 8001e82:	f3bf 8f6f 	isb	sy
 8001e86:	e772      	b.n	8001d6e <xQueueGenericSend+0xb6>
				}
			}
			else
			{
				/* Try again. */
				prvUnlockQueue( pxQueue );
 8001e88:	6b38      	ldr	r0, [r7, #48]	; 0x30
 8001e8a:	f000 fa0f 	bl	80022ac <prvUnlockQueue>
				( void ) xTaskResumeAll();
 8001e8e:	f000 fd2d 	bl	80028ec <xTaskResumeAll>
 8001e92:	e76c      	b.n	8001d6e <xQueueGenericSend+0xb6>
			}
		}
		else
		{
			/* The timeout has expired. */
			prvUnlockQueue( pxQueue );
 8001e94:	6b38      	ldr	r0, [r7, #48]	; 0x30
 8001e96:	f000 fa09 	bl	80022ac <prvUnlockQueue>
			( void ) xTaskResumeAll();
 8001e9a:	f000 fd27 	bl	80028ec <xTaskResumeAll>

			traceQUEUE_SEND_FAILED( pxQueue );
			return errQUEUE_FULL;
 8001e9e:	2300      	movs	r3, #0
		}
	} /*lint -restore */
}
 8001ea0:	4618      	mov	r0, r3
 8001ea2:	3738      	adds	r7, #56	; 0x38
 8001ea4:	46bd      	mov	sp, r7
 8001ea6:	bd80      	pop	{r7, pc}
 8001ea8:	e000ed04 	.word	0xe000ed04

08001eac <xQueueGenericSendFromISR>:
/*-----------------------------------------------------------*/

BaseType_t xQueueGenericSendFromISR( QueueHandle_t xQueue, const void * const pvItemToQueue, BaseType_t * const pxHigherPriorityTaskWoken, const BaseType_t xCopyPosition )
{
 8001eac:	b580      	push	{r7, lr}
 8001eae:	b08e      	sub	sp, #56	; 0x38
 8001eb0:	af00      	add	r7, sp, #0
 8001eb2:	60f8      	str	r0, [r7, #12]
 8001eb4:	60b9      	str	r1, [r7, #8]
 8001eb6:	607a      	str	r2, [r7, #4]
 8001eb8:	603b      	str	r3, [r7, #0]
BaseType_t xReturn;
UBaseType_t uxSavedInterruptStatus;
Queue_t * const pxQueue = xQueue;
 8001eba:	68fb      	ldr	r3, [r7, #12]
 8001ebc:	633b      	str	r3, [r7, #48]	; 0x30

	configASSERT( pxQueue );
 8001ebe:	6b3b      	ldr	r3, [r7, #48]	; 0x30
 8001ec0:	2b00      	cmp	r3, #0
 8001ec2:	d109      	bne.n	8001ed8 <xQueueGenericSendFromISR+0x2c>
 8001ec4:	f04f 0350 	mov.w	r3, #80	; 0x50
 8001ec8:	f383 8811 	msr	BASEPRI, r3
 8001ecc:	f3bf 8f6f 	isb	sy
 8001ed0:	f3bf 8f4f 	dsb	sy
 8001ed4:	627b      	str	r3, [r7, #36]	; 0x24
 8001ed6:	e7fe      	b.n	8001ed6 <xQueueGenericSendFromISR+0x2a>
	configASSERT( !( ( pvItemToQueue == NULL ) && ( pxQueue->uxItemSize != ( UBaseType_t ) 0U ) ) );
 8001ed8:	68bb      	ldr	r3, [r7, #8]
 8001eda:	2b00      	cmp	r3, #0
 8001edc:	d103      	bne.n	8001ee6 <xQueueGenericSendFromISR+0x3a>
 8001ede:	6b3b      	ldr	r3, [r7, #48]	; 0x30
 8001ee0:	6c1b      	ldr	r3, [r3, #64]	; 0x40
 8001ee2:	2b00      	cmp	r3, #0
 8001ee4:	d101      	bne.n	8001eea <xQueueGenericSendFromISR+0x3e>
 8001ee6:	2301      	movs	r3, #1
 8001ee8:	e000      	b.n	8001eec <xQueueGenericSendFromISR+0x40>
 8001eea:	2300      	movs	r3, #0
 8001eec:	2b00      	cmp	r3, #0
 8001eee:	d109      	bne.n	8001f04 <xQueueGenericSendFromISR+0x58>
 8001ef0:	f04f 0350 	mov.w	r3, #80	; 0x50
 8001ef4:	f383 8811 	msr	BASEPRI, r3
 8001ef8:	f3bf 8f6f 	isb	sy
 8001efc:	f3bf 8f4f 	dsb	sy
 8001f00:	623b      	str	r3, [r7, #32]
 8001f02:	e7fe      	b.n	8001f02 <xQueueGenericSendFromISR+0x56>
	configASSERT( !( ( xCopyPosition == queueOVERWRITE ) && ( pxQueue->uxLength != 1 ) ) );
 8001f04:	683b      	ldr	r3, [r7, #0]
 8001f06:	2b02      	cmp	r3, #2
 8001f08:	d103      	bne.n	8001f12 <xQueueGenericSendFromISR+0x66>
 8001f0a:	6b3b      	ldr	r3, [r7, #48]	; 0x30
 8001f0c:	6bdb      	ldr	r3, [r3, #60]	; 0x3c
 8001f0e:	2b01      	cmp	r3, #1
 8001f10:	d101      	bne.n	8001f16 <xQueueGenericSendFromISR+0x6a>
 8001f12:	2301      	movs	r3, #1
 8001f14:	e000      	b.n	8001f18 <xQueueGenericSendFromISR+0x6c>
 8001f16:	2300      	movs	r3, #0
 8001f18:	2b00      	cmp	r3, #0
 8001f1a:	d109      	bne.n	8001f30 <xQueueGenericSendFromISR+0x84>
 8001f1c:	f04f 0350 	mov.w	r3, #80	; 0x50
 8001f20:	f383 8811 	msr	BASEPRI, r3
 8001f24:	f3bf 8f6f 	isb	sy
 8001f28:	f3bf 8f4f 	dsb	sy
 8001f2c:	61fb      	str	r3, [r7, #28]
 8001f2e:	e7fe      	b.n	8001f2e <xQueueGenericSendFromISR+0x82>
	that have been assigned a priority at or (logically) below the maximum
	system call	interrupt priority.  FreeRTOS maintains a separate interrupt
	safe API to ensure interrupt entry is as fast and as simple as possible.
	More information (albeit Cortex-M specific) is provided on the following
	link: http://www.freertos.org/RTOS-Cortex-M3-M4.html */
	portASSERT_IF_INTERRUPT_PRIORITY_INVALID();
 8001f30:	f001 fec8 	bl	8003cc4 <vPortValidateInterruptPriority>

portFORCE_INLINE static uint32_t ulPortRaiseBASEPRI( void )
{
uint32_t ulOriginalBASEPRI, ulNewBASEPRI;

	__asm volatile
 8001f34:	f3ef 8211 	mrs	r2, BASEPRI
 8001f38:	f04f 0350 	mov.w	r3, #80	; 0x50
 8001f3c:	f383 8811 	msr	BASEPRI, r3
 8001f40:	f3bf 8f6f 	isb	sy
 8001f44:	f3bf 8f4f 	dsb	sy
 8001f48:	61ba      	str	r2, [r7, #24]
 8001f4a:	617b      	str	r3, [r7, #20]
		:"=r" (ulOriginalBASEPRI), "=r" (ulNewBASEPRI) : "i" ( configMAX_SYSCALL_INTERRUPT_PRIORITY ) : "memory"
	);

	/* This return will not be reached but is necessary to prevent compiler
	warnings. */
	return ulOriginalBASEPRI;
 8001f4c:	69bb      	ldr	r3, [r7, #24]
	/* Similar to xQueueGenericSend, except without blocking if there is no room
	in the queue.  Also don't directly wake a task that was blocked on a queue
	read, instead return a flag to say whether a context switch is required or
	not (i.e. has a task with a higher priority than us been woken by this
	post). */
	uxSavedInterruptStatus = portSET_INTERRUPT_MASK_FROM_ISR();
 8001f4e:	62fb      	str	r3, [r7, #44]	; 0x2c
	{
		if( ( pxQueue->uxMessagesWaiting < pxQueue->uxLength ) || ( xCopyPosition == queueOVERWRITE ) )
 8001f50:	6b3b      	ldr	r3, [r7, #48]	; 0x30
 8001f52:	6b9a      	ldr	r2, [r3, #56]	; 0x38
 8001f54:	6b3b      	ldr	r3, [r7, #48]	; 0x30
 8001f56:	6bdb      	ldr	r3, [r3, #60]	; 0x3c
 8001f58:	429a      	cmp	r2, r3
 8001f5a:	d302      	bcc.n	8001f62 <xQueueGenericSendFromISR+0xb6>
 8001f5c:	683b      	ldr	r3, [r7, #0]
 8001f5e:	2b02      	cmp	r3, #2
 8001f60:	d12c      	bne.n	8001fbc <xQueueGenericSendFromISR+0x110>
		{
			const int8_t cTxLock = pxQueue->cTxLock;
 8001f62:	6b3b      	ldr	r3, [r7, #48]	; 0x30
 8001f64:	f893 3045 	ldrb.w	r3, [r3, #69]	; 0x45
 8001f68:	f887 302b 	strb.w	r3, [r7, #43]	; 0x2b
			/* Semaphores use xQueueGiveFromISR(), so pxQueue will not be a
			semaphore or mutex.  That means prvCopyDataToQueue() cannot result
			in a task disinheriting a priority and prvCopyDataToQueue() can be
			called here even though the disinherit function does not check if
			the scheduler is suspended before accessing the ready lists. */
			( void ) prvCopyDataToQueue( pxQueue, pvItemToQueue, xCopyPosition );
 8001f6c:	683a      	ldr	r2, [r7, #0]
 8001f6e:	68b9      	ldr	r1, [r7, #8]
 8001f70:	6b38      	ldr	r0, [r7, #48]	; 0x30
 8001f72:	f000 f90b 	bl	800218c <prvCopyDataToQueue>

			/* The event list is not altered if the queue is locked.  This will
			be done when the queue is unlocked later. */
			if( cTxLock == queueUNLOCKED )
 8001f76:	f997 302b 	ldrsb.w	r3, [r7, #43]	; 0x2b
 8001f7a:	f1b3 3fff 	cmp.w	r3, #4294967295
 8001f7e:	d112      	bne.n	8001fa6 <xQueueGenericSendFromISR+0xfa>
						}
					}
				}
				#else /* configUSE_QUEUE_SETS */
				{
					if( listLIST_IS_EMPTY( &( pxQueue->xTasksWaitingToReceive ) ) == pdFALSE )
 8001f80:	6b3b      	ldr	r3, [r7, #48]	; 0x30
 8001f82:	6a5b      	ldr	r3, [r3, #36]	; 0x24
 8001f84:	2b00      	cmp	r3, #0
 8001f86:	d016      	beq.n	8001fb6 <xQueueGenericSendFromISR+0x10a>
					{
						if( xTaskRemoveFromEventList( &( pxQueue->xTasksWaitingToReceive ) ) != pdFALSE )
 8001f88:	6b3b      	ldr	r3, [r7, #48]	; 0x30
 8001f8a:	3324      	adds	r3, #36	; 0x24
 8001f8c:	4618      	mov	r0, r3
 8001f8e:	f000 febb 	bl	8002d08 <xTaskRemoveFromEventList>
 8001f92:	4603      	mov	r3, r0
 8001f94:	2b00      	cmp	r3, #0
 8001f96:	d00e      	beq.n	8001fb6 <xQueueGenericSendFromISR+0x10a>
						{
							/* The task waiting has a higher priority so record that a
							context	switch is required. */
							if( pxHigherPriorityTaskWoken != NULL )
 8001f98:	687b      	ldr	r3, [r7, #4]
 8001f9a:	2b00      	cmp	r3, #0
 8001f9c:	d00b      	beq.n	8001fb6 <xQueueGenericSendFromISR+0x10a>
							{
								*pxHigherPriorityTaskWoken = pdTRUE;
 8001f9e:	687b      	ldr	r3, [r7, #4]
 8001fa0:	2201      	movs	r2, #1
 8001fa2:	601a      	str	r2, [r3, #0]
 8001fa4:	e007      	b.n	8001fb6 <xQueueGenericSendFromISR+0x10a>
			}
			else
			{
				/* Increment the lock count so the task that unlocks the queue
				knows that data was posted while it was locked. */
				pxQueue->cTxLock = ( int8_t ) ( cTxLock + 1 );
 8001fa6:	f897 302b 	ldrb.w	r3, [r7, #43]	; 0x2b
 8001faa:	3301      	adds	r3, #1
 8001fac:	b2db      	uxtb	r3, r3
 8001fae:	b25a      	sxtb	r2, r3
 8001fb0:	6b3b      	ldr	r3, [r7, #48]	; 0x30
 8001fb2:	f883 2045 	strb.w	r2, [r3, #69]	; 0x45
			}

			xReturn = pdPASS;
 8001fb6:	2301      	movs	r3, #1
 8001fb8:	637b      	str	r3, [r7, #52]	; 0x34
		{
 8001fba:	e001      	b.n	8001fc0 <xQueueGenericSendFromISR+0x114>
		}
		else
		{
			traceQUEUE_SEND_FROM_ISR_FAILED( pxQueue );
			xReturn = errQUEUE_FULL;
 8001fbc:	2300      	movs	r3, #0
 8001fbe:	637b      	str	r3, [r7, #52]	; 0x34
 8001fc0:	6afb      	ldr	r3, [r7, #44]	; 0x2c
 8001fc2:	613b      	str	r3, [r7, #16]
}
/*-----------------------------------------------------------*/

portFORCE_INLINE static void vPortSetBASEPRI( uint32_t ulNewMaskValue )
{
	__asm volatile
 8001fc4:	693b      	ldr	r3, [r7, #16]
 8001fc6:	f383 8811 	msr	BASEPRI, r3
		}
	}
	portCLEAR_INTERRUPT_MASK_FROM_ISR( uxSavedInterruptStatus );

	return xReturn;
 8001fca:	6b7b      	ldr	r3, [r7, #52]	; 0x34
}
 8001fcc:	4618      	mov	r0, r3
 8001fce:	3738      	adds	r7, #56	; 0x38
 8001fd0:	46bd      	mov	sp, r7
 8001fd2:	bd80      	pop	{r7, pc}

08001fd4 <xQueueReceive>:
	return xReturn;
}
/*-----------------------------------------------------------*/

BaseType_t xQueueReceive( QueueHandle_t xQueue, void * const pvBuffer, TickType_t xTicksToWait )
{
 8001fd4:	b580      	push	{r7, lr}
 8001fd6:	b08c      	sub	sp, #48	; 0x30
 8001fd8:	af00      	add	r7, sp, #0
 8001fda:	60f8      	str	r0, [r7, #12]
 8001fdc:	60b9      	str	r1, [r7, #8]
 8001fde:	607a      	str	r2, [r7, #4]
BaseType_t xEntryTimeSet = pdFALSE;
 8001fe0:	2300      	movs	r3, #0
 8001fe2:	62fb      	str	r3, [r7, #44]	; 0x2c
TimeOut_t xTimeOut;
Queue_t * const pxQueue = xQueue;
 8001fe4:	68fb      	ldr	r3, [r7, #12]
 8001fe6:	62bb      	str	r3, [r7, #40]	; 0x28

	/* Check the pointer is not NULL. */
	configASSERT( ( pxQueue ) );
 8001fe8:	6abb      	ldr	r3, [r7, #40]	; 0x28
 8001fea:	2b00      	cmp	r3, #0
 8001fec:	d109      	bne.n	8002002 <xQueueReceive+0x2e>
	__asm volatile
 8001fee:	f04f 0350 	mov.w	r3, #80	; 0x50
 8001ff2:	f383 8811 	msr	BASEPRI, r3
 8001ff6:	f3bf 8f6f 	isb	sy
 8001ffa:	f3bf 8f4f 	dsb	sy
 8001ffe:	623b      	str	r3, [r7, #32]
 8002000:	e7fe      	b.n	8002000 <xQueueReceive+0x2c>

	/* The buffer into which data is received can only be NULL if the data size
	is zero (so no data is copied into the buffer. */
	configASSERT( !( ( ( pvBuffer ) == NULL ) && ( ( pxQueue )->uxItemSize != ( UBaseType_t ) 0U ) ) );
 8002002:	68bb      	ldr	r3, [r7, #8]
 8002004:	2b00      	cmp	r3, #0
 8002006:	d103      	bne.n	8002010 <xQueueReceive+0x3c>
 8002008:	6abb      	ldr	r3, [r7, #40]	; 0x28
 800200a:	6c1b      	ldr	r3, [r3, #64]	; 0x40
 800200c:	2b00      	cmp	r3, #0
 800200e:	d101      	bne.n	8002014 <xQueueReceive+0x40>
 8002010:	2301      	movs	r3, #1
 8002012:	e000      	b.n	8002016 <xQueueReceive+0x42>
 8002014:	2300      	movs	r3, #0
 8002016:	2b00      	cmp	r3, #0
 8002018:	d109      	bne.n	800202e <xQueueReceive+0x5a>
 800201a:	f04f 0350 	mov.w	r3, #80	; 0x50
 800201e:	f383 8811 	msr	BASEPRI, r3
 8002022:	f3bf 8f6f 	isb	sy
 8002026:	f3bf 8f4f 	dsb	sy
 800202a:	61fb      	str	r3, [r7, #28]
 800202c:	e7fe      	b.n	800202c <xQueueReceive+0x58>

	/* Cannot block if the scheduler is suspended. */
	#if ( ( INCLUDE_xTaskGetSchedulerState == 1 ) || ( configUSE_TIMERS == 1 ) )
	{
		configASSERT( !( ( xTaskGetSchedulerState() == taskSCHEDULER_SUSPENDED ) && ( xTicksToWait != 0 ) ) );
 800202e:	f001 f821 	bl	8003074 <xTaskGetSchedulerState>
 8002032:	4603      	mov	r3, r0
 8002034:	2b00      	cmp	r3, #0
 8002036:	d102      	bne.n	800203e <xQueueReceive+0x6a>
 8002038:	687b      	ldr	r3, [r7, #4]
 800203a:	2b00      	cmp	r3, #0
 800203c:	d101      	bne.n	8002042 <xQueueReceive+0x6e>
 800203e:	2301      	movs	r3, #1
 8002040:	e000      	b.n	8002044 <xQueueReceive+0x70>
 8002042:	2300      	movs	r3, #0
 8002044:	2b00      	cmp	r3, #0
 8002046:	d109      	bne.n	800205c <xQueueReceive+0x88>
 8002048:	f04f 0350 	mov.w	r3, #80	; 0x50
 800204c:	f383 8811 	msr	BASEPRI, r3
 8002050:	f3bf 8f6f 	isb	sy
 8002054:	f3bf 8f4f 	dsb	sy
 8002058:	61bb      	str	r3, [r7, #24]
 800205a:	e7fe      	b.n	800205a <xQueueReceive+0x86>
	/*lint -save -e904  This function relaxes the coding standard somewhat to
	allow return statements within the function itself.  This is done in the
	interest of execution time efficiency. */
	for( ;; )
	{
		taskENTER_CRITICAL();
 800205c:	f001 fd56 	bl	8003b0c <vPortEnterCritical>
		{
			const UBaseType_t uxMessagesWaiting = pxQueue->uxMessagesWaiting;
 8002060:	6abb      	ldr	r3, [r7, #40]	; 0x28
 8002062:	6b9b      	ldr	r3, [r3, #56]	; 0x38
 8002064:	627b      	str	r3, [r7, #36]	; 0x24

			/* Is there data in the queue now?  To be running the calling task
			must be the highest priority task wanting to access the queue. */
			if( uxMessagesWaiting > ( UBaseType_t ) 0 )
 8002066:	6a7b      	ldr	r3, [r7, #36]	; 0x24
 8002068:	2b00      	cmp	r3, #0
 800206a:	d01f      	beq.n	80020ac <xQueueReceive+0xd8>
			{
				/* Data available, remove one item. */
				prvCopyDataFromQueue( pxQueue, pvBuffer );
 800206c:	68b9      	ldr	r1, [r7, #8]
 800206e:	6ab8      	ldr	r0, [r7, #40]	; 0x28
 8002070:	f000 f8f6 	bl	8002260 <prvCopyDataFromQueue>
				traceQUEUE_RECEIVE( pxQueue );
				pxQueue->uxMessagesWaiting = uxMessagesWaiting - ( UBaseType_t ) 1;
 8002074:	6a7b      	ldr	r3, [r7, #36]	; 0x24
 8002076:	1e5a      	subs	r2, r3, #1
 8002078:	6abb      	ldr	r3, [r7, #40]	; 0x28
 800207a:	639a      	str	r2, [r3, #56]	; 0x38

				/* There is now space in the queue, were any tasks waiting to
				post to the queue?  If so, unblock the highest priority waiting
				task. */
				if( listLIST_IS_EMPTY( &( pxQueue->xTasksWaitingToSend ) ) == pdFALSE )
 800207c:	6abb      	ldr	r3, [r7, #40]	; 0x28
 800207e:	691b      	ldr	r3, [r3, #16]
 8002080:	2b00      	cmp	r3, #0
 8002082:	d00f      	beq.n	80020a4 <xQueueReceive+0xd0>
				{
					if( xTaskRemoveFromEventList( &( pxQueue->xTasksWaitingToSend ) ) != pdFALSE )
 8002084:	6abb      	ldr	r3, [r7, #40]	; 0x28
 8002086:	3310      	adds	r3, #16
 8002088:	4618      	mov	r0, r3
 800208a:	f000 fe3d 	bl	8002d08 <xTaskRemoveFromEventList>
 800208e:	4603      	mov	r3, r0
 8002090:	2b00      	cmp	r3, #0
 8002092:	d007      	beq.n	80020a4 <xQueueReceive+0xd0>
					{
						queueYIELD_IF_USING_PREEMPTION();
 8002094:	4b3c      	ldr	r3, [pc, #240]	; (8002188 <xQueueReceive+0x1b4>)
 8002096:	f04f 5280 	mov.w	r2, #268435456	; 0x10000000
 800209a:	601a      	str	r2, [r3, #0]
 800209c:	f3bf 8f4f 	dsb	sy
 80020a0:	f3bf 8f6f 	isb	sy
				else
				{
					mtCOVERAGE_TEST_MARKER();
				}

				taskEXIT_CRITICAL();
 80020a4:	f001 fd60 	bl	8003b68 <vPortExitCritical>
				return pdPASS;
 80020a8:	2301      	movs	r3, #1
 80020aa:	e069      	b.n	8002180 <xQueueReceive+0x1ac>
			}
			else
			{
				if( xTicksToWait == ( TickType_t ) 0 )
 80020ac:	687b      	ldr	r3, [r7, #4]
 80020ae:	2b00      	cmp	r3, #0
 80020b0:	d103      	bne.n	80020ba <xQueueReceive+0xe6>
				{
					/* The queue was empty and no block time is specified (or
					the block time has expired) so leave now. */
					taskEXIT_CRITICAL();
 80020b2:	f001 fd59 	bl	8003b68 <vPortExitCritical>
					traceQUEUE_RECEIVE_FAILED( pxQueue );
					return errQUEUE_EMPTY;
 80020b6:	2300      	movs	r3, #0
 80020b8:	e062      	b.n	8002180 <xQueueReceive+0x1ac>
				}
				else if( xEntryTimeSet == pdFALSE )
 80020ba:	6afb      	ldr	r3, [r7, #44]	; 0x2c
 80020bc:	2b00      	cmp	r3, #0
 80020be:	d106      	bne.n	80020ce <xQueueReceive+0xfa>
				{
					/* The queue was empty and a block time was specified so
					configure the timeout structure. */
					vTaskInternalSetTimeOutState( &xTimeOut );
 80020c0:	f107 0310 	add.w	r3, r7, #16
 80020c4:	4618      	mov	r0, r3
 80020c6:	f000 fe81 	bl	8002dcc <vTaskInternalSetTimeOutState>
					xEntryTimeSet = pdTRUE;
 80020ca:	2301      	movs	r3, #1
 80020cc:	62fb      	str	r3, [r7, #44]	; 0x2c
					/* Entry time was already set. */
					mtCOVERAGE_TEST_MARKER();
				}
			}
		}
		taskEXIT_CRITICAL();
 80020ce:	f001 fd4b 	bl	8003b68 <vPortExitCritical>

		/* Interrupts and other tasks can send to and receive from the queue
		now the critical section has been exited. */

		vTaskSuspendAll();
 80020d2:	f000 fbfd 	bl	80028d0 <vTaskSuspendAll>
		prvLockQueue( pxQueue );
 80020d6:	f001 fd19 	bl	8003b0c <vPortEnterCritical>
 80020da:	6abb      	ldr	r3, [r7, #40]	; 0x28
 80020dc:	f893 3044 	ldrb.w	r3, [r3, #68]	; 0x44
 80020e0:	b25b      	sxtb	r3, r3
 80020e2:	f1b3 3fff 	cmp.w	r3, #4294967295
 80020e6:	d103      	bne.n	80020f0 <xQueueReceive+0x11c>
 80020e8:	6abb      	ldr	r3, [r7, #40]	; 0x28
 80020ea:	2200      	movs	r2, #0
 80020ec:	f883 2044 	strb.w	r2, [r3, #68]	; 0x44
 80020f0:	6abb      	ldr	r3, [r7, #40]	; 0x28
 80020f2:	f893 3045 	ldrb.w	r3, [r3, #69]	; 0x45
 80020f6:	b25b      	sxtb	r3, r3
 80020f8:	f1b3 3fff 	cmp.w	r3, #4294967295
 80020fc:	d103      	bne.n	8002106 <xQueueReceive+0x132>
 80020fe:	6abb      	ldr	r3, [r7, #40]	; 0x28
 8002100:	2200      	movs	r2, #0
 8002102:	f883 2045 	strb.w	r2, [r3, #69]	; 0x45
 8002106:	f001 fd2f 	bl	8003b68 <vPortExitCritical>

		/* Update the timeout state to see if it has expired yet. */
		if( xTaskCheckForTimeOut( &xTimeOut, &xTicksToWait ) == pdFALSE )
 800210a:	1d3a      	adds	r2, r7, #4
 800210c:	f107 0310 	add.w	r3, r7, #16
 8002110:	4611      	mov	r1, r2
 8002112:	4618      	mov	r0, r3
 8002114:	f000 fe70 	bl	8002df8 <xTaskCheckForTimeOut>
 8002118:	4603      	mov	r3, r0
 800211a:	2b00      	cmp	r3, #0
 800211c:	d123      	bne.n	8002166 <xQueueReceive+0x192>
		{
			/* The timeout has not expired.  If the queue is still empty place
			the task on the list of tasks waiting to receive from the queue. */
			if( prvIsQueueEmpty( pxQueue ) != pdFALSE )
 800211e:	6ab8      	ldr	r0, [r7, #40]	; 0x28
 8002120:	f000 f916 	bl	8002350 <prvIsQueueEmpty>
 8002124:	4603      	mov	r3, r0
 8002126:	2b00      	cmp	r3, #0
 8002128:	d017      	beq.n	800215a <xQueueReceive+0x186>
			{
				traceBLOCKING_ON_QUEUE_RECEIVE( pxQueue );
				vTaskPlaceOnEventList( &( pxQueue->xTasksWaitingToReceive ), xTicksToWait );
 800212a:	6abb      	ldr	r3, [r7, #40]	; 0x28
 800212c:	3324      	adds	r3, #36	; 0x24
 800212e:	687a      	ldr	r2, [r7, #4]
 8002130:	4611      	mov	r1, r2
 8002132:	4618      	mov	r0, r3
 8002134:	f000 fd9a 	bl	8002c6c <vTaskPlaceOnEventList>
				prvUnlockQueue( pxQueue );
 8002138:	6ab8      	ldr	r0, [r7, #40]	; 0x28
 800213a:	f000 f8b7 	bl	80022ac <prvUnlockQueue>
				if( xTaskResumeAll() == pdFALSE )
 800213e:	f000 fbd5 	bl	80028ec <xTaskResumeAll>
 8002142:	4603      	mov	r3, r0
 8002144:	2b00      	cmp	r3, #0
 8002146:	d189      	bne.n	800205c <xQueueReceive+0x88>
				{
					portYIELD_WITHIN_API();
 8002148:	4b0f      	ldr	r3, [pc, #60]	; (8002188 <xQueueReceive+0x1b4>)
 800214a:	f04f 5280 	mov.w	r2, #268435456	; 0x10000000
 800214e:	601a      	str	r2, [r3, #0]
 8002150:	f3bf 8f4f 	dsb	sy
 8002154:	f3bf 8f6f 	isb	sy
 8002158:	e780      	b.n	800205c <xQueueReceive+0x88>
			}
			else
			{
				/* The queue contains data again.  Loop back to try and read the
				data. */
				prvUnlockQueue( pxQueue );
 800215a:	6ab8      	ldr	r0, [r7, #40]	; 0x28
 800215c:	f000 f8a6 	bl	80022ac <prvUnlockQueue>
				( void ) xTaskResumeAll();
 8002160:	f000 fbc4 	bl	80028ec <xTaskResumeAll>
 8002164:	e77a      	b.n	800205c <xQueueReceive+0x88>
		}
		else
		{
			/* Timed out.  If there is no data in the queue exit, otherwise loop
			back and attempt to read the data. */
			prvUnlockQueue( pxQueue );
 8002166:	6ab8      	ldr	r0, [r7, #40]	; 0x28
 8002168:	f000 f8a0 	bl	80022ac <prvUnlockQueue>
			( void ) xTaskResumeAll();
 800216c:	f000 fbbe 	bl	80028ec <xTaskResumeAll>

			if( prvIsQueueEmpty( pxQueue ) != pdFALSE )
 8002170:	6ab8      	ldr	r0, [r7, #40]	; 0x28
 8002172:	f000 f8ed 	bl	8002350 <prvIsQueueEmpty>
 8002176:	4603      	mov	r3, r0
 8002178:	2b00      	cmp	r3, #0
 800217a:	f43f af6f 	beq.w	800205c <xQueueReceive+0x88>
			{
				traceQUEUE_RECEIVE_FAILED( pxQueue );
				return errQUEUE_EMPTY;
 800217e:	2300      	movs	r3, #0
			{
				mtCOVERAGE_TEST_MARKER();
			}
		}
	} /*lint -restore */
}
 8002180:	4618      	mov	r0, r3
 8002182:	3730      	adds	r7, #48	; 0x30
 8002184:	46bd      	mov	sp, r7
 8002186:	bd80      	pop	{r7, pc}
 8002188:	e000ed04 	.word	0xe000ed04

0800218c <prvCopyDataToQueue>:

#endif /* configUSE_MUTEXES */
/*-----------------------------------------------------------*/

static BaseType_t prvCopyDataToQueue( Queue_t * const pxQueue, const void *pvItemToQueue, const BaseType_t xPosition )
{
 800218c:	b580      	push	{r7, lr}
 800218e:	b086      	sub	sp, #24
 8002190:	af00      	add	r7, sp, #0
 8002192:	60f8      	str	r0, [r7, #12]
 8002194:	60b9      	str	r1, [r7, #8]
 8002196:	607a      	str	r2, [r7, #4]
BaseType_t xReturn = pdFALSE;
 8002198:	2300      	movs	r3, #0
 800219a:	617b      	str	r3, [r7, #20]
UBaseType_t uxMessagesWaiting;

	/* This function is called from a critical section. */

	uxMessagesWaiting = pxQueue->uxMessagesWaiting;
 800219c:	68fb      	ldr	r3, [r7, #12]
 800219e:	6b9b      	ldr	r3, [r3, #56]	; 0x38
 80021a0:	613b      	str	r3, [r7, #16]

	if( pxQueue->uxItemSize == ( UBaseType_t ) 0 )
 80021a2:	68fb      	ldr	r3, [r7, #12]
 80021a4:	6c1b      	ldr	r3, [r3, #64]	; 0x40
 80021a6:	2b00      	cmp	r3, #0
 80021a8:	d10d      	bne.n	80021c6 <prvCopyDataToQueue+0x3a>
	{
		#if ( configUSE_MUTEXES == 1 )
		{
			if( pxQueue->uxQueueType == queueQUEUE_IS_MUTEX )
 80021aa:	68fb      	ldr	r3, [r7, #12]
 80021ac:	681b      	ldr	r3, [r3, #0]
 80021ae:	2b00      	cmp	r3, #0
 80021b0:	d14d      	bne.n	800224e <prvCopyDataToQueue+0xc2>
			{
				/* The mutex is no longer being held. */
				xReturn = xTaskPriorityDisinherit( pxQueue->u.xSemaphore.xMutexHolder );
 80021b2:	68fb      	ldr	r3, [r7, #12]
 80021b4:	689b      	ldr	r3, [r3, #8]
 80021b6:	4618      	mov	r0, r3
 80021b8:	f000 ff7a 	bl	80030b0 <xTaskPriorityDisinherit>
 80021bc:	6178      	str	r0, [r7, #20]
				pxQueue->u.xSemaphore.xMutexHolder = NULL;
 80021be:	68fb      	ldr	r3, [r7, #12]
 80021c0:	2200      	movs	r2, #0
 80021c2:	609a      	str	r2, [r3, #8]
 80021c4:	e043      	b.n	800224e <prvCopyDataToQueue+0xc2>
				mtCOVERAGE_TEST_MARKER();
			}
		}
		#endif /* configUSE_MUTEXES */
	}
	else if( xPosition == queueSEND_TO_BACK )
 80021c6:	687b      	ldr	r3, [r7, #4]
 80021c8:	2b00      	cmp	r3, #0
 80021ca:	d119      	bne.n	8002200 <prvCopyDataToQueue+0x74>
	{
		( void ) memcpy( ( void * ) pxQueue->pcWriteTo, pvItemToQueue, ( size_t ) pxQueue->uxItemSize ); /*lint !e961 !e418 !e9087 MISRA exception as the casts are only redundant for some ports, plus previous logic ensures a null pointer can only be passed to memcpy() if the copy size is 0.  Cast to void required by function signature and safe as no alignment requirement and copy length specified in bytes. */
 80021cc:	68fb      	ldr	r3, [r7, #12]
 80021ce:	6858      	ldr	r0, [r3, #4]
 80021d0:	68fb      	ldr	r3, [r7, #12]
 80021d2:	6c1b      	ldr	r3, [r3, #64]	; 0x40
 80021d4:	461a      	mov	r2, r3
 80021d6:	68b9      	ldr	r1, [r7, #8]
 80021d8:	f001 ffac 	bl	8004134 <memcpy>
		pxQueue->pcWriteTo += pxQueue->uxItemSize; /*lint !e9016 Pointer arithmetic on char types ok, especially in this use case where it is the clearest way of conveying intent. */
 80021dc:	68fb      	ldr	r3, [r7, #12]
 80021de:	685a      	ldr	r2, [r3, #4]
 80021e0:	68fb      	ldr	r3, [r7, #12]
 80021e2:	6c1b      	ldr	r3, [r3, #64]	; 0x40
 80021e4:	441a      	add	r2, r3
 80021e6:	68fb      	ldr	r3, [r7, #12]
 80021e8:	605a      	str	r2, [r3, #4]
		if( pxQueue->pcWriteTo >= pxQueue->u.xQueue.pcTail ) /*lint !e946 MISRA exception justified as comparison of pointers is the cleanest solution. */
 80021ea:	68fb      	ldr	r3, [r7, #12]
 80021ec:	685a      	ldr	r2, [r3, #4]
 80021ee:	68fb      	ldr	r3, [r7, #12]
 80021f0:	689b      	ldr	r3, [r3, #8]
 80021f2:	429a      	cmp	r2, r3
 80021f4:	d32b      	bcc.n	800224e <prvCopyDataToQueue+0xc2>
		{
			pxQueue->pcWriteTo = pxQueue->pcHead;
 80021f6:	68fb      	ldr	r3, [r7, #12]
 80021f8:	681a      	ldr	r2, [r3, #0]
 80021fa:	68fb      	ldr	r3, [r7, #12]
 80021fc:	605a      	str	r2, [r3, #4]
 80021fe:	e026      	b.n	800224e <prvCopyDataToQueue+0xc2>
			mtCOVERAGE_TEST_MARKER();
		}
	}
	else
	{
		( void ) memcpy( ( void * ) pxQueue->u.xQueue.pcReadFrom, pvItemToQueue, ( size_t ) pxQueue->uxItemSize ); /*lint !e961 !e9087 !e418 MISRA exception as the casts are only redundant for some ports.  Cast to void required by function signature and safe as no alignment requirement and copy length specified in bytes.  Assert checks null pointer only used when length is 0. */
 8002200:	68fb      	ldr	r3, [r7, #12]
 8002202:	68d8      	ldr	r0, [r3, #12]
 8002204:	68fb      	ldr	r3, [r7, #12]
 8002206:	6c1b      	ldr	r3, [r3, #64]	; 0x40
 8002208:	461a      	mov	r2, r3
 800220a:	68b9      	ldr	r1, [r7, #8]
 800220c:	f001 ff92 	bl	8004134 <memcpy>
		pxQueue->u.xQueue.pcReadFrom -= pxQueue->uxItemSize;
 8002210:	68fb      	ldr	r3, [r7, #12]
 8002212:	68da      	ldr	r2, [r3, #12]
 8002214:	68fb      	ldr	r3, [r7, #12]
 8002216:	6c1b      	ldr	r3, [r3, #64]	; 0x40
 8002218:	425b      	negs	r3, r3
 800221a:	441a      	add	r2, r3
 800221c:	68fb      	ldr	r3, [r7, #12]
 800221e:	60da      	str	r2, [r3, #12]
		if( pxQueue->u.xQueue.pcReadFrom < pxQueue->pcHead ) /*lint !e946 MISRA exception justified as comparison of pointers is the cleanest solution. */
 8002220:	68fb      	ldr	r3, [r7, #12]
 8002222:	68da      	ldr	r2, [r3, #12]
 8002224:	68fb      	ldr	r3, [r7, #12]
 8002226:	681b      	ldr	r3, [r3, #0]
 8002228:	429a      	cmp	r2, r3
 800222a:	d207      	bcs.n	800223c <prvCopyDataToQueue+0xb0>
		{
			pxQueue->u.xQueue.pcReadFrom = ( pxQueue->u.xQueue.pcTail - pxQueue->uxItemSize );
 800222c:	68fb      	ldr	r3, [r7, #12]
 800222e:	689a      	ldr	r2, [r3, #8]
 8002230:	68fb      	ldr	r3, [r7, #12]
 8002232:	6c1b      	ldr	r3, [r3, #64]	; 0x40
 8002234:	425b      	negs	r3, r3
 8002236:	441a      	add	r2, r3
 8002238:	68fb      	ldr	r3, [r7, #12]
 800223a:	60da      	str	r2, [r3, #12]
		else
		{
			mtCOVERAGE_TEST_MARKER();
		}

		if( xPosition == queueOVERWRITE )
 800223c:	687b      	ldr	r3, [r7, #4]
 800223e:	2b02      	cmp	r3, #2
 8002240:	d105      	bne.n	800224e <prvCopyDataToQueue+0xc2>
		{
			if( uxMessagesWaiting > ( UBaseType_t ) 0 )
 8002242:	693b      	ldr	r3, [r7, #16]
 8002244:	2b00      	cmp	r3, #0
 8002246:	d002      	beq.n	800224e <prvCopyDataToQueue+0xc2>
			{
				/* An item is not being added but overwritten, so subtract
				one from the recorded number of items in the queue so when
				one is added again below the number of recorded items remains
				correct. */
				--uxMessagesWaiting;
 8002248:	693b      	ldr	r3, [r7, #16]
 800224a:	3b01      	subs	r3, #1
 800224c:	613b      	str	r3, [r7, #16]
		{
			mtCOVERAGE_TEST_MARKER();
		}
	}

	pxQueue->uxMessagesWaiting = uxMessagesWaiting + ( UBaseType_t ) 1;
 800224e:	693b      	ldr	r3, [r7, #16]
 8002250:	1c5a      	adds	r2, r3, #1
 8002252:	68fb      	ldr	r3, [r7, #12]
 8002254:	639a      	str	r2, [r3, #56]	; 0x38

	return xReturn;
 8002256:	697b      	ldr	r3, [r7, #20]
}
 8002258:	4618      	mov	r0, r3
 800225a:	3718      	adds	r7, #24
 800225c:	46bd      	mov	sp, r7
 800225e:	bd80      	pop	{r7, pc}

08002260 <prvCopyDataFromQueue>:
/*-----------------------------------------------------------*/

static void prvCopyDataFromQueue( Queue_t * const pxQueue, void * const pvBuffer )
{
 8002260:	b580      	push	{r7, lr}
 8002262:	b082      	sub	sp, #8
 8002264:	af00      	add	r7, sp, #0
 8002266:	6078      	str	r0, [r7, #4]
 8002268:	6039      	str	r1, [r7, #0]
	if( pxQueue->uxItemSize != ( UBaseType_t ) 0 )
 800226a:	687b      	ldr	r3, [r7, #4]
 800226c:	6c1b      	ldr	r3, [r3, #64]	; 0x40
 800226e:	2b00      	cmp	r3, #0
 8002270:	d018      	beq.n	80022a4 <prvCopyDataFromQueue+0x44>
	{
		pxQueue->u.xQueue.pcReadFrom += pxQueue->uxItemSize; /*lint !e9016 Pointer arithmetic on char types ok, especially in this use case where it is the clearest way of conveying intent. */
 8002272:	687b      	ldr	r3, [r7, #4]
 8002274:	68da      	ldr	r2, [r3, #12]
 8002276:	687b      	ldr	r3, [r7, #4]
 8002278:	6c1b      	ldr	r3, [r3, #64]	; 0x40
 800227a:	441a      	add	r2, r3
 800227c:	687b      	ldr	r3, [r7, #4]
 800227e:	60da      	str	r2, [r3, #12]
		if( pxQueue->u.xQueue.pcReadFrom >= pxQueue->u.xQueue.pcTail ) /*lint !e946 MISRA exception justified as use of the relational operator is the cleanest solutions. */
 8002280:	687b      	ldr	r3, [r7, #4]
 8002282:	68da      	ldr	r2, [r3, #12]
 8002284:	687b      	ldr	r3, [r7, #4]
 8002286:	689b      	ldr	r3, [r3, #8]
 8002288:	429a      	cmp	r2, r3
 800228a:	d303      	bcc.n	8002294 <prvCopyDataFromQueue+0x34>
		{
			pxQueue->u.xQueue.pcReadFrom = pxQueue->pcHead;
 800228c:	687b      	ldr	r3, [r7, #4]
 800228e:	681a      	ldr	r2, [r3, #0]
 8002290:	687b      	ldr	r3, [r7, #4]
 8002292:	60da      	str	r2, [r3, #12]
		}
		else
		{
			mtCOVERAGE_TEST_MARKER();
		}
		( void ) memcpy( ( void * ) pvBuffer, ( void * ) pxQueue->u.xQueue.pcReadFrom, ( size_t ) pxQueue->uxItemSize ); /*lint !e961 !e418 !e9087 MISRA exception as the casts are only redundant for some ports.  Also previous logic ensures a null pointer can only be passed to memcpy() when the count is 0.  Cast to void required by function signature and safe as no alignment requirement and copy length specified in bytes. */
 8002294:	687b      	ldr	r3, [r7, #4]
 8002296:	68d9      	ldr	r1, [r3, #12]
 8002298:	687b      	ldr	r3, [r7, #4]
 800229a:	6c1b      	ldr	r3, [r3, #64]	; 0x40
 800229c:	461a      	mov	r2, r3
 800229e:	6838      	ldr	r0, [r7, #0]
 80022a0:	f001 ff48 	bl	8004134 <memcpy>
	}
}
 80022a4:	bf00      	nop
 80022a6:	3708      	adds	r7, #8
 80022a8:	46bd      	mov	sp, r7
 80022aa:	bd80      	pop	{r7, pc}

080022ac <prvUnlockQueue>:
/*-----------------------------------------------------------*/

static void prvUnlockQueue( Queue_t * const pxQueue )
{
 80022ac:	b580      	push	{r7, lr}
 80022ae:	b084      	sub	sp, #16
 80022b0:	af00      	add	r7, sp, #0
 80022b2:	6078      	str	r0, [r7, #4]

	/* The lock counts contains the number of extra data items placed or
	removed from the queue while the queue was locked.  When a queue is
	locked items can be added or removed, but the event lists cannot be
	updated. */
	taskENTER_CRITICAL();
 80022b4:	f001 fc2a 	bl	8003b0c <vPortEnterCritical>
	{
		int8_t cTxLock = pxQueue->cTxLock;
 80022b8:	687b      	ldr	r3, [r7, #4]
 80022ba:	f893 3045 	ldrb.w	r3, [r3, #69]	; 0x45
 80022be:	73fb      	strb	r3, [r7, #15]

		/* See if data was added to the queue while it was locked. */
		while( cTxLock > queueLOCKED_UNMODIFIED )
 80022c0:	e011      	b.n	80022e6 <prvUnlockQueue+0x3a>
			}
			#else /* configUSE_QUEUE_SETS */
			{
				/* Tasks that are removed from the event list will get added to
				the pending ready list as the scheduler is still suspended. */
				if( listLIST_IS_EMPTY( &( pxQueue->xTasksWaitingToReceive ) ) == pdFALSE )
 80022c2:	687b      	ldr	r3, [r7, #4]
 80022c4:	6a5b      	ldr	r3, [r3, #36]	; 0x24
 80022c6:	2b00      	cmp	r3, #0
 80022c8:	d012      	beq.n	80022f0 <prvUnlockQueue+0x44>
				{
					if( xTaskRemoveFromEventList( &( pxQueue->xTasksWaitingToReceive ) ) != pdFALSE )
 80022ca:	687b      	ldr	r3, [r7, #4]
 80022cc:	3324      	adds	r3, #36	; 0x24
 80022ce:	4618      	mov	r0, r3
 80022d0:	f000 fd1a 	bl	8002d08 <xTaskRemoveFromEventList>
 80022d4:	4603      	mov	r3, r0
 80022d6:	2b00      	cmp	r3, #0
 80022d8:	d001      	beq.n	80022de <prvUnlockQueue+0x32>
					{
						/* The task waiting has a higher priority so record that
						a context switch is required. */
						vTaskMissedYield();
 80022da:	f000 fded 	bl	8002eb8 <vTaskMissedYield>
					break;
				}
			}
			#endif /* configUSE_QUEUE_SETS */

			--cTxLock;
 80022de:	7bfb      	ldrb	r3, [r7, #15]
 80022e0:	3b01      	subs	r3, #1
 80022e2:	b2db      	uxtb	r3, r3
 80022e4:	73fb      	strb	r3, [r7, #15]
		while( cTxLock > queueLOCKED_UNMODIFIED )
 80022e6:	f997 300f 	ldrsb.w	r3, [r7, #15]
 80022ea:	2b00      	cmp	r3, #0
 80022ec:	dce9      	bgt.n	80022c2 <prvUnlockQueue+0x16>
 80022ee:	e000      	b.n	80022f2 <prvUnlockQueue+0x46>
					break;
 80022f0:	bf00      	nop
		}

		pxQueue->cTxLock = queueUNLOCKED;
 80022f2:	687b      	ldr	r3, [r7, #4]
 80022f4:	22ff      	movs	r2, #255	; 0xff
 80022f6:	f883 2045 	strb.w	r2, [r3, #69]	; 0x45
	}
	taskEXIT_CRITICAL();
 80022fa:	f001 fc35 	bl	8003b68 <vPortExitCritical>

	/* Do the same for the Rx lock. */
	taskENTER_CRITICAL();
 80022fe:	f001 fc05 	bl	8003b0c <vPortEnterCritical>
	{
		int8_t cRxLock = pxQueue->cRxLock;
 8002302:	687b      	ldr	r3, [r7, #4]
 8002304:	f893 3044 	ldrb.w	r3, [r3, #68]	; 0x44
 8002308:	73bb      	strb	r3, [r7, #14]

		while( cRxLock > queueLOCKED_UNMODIFIED )
 800230a:	e011      	b.n	8002330 <prvUnlockQueue+0x84>
		{
			if( listLIST_IS_EMPTY( &( pxQueue->xTasksWaitingToSend ) ) == pdFALSE )
 800230c:	687b      	ldr	r3, [r7, #4]
 800230e:	691b      	ldr	r3, [r3, #16]
 8002310:	2b00      	cmp	r3, #0
 8002312:	d012      	beq.n	800233a <prvUnlockQueue+0x8e>
			{
				if( xTaskRemoveFromEventList( &( pxQueue->xTasksWaitingToSend ) ) != pdFALSE )
 8002314:	687b      	ldr	r3, [r7, #4]
 8002316:	3310      	adds	r3, #16
 8002318:	4618      	mov	r0, r3
 800231a:	f000 fcf5 	bl	8002d08 <xTaskRemoveFromEventList>
 800231e:	4603      	mov	r3, r0
 8002320:	2b00      	cmp	r3, #0
 8002322:	d001      	beq.n	8002328 <prvUnlockQueue+0x7c>
				{
					vTaskMissedYield();
 8002324:	f000 fdc8 	bl	8002eb8 <vTaskMissedYield>
				else
				{
					mtCOVERAGE_TEST_MARKER();
				}

				--cRxLock;
 8002328:	7bbb      	ldrb	r3, [r7, #14]
 800232a:	3b01      	subs	r3, #1
 800232c:	b2db      	uxtb	r3, r3
 800232e:	73bb      	strb	r3, [r7, #14]
		while( cRxLock > queueLOCKED_UNMODIFIED )
 8002330:	f997 300e 	ldrsb.w	r3, [r7, #14]
 8002334:	2b00      	cmp	r3, #0
 8002336:	dce9      	bgt.n	800230c <prvUnlockQueue+0x60>
 8002338:	e000      	b.n	800233c <prvUnlockQueue+0x90>
			}
			else
			{
				break;
 800233a:	bf00      	nop
			}
		}

		pxQueue->cRxLock = queueUNLOCKED;
 800233c:	687b      	ldr	r3, [r7, #4]
 800233e:	22ff      	movs	r2, #255	; 0xff
 8002340:	f883 2044 	strb.w	r2, [r3, #68]	; 0x44
	}
	taskEXIT_CRITICAL();
 8002344:	f001 fc10 	bl	8003b68 <vPortExitCritical>
}
 8002348:	bf00      	nop
 800234a:	3710      	adds	r7, #16
 800234c:	46bd      	mov	sp, r7
 800234e:	bd80      	pop	{r7, pc}

08002350 <prvIsQueueEmpty>:
/*-----------------------------------------------------------*/

static BaseType_t prvIsQueueEmpty( const Queue_t *pxQueue )
{
 8002350:	b580      	push	{r7, lr}
 8002352:	b084      	sub	sp, #16
 8002354:	af00      	add	r7, sp, #0
 8002356:	6078      	str	r0, [r7, #4]
BaseType_t xReturn;

	taskENTER_CRITICAL();
 8002358:	f001 fbd8 	bl	8003b0c <vPortEnterCritical>
	{
		if( pxQueue->uxMessagesWaiting == ( UBaseType_t )  0 )
 800235c:	687b      	ldr	r3, [r7, #4]
 800235e:	6b9b      	ldr	r3, [r3, #56]	; 0x38
 8002360:	2b00      	cmp	r3, #0
 8002362:	d102      	bne.n	800236a <prvIsQueueEmpty+0x1a>
		{
			xReturn = pdTRUE;
 8002364:	2301      	movs	r3, #1
 8002366:	60fb      	str	r3, [r7, #12]
 8002368:	e001      	b.n	800236e <prvIsQueueEmpty+0x1e>
		}
		else
		{
			xReturn = pdFALSE;
 800236a:	2300      	movs	r3, #0
 800236c:	60fb      	str	r3, [r7, #12]
		}
	}
	taskEXIT_CRITICAL();
 800236e:	f001 fbfb 	bl	8003b68 <vPortExitCritical>

	return xReturn;
 8002372:	68fb      	ldr	r3, [r7, #12]
}
 8002374:	4618      	mov	r0, r3
 8002376:	3710      	adds	r7, #16
 8002378:	46bd      	mov	sp, r7
 800237a:	bd80      	pop	{r7, pc}

0800237c <prvIsQueueFull>:
	return xReturn;
} /*lint !e818 xQueue could not be pointer to const because it is a typedef. */
/*-----------------------------------------------------------*/

static BaseType_t prvIsQueueFull( const Queue_t *pxQueue )
{
 800237c:	b580      	push	{r7, lr}
 800237e:	b084      	sub	sp, #16
 8002380:	af00      	add	r7, sp, #0
 8002382:	6078      	str	r0, [r7, #4]
BaseType_t xReturn;

	taskENTER_CRITICAL();
 8002384:	f001 fbc2 	bl	8003b0c <vPortEnterCritical>
	{
		if( pxQueue->uxMessagesWaiting == pxQueue->uxLength )
 8002388:	687b      	ldr	r3, [r7, #4]
 800238a:	6b9a      	ldr	r2, [r3, #56]	; 0x38
 800238c:	687b      	ldr	r3, [r7, #4]
 800238e:	6bdb      	ldr	r3, [r3, #60]	; 0x3c
 8002390:	429a      	cmp	r2, r3
 8002392:	d102      	bne.n	800239a <prvIsQueueFull+0x1e>
		{
			xReturn = pdTRUE;
 8002394:	2301      	movs	r3, #1
 8002396:	60fb      	str	r3, [r7, #12]
 8002398:	e001      	b.n	800239e <prvIsQueueFull+0x22>
		}
		else
		{
			xReturn = pdFALSE;
 800239a:	2300      	movs	r3, #0
 800239c:	60fb      	str	r3, [r7, #12]
		}
	}
	taskEXIT_CRITICAL();
 800239e:	f001 fbe3 	bl	8003b68 <vPortExitCritical>

	return xReturn;
 80023a2:	68fb      	ldr	r3, [r7, #12]
}
 80023a4:	4618      	mov	r0, r3
 80023a6:	3710      	adds	r7, #16
 80023a8:	46bd      	mov	sp, r7
 80023aa:	bd80      	pop	{r7, pc}

080023ac <vQueueAddToRegistry>:
/*-----------------------------------------------------------*/

#if ( configQUEUE_REGISTRY_SIZE > 0 )

	void vQueueAddToRegistry( QueueHandle_t xQueue, const char *pcQueueName ) /*lint !e971 Unqualified char types are allowed for strings and single characters only. */
	{
 80023ac:	b480      	push	{r7}
 80023ae:	b085      	sub	sp, #20
 80023b0:	af00      	add	r7, sp, #0
 80023b2:	6078      	str	r0, [r7, #4]
 80023b4:	6039      	str	r1, [r7, #0]
	UBaseType_t ux;

		/* See if there is an empty space in the registry.  A NULL name denotes
		a free slot. */
		for( ux = ( UBaseType_t ) 0U; ux < ( UBaseType_t ) configQUEUE_REGISTRY_SIZE; ux++ )
 80023b6:	2300      	movs	r3, #0
 80023b8:	60fb      	str	r3, [r7, #12]
 80023ba:	e014      	b.n	80023e6 <vQueueAddToRegistry+0x3a>
		{
			if( xQueueRegistry[ ux ].pcQueueName == NULL )
 80023bc:	4a0e      	ldr	r2, [pc, #56]	; (80023f8 <vQueueAddToRegistry+0x4c>)
 80023be:	68fb      	ldr	r3, [r7, #12]
 80023c0:	f852 3033 	ldr.w	r3, [r2, r3, lsl #3]
 80023c4:	2b00      	cmp	r3, #0
 80023c6:	d10b      	bne.n	80023e0 <vQueueAddToRegistry+0x34>
			{
				/* Store the information on this queue. */
				xQueueRegistry[ ux ].pcQueueName = pcQueueName;
 80023c8:	490b      	ldr	r1, [pc, #44]	; (80023f8 <vQueueAddToRegistry+0x4c>)
 80023ca:	68fb      	ldr	r3, [r7, #12]
 80023cc:	683a      	ldr	r2, [r7, #0]
 80023ce:	f841 2033 	str.w	r2, [r1, r3, lsl #3]
				xQueueRegistry[ ux ].xHandle = xQueue;
 80023d2:	4a09      	ldr	r2, [pc, #36]	; (80023f8 <vQueueAddToRegistry+0x4c>)
 80023d4:	68fb      	ldr	r3, [r7, #12]
 80023d6:	00db      	lsls	r3, r3, #3
 80023d8:	4413      	add	r3, r2
 80023da:	687a      	ldr	r2, [r7, #4]
 80023dc:	605a      	str	r2, [r3, #4]

				traceQUEUE_REGISTRY_ADD( xQueue, pcQueueName );
				break;
 80023de:	e005      	b.n	80023ec <vQueueAddToRegistry+0x40>
		for( ux = ( UBaseType_t ) 0U; ux < ( UBaseType_t ) configQUEUE_REGISTRY_SIZE; ux++ )
 80023e0:	68fb      	ldr	r3, [r7, #12]
 80023e2:	3301      	adds	r3, #1
 80023e4:	60fb      	str	r3, [r7, #12]
 80023e6:	68fb      	ldr	r3, [r7, #12]
 80023e8:	2b07      	cmp	r3, #7
 80023ea:	d9e7      	bls.n	80023bc <vQueueAddToRegistry+0x10>
			else
			{
				mtCOVERAGE_TEST_MARKER();
			}
		}
	}
 80023ec:	bf00      	nop
 80023ee:	3714      	adds	r7, #20
 80023f0:	46bd      	mov	sp, r7
 80023f2:	f85d 7b04 	ldr.w	r7, [sp], #4
 80023f6:	4770      	bx	lr
 80023f8:	20004940 	.word	0x20004940

080023fc <vQueueWaitForMessageRestricted>:
/*-----------------------------------------------------------*/

#if ( configUSE_TIMERS == 1 )

	void vQueueWaitForMessageRestricted( QueueHandle_t xQueue, TickType_t xTicksToWait, const BaseType_t xWaitIndefinitely )
	{
 80023fc:	b580      	push	{r7, lr}
 80023fe:	b086      	sub	sp, #24
 8002400:	af00      	add	r7, sp, #0
 8002402:	60f8      	str	r0, [r7, #12]
 8002404:	60b9      	str	r1, [r7, #8]
 8002406:	607a      	str	r2, [r7, #4]
	Queue_t * const pxQueue = xQueue;
 8002408:	68fb      	ldr	r3, [r7, #12]
 800240a:	617b      	str	r3, [r7, #20]
		will not actually cause the task to block, just place it on a blocked
		list.  It will not block until the scheduler is unlocked - at which
		time a yield will be performed.  If an item is added to the queue while
		the queue is locked, and the calling task blocks on the queue, then the
		calling task will be immediately unblocked when the queue is unlocked. */
		prvLockQueue( pxQueue );
 800240c:	f001 fb7e 	bl	8003b0c <vPortEnterCritical>
 8002410:	697b      	ldr	r3, [r7, #20]
 8002412:	f893 3044 	ldrb.w	r3, [r3, #68]	; 0x44
 8002416:	b25b      	sxtb	r3, r3
 8002418:	f1b3 3fff 	cmp.w	r3, #4294967295
 800241c:	d103      	bne.n	8002426 <vQueueWaitForMessageRestricted+0x2a>
 800241e:	697b      	ldr	r3, [r7, #20]
 8002420:	2200      	movs	r2, #0
 8002422:	f883 2044 	strb.w	r2, [r3, #68]	; 0x44
 8002426:	697b      	ldr	r3, [r7, #20]
 8002428:	f893 3045 	ldrb.w	r3, [r3, #69]	; 0x45
 800242c:	b25b      	sxtb	r3, r3
 800242e:	f1b3 3fff 	cmp.w	r3, #4294967295
 8002432:	d103      	bne.n	800243c <vQueueWaitForMessageRestricted+0x40>
 8002434:	697b      	ldr	r3, [r7, #20]
 8002436:	2200      	movs	r2, #0
 8002438:	f883 2045 	strb.w	r2, [r3, #69]	; 0x45
 800243c:	f001 fb94 	bl	8003b68 <vPortExitCritical>
		if( pxQueue->uxMessagesWaiting == ( UBaseType_t ) 0U )
 8002440:	697b      	ldr	r3, [r7, #20]
 8002442:	6b9b      	ldr	r3, [r3, #56]	; 0x38
 8002444:	2b00      	cmp	r3, #0
 8002446:	d106      	bne.n	8002456 <vQueueWaitForMessageRestricted+0x5a>
		{
			/* There is nothing in the queue, block for the specified period. */
			vTaskPlaceOnEventListRestricted( &( pxQueue->xTasksWaitingToReceive ), xTicksToWait, xWaitIndefinitely );
 8002448:	697b      	ldr	r3, [r7, #20]
 800244a:	3324      	adds	r3, #36	; 0x24
 800244c:	687a      	ldr	r2, [r7, #4]
 800244e:	68b9      	ldr	r1, [r7, #8]
 8002450:	4618      	mov	r0, r3
 8002452:	f000 fc2f 	bl	8002cb4 <vTaskPlaceOnEventListRestricted>
		}
		else
		{
			mtCOVERAGE_TEST_MARKER();
		}
		prvUnlockQueue( pxQueue );
 8002456:	6978      	ldr	r0, [r7, #20]
 8002458:	f7ff ff28 	bl	80022ac <prvUnlockQueue>
	}
 800245c:	bf00      	nop
 800245e:	3718      	adds	r7, #24
 8002460:	46bd      	mov	sp, r7
 8002462:	bd80      	pop	{r7, pc}

08002464 <xTaskCreateStatic>:
									const uint32_t ulStackDepth,
									void * const pvParameters,
									UBaseType_t uxPriority,
									StackType_t * const puxStackBuffer,
									StaticTask_t * const pxTaskBuffer )
	{
 8002464:	b580      	push	{r7, lr}
 8002466:	b08e      	sub	sp, #56	; 0x38
 8002468:	af04      	add	r7, sp, #16
 800246a:	60f8      	str	r0, [r7, #12]
 800246c:	60b9      	str	r1, [r7, #8]
 800246e:	607a      	str	r2, [r7, #4]
 8002470:	603b      	str	r3, [r7, #0]
	TCB_t *pxNewTCB;
	TaskHandle_t xReturn;

		configASSERT( puxStackBuffer != NULL );
 8002472:	6b7b      	ldr	r3, [r7, #52]	; 0x34
 8002474:	2b00      	cmp	r3, #0
 8002476:	d109      	bne.n	800248c <xTaskCreateStatic+0x28>
 8002478:	f04f 0350 	mov.w	r3, #80	; 0x50
 800247c:	f383 8811 	msr	BASEPRI, r3
 8002480:	f3bf 8f6f 	isb	sy
 8002484:	f3bf 8f4f 	dsb	sy
 8002488:	623b      	str	r3, [r7, #32]
 800248a:	e7fe      	b.n	800248a <xTaskCreateStatic+0x26>
		configASSERT( pxTaskBuffer != NULL );
 800248c:	6bbb      	ldr	r3, [r7, #56]	; 0x38
 800248e:	2b00      	cmp	r3, #0
 8002490:	d109      	bne.n	80024a6 <xTaskCreateStatic+0x42>
 8002492:	f04f 0350 	mov.w	r3, #80	; 0x50
 8002496:	f383 8811 	msr	BASEPRI, r3
 800249a:	f3bf 8f6f 	isb	sy
 800249e:	f3bf 8f4f 	dsb	sy
 80024a2:	61fb      	str	r3, [r7, #28]
 80024a4:	e7fe      	b.n	80024a4 <xTaskCreateStatic+0x40>
		#if( configASSERT_DEFINED == 1 )
		{
			/* Sanity check that the size of the structure used to declare a
			variable of type StaticTask_t equals the size of the real task
			structure. */
			volatile size_t xSize = sizeof( StaticTask_t );
 80024a6:	235c      	movs	r3, #92	; 0x5c
 80024a8:	613b      	str	r3, [r7, #16]
			configASSERT( xSize == sizeof( TCB_t ) );
 80024aa:	693b      	ldr	r3, [r7, #16]
 80024ac:	2b5c      	cmp	r3, #92	; 0x5c
 80024ae:	d009      	beq.n	80024c4 <xTaskCreateStatic+0x60>
 80024b0:	f04f 0350 	mov.w	r3, #80	; 0x50
 80024b4:	f383 8811 	msr	BASEPRI, r3
 80024b8:	f3bf 8f6f 	isb	sy
 80024bc:	f3bf 8f4f 	dsb	sy
 80024c0:	61bb      	str	r3, [r7, #24]
 80024c2:	e7fe      	b.n	80024c2 <xTaskCreateStatic+0x5e>
			( void ) xSize; /* Prevent lint warning when configASSERT() is not used. */
 80024c4:	693b      	ldr	r3, [r7, #16]
		}
		#endif /* configASSERT_DEFINED */


		if( ( pxTaskBuffer != NULL ) && ( puxStackBuffer != NULL ) )
 80024c6:	6bbb      	ldr	r3, [r7, #56]	; 0x38
 80024c8:	2b00      	cmp	r3, #0
 80024ca:	d01e      	beq.n	800250a <xTaskCreateStatic+0xa6>
 80024cc:	6b7b      	ldr	r3, [r7, #52]	; 0x34
 80024ce:	2b00      	cmp	r3, #0
 80024d0:	d01b      	beq.n	800250a <xTaskCreateStatic+0xa6>
		{
			/* The memory used for the task's TCB and stack are passed into this
			function - use them. */
			pxNewTCB = ( TCB_t * ) pxTaskBuffer; /*lint !e740 !e9087 Unusual cast is ok as the structures are designed to have the same alignment, and the size is checked by an assert. */
 80024d2:	6bbb      	ldr	r3, [r7, #56]	; 0x38
 80024d4:	627b      	str	r3, [r7, #36]	; 0x24
			pxNewTCB->pxStack = ( StackType_t * ) puxStackBuffer;
 80024d6:	6a7b      	ldr	r3, [r7, #36]	; 0x24
 80024d8:	6b7a      	ldr	r2, [r7, #52]	; 0x34
 80024da:	631a      	str	r2, [r3, #48]	; 0x30

			#if( tskSTATIC_AND_DYNAMIC_ALLOCATION_POSSIBLE != 0 ) /*lint !e731 !e9029 Macro has been consolidated for readability reasons. */
			{
				/* Tasks can be created statically or dynamically, so note this
				task was created statically in case the task is later deleted. */
				pxNewTCB->ucStaticallyAllocated = tskSTATICALLY_ALLOCATED_STACK_AND_TCB;
 80024dc:	6a7b      	ldr	r3, [r7, #36]	; 0x24
 80024de:	2202      	movs	r2, #2
 80024e0:	f883 2059 	strb.w	r2, [r3, #89]	; 0x59
			}
			#endif /* tskSTATIC_AND_DYNAMIC_ALLOCATION_POSSIBLE */

			prvInitialiseNewTask( pxTaskCode, pcName, ulStackDepth, pvParameters, uxPriority, &xReturn, pxNewTCB, NULL );
 80024e4:	2300      	movs	r3, #0
 80024e6:	9303      	str	r3, [sp, #12]
 80024e8:	6a7b      	ldr	r3, [r7, #36]	; 0x24
 80024ea:	9302      	str	r3, [sp, #8]
 80024ec:	f107 0314 	add.w	r3, r7, #20
 80024f0:	9301      	str	r3, [sp, #4]
 80024f2:	6b3b      	ldr	r3, [r7, #48]	; 0x30
 80024f4:	9300      	str	r3, [sp, #0]
 80024f6:	683b      	ldr	r3, [r7, #0]
 80024f8:	687a      	ldr	r2, [r7, #4]
 80024fa:	68b9      	ldr	r1, [r7, #8]
 80024fc:	68f8      	ldr	r0, [r7, #12]
 80024fe:	f000 f850 	bl	80025a2 <prvInitialiseNewTask>
			prvAddNewTaskToReadyList( pxNewTCB );
 8002502:	6a78      	ldr	r0, [r7, #36]	; 0x24
 8002504:	f000 f8dc 	bl	80026c0 <prvAddNewTaskToReadyList>
 8002508:	e001      	b.n	800250e <xTaskCreateStatic+0xaa>
		}
		else
		{
			xReturn = NULL;
 800250a:	2300      	movs	r3, #0
 800250c:	617b      	str	r3, [r7, #20]
		}

		return xReturn;
 800250e:	697b      	ldr	r3, [r7, #20]
	}
 8002510:	4618      	mov	r0, r3
 8002512:	3728      	adds	r7, #40	; 0x28
 8002514:	46bd      	mov	sp, r7
 8002516:	bd80      	pop	{r7, pc}

08002518 <xTaskCreate>:
							const char * const pcName,		/*lint !e971 Unqualified char types are allowed for strings and single characters only. */
							const configSTACK_DEPTH_TYPE usStackDepth,
							void * const pvParameters,
							UBaseType_t uxPriority,
							TaskHandle_t * const pxCreatedTask )
	{
 8002518:	b580      	push	{r7, lr}
 800251a:	b08c      	sub	sp, #48	; 0x30
 800251c:	af04      	add	r7, sp, #16
 800251e:	60f8      	str	r0, [r7, #12]
 8002520:	60b9      	str	r1, [r7, #8]
 8002522:	603b      	str	r3, [r7, #0]
 8002524:	4613      	mov	r3, r2
 8002526:	80fb      	strh	r3, [r7, #6]
		#else /* portSTACK_GROWTH */
		{
		StackType_t *pxStack;

			/* Allocate space for the stack used by the task being created. */
			pxStack = pvPortMalloc( ( ( ( size_t ) usStackDepth ) * sizeof( StackType_t ) ) ); /*lint !e9079 All values returned by pvPortMalloc() have at least the alignment required by the MCU's stack and this allocation is the stack. */
 8002528:	88fb      	ldrh	r3, [r7, #6]
 800252a:	009b      	lsls	r3, r3, #2
 800252c:	4618      	mov	r0, r3
 800252e:	f001 fc07 	bl	8003d40 <pvPortMalloc>
 8002532:	6178      	str	r0, [r7, #20]

			if( pxStack != NULL )
 8002534:	697b      	ldr	r3, [r7, #20]
 8002536:	2b00      	cmp	r3, #0
 8002538:	d00e      	beq.n	8002558 <xTaskCreate+0x40>
			{
				/* Allocate space for the TCB. */
				pxNewTCB = ( TCB_t * ) pvPortMalloc( sizeof( TCB_t ) ); /*lint !e9087 !e9079 All values returned by pvPortMalloc() have at least the alignment required by the MCU's stack, and the first member of TCB_t is always a pointer to the task's stack. */
 800253a:	205c      	movs	r0, #92	; 0x5c
 800253c:	f001 fc00 	bl	8003d40 <pvPortMalloc>
 8002540:	61f8      	str	r0, [r7, #28]

				if( pxNewTCB != NULL )
 8002542:	69fb      	ldr	r3, [r7, #28]
 8002544:	2b00      	cmp	r3, #0
 8002546:	d003      	beq.n	8002550 <xTaskCreate+0x38>
				{
					/* Store the stack location in the TCB. */
					pxNewTCB->pxStack = pxStack;
 8002548:	69fb      	ldr	r3, [r7, #28]
 800254a:	697a      	ldr	r2, [r7, #20]
 800254c:	631a      	str	r2, [r3, #48]	; 0x30
 800254e:	e005      	b.n	800255c <xTaskCreate+0x44>
				}
				else
				{
					/* The stack cannot be used as the TCB was not created.  Free
					it again. */
					vPortFree( pxStack );
 8002550:	6978      	ldr	r0, [r7, #20]
 8002552:	f001 fcb7 	bl	8003ec4 <vPortFree>
 8002556:	e001      	b.n	800255c <xTaskCreate+0x44>
				}
			}
			else
			{
				pxNewTCB = NULL;
 8002558:	2300      	movs	r3, #0
 800255a:	61fb      	str	r3, [r7, #28]
			}
		}
		#endif /* portSTACK_GROWTH */

		if( pxNewTCB != NULL )
 800255c:	69fb      	ldr	r3, [r7, #28]
 800255e:	2b00      	cmp	r3, #0
 8002560:	d017      	beq.n	8002592 <xTaskCreate+0x7a>
		{
			#if( tskSTATIC_AND_DYNAMIC_ALLOCATION_POSSIBLE != 0 ) /*lint !e9029 !e731 Macro has been consolidated for readability reasons. */
			{
				/* Tasks can be created statically or dynamically, so note this
				task was created dynamically in case it is later deleted. */
				pxNewTCB->ucStaticallyAllocated = tskDYNAMICALLY_ALLOCATED_STACK_AND_TCB;
 8002562:	69fb      	ldr	r3, [r7, #28]
 8002564:	2200      	movs	r2, #0
 8002566:	f883 2059 	strb.w	r2, [r3, #89]	; 0x59
			}
			#endif /* tskSTATIC_AND_DYNAMIC_ALLOCATION_POSSIBLE */

			prvInitialiseNewTask( pxTaskCode, pcName, ( uint32_t ) usStackDepth, pvParameters, uxPriority, pxCreatedTask, pxNewTCB, NULL );
 800256a:	88fa      	ldrh	r2, [r7, #6]
 800256c:	2300      	movs	r3, #0
 800256e:	9303      	str	r3, [sp, #12]
 8002570:	69fb      	ldr	r3, [r7, #28]
 8002572:	9302      	str	r3, [sp, #8]
 8002574:	6afb      	ldr	r3, [r7, #44]	; 0x2c
 8002576:	9301      	str	r3, [sp, #4]
 8002578:	6abb      	ldr	r3, [r7, #40]	; 0x28
 800257a:	9300      	str	r3, [sp, #0]
 800257c:	683b      	ldr	r3, [r7, #0]
 800257e:	68b9      	ldr	r1, [r7, #8]
 8002580:	68f8      	ldr	r0, [r7, #12]
 8002582:	f000 f80e 	bl	80025a2 <prvInitialiseNewTask>
			prvAddNewTaskToReadyList( pxNewTCB );
 8002586:	69f8      	ldr	r0, [r7, #28]
 8002588:	f000 f89a 	bl	80026c0 <prvAddNewTaskToReadyList>
			xReturn = pdPASS;
 800258c:	2301      	movs	r3, #1
 800258e:	61bb      	str	r3, [r7, #24]
 8002590:	e002      	b.n	8002598 <xTaskCreate+0x80>
		}
		else
		{
			xReturn = errCOULD_NOT_ALLOCATE_REQUIRED_MEMORY;
 8002592:	f04f 33ff 	mov.w	r3, #4294967295
 8002596:	61bb      	str	r3, [r7, #24]
		}

		return xReturn;
 8002598:	69bb      	ldr	r3, [r7, #24]
	}
 800259a:	4618      	mov	r0, r3
 800259c:	3720      	adds	r7, #32
 800259e:	46bd      	mov	sp, r7
 80025a0:	bd80      	pop	{r7, pc}

080025a2 <prvInitialiseNewTask>:
									void * const pvParameters,
									UBaseType_t uxPriority,
									TaskHandle_t * const pxCreatedTask,
									TCB_t *pxNewTCB,
									const MemoryRegion_t * const xRegions )
{
 80025a2:	b580      	push	{r7, lr}
 80025a4:	b088      	sub	sp, #32
 80025a6:	af00      	add	r7, sp, #0
 80025a8:	60f8      	str	r0, [r7, #12]
 80025aa:	60b9      	str	r1, [r7, #8]
 80025ac:	607a      	str	r2, [r7, #4]
 80025ae:	603b      	str	r3, [r7, #0]

	/* Avoid dependency on memset() if it is not required. */
	#if( tskSET_NEW_STACKS_TO_KNOWN_VALUE == 1 )
	{
		/* Fill the stack with a known value to assist debugging. */
		( void ) memset( pxNewTCB->pxStack, ( int ) tskSTACK_FILL_BYTE, ( size_t ) ulStackDepth * sizeof( StackType_t ) );
 80025b0:	6b3b      	ldr	r3, [r7, #48]	; 0x30
 80025b2:	6b18      	ldr	r0, [r3, #48]	; 0x30
 80025b4:	687b      	ldr	r3, [r7, #4]
 80025b6:	009b      	lsls	r3, r3, #2
 80025b8:	461a      	mov	r2, r3
 80025ba:	21a5      	movs	r1, #165	; 0xa5
 80025bc:	f001 fdc5 	bl	800414a <memset>
	grows from high memory to low (as per the 80x86) or vice versa.
	portSTACK_GROWTH is used to make the result positive or negative as required
	by the port. */
	#if( portSTACK_GROWTH < 0 )
	{
		pxTopOfStack = &( pxNewTCB->pxStack[ ulStackDepth - ( uint32_t ) 1 ] );
 80025c0:	6b3b      	ldr	r3, [r7, #48]	; 0x30
 80025c2:	6b1a      	ldr	r2, [r3, #48]	; 0x30
 80025c4:	687b      	ldr	r3, [r7, #4]
 80025c6:	f103 4380 	add.w	r3, r3, #1073741824	; 0x40000000
 80025ca:	3b01      	subs	r3, #1
 80025cc:	009b      	lsls	r3, r3, #2
 80025ce:	4413      	add	r3, r2
 80025d0:	61bb      	str	r3, [r7, #24]
		pxTopOfStack = ( StackType_t * ) ( ( ( portPOINTER_SIZE_TYPE ) pxTopOfStack ) & ( ~( ( portPOINTER_SIZE_TYPE ) portBYTE_ALIGNMENT_MASK ) ) ); /*lint !e923 !e9033 !e9078 MISRA exception.  Avoiding casts between pointers and integers is not practical.  Size differences accounted for using portPOINTER_SIZE_TYPE type.  Checked by assert(). */
 80025d2:	69bb      	ldr	r3, [r7, #24]
 80025d4:	f023 0307 	bic.w	r3, r3, #7
 80025d8:	61bb      	str	r3, [r7, #24]

		/* Check the alignment of the calculated top of stack is correct. */
		configASSERT( ( ( ( portPOINTER_SIZE_TYPE ) pxTopOfStack & ( portPOINTER_SIZE_TYPE ) portBYTE_ALIGNMENT_MASK ) == 0UL ) );
 80025da:	69bb      	ldr	r3, [r7, #24]
 80025dc:	f003 0307 	and.w	r3, r3, #7
 80025e0:	2b00      	cmp	r3, #0
 80025e2:	d009      	beq.n	80025f8 <prvInitialiseNewTask+0x56>
 80025e4:	f04f 0350 	mov.w	r3, #80	; 0x50
 80025e8:	f383 8811 	msr	BASEPRI, r3
 80025ec:	f3bf 8f6f 	isb	sy
 80025f0:	f3bf 8f4f 	dsb	sy
 80025f4:	617b      	str	r3, [r7, #20]
 80025f6:	e7fe      	b.n	80025f6 <prvInitialiseNewTask+0x54>
		pxNewTCB->pxEndOfStack = pxNewTCB->pxStack + ( ulStackDepth - ( uint32_t ) 1 );
	}
	#endif /* portSTACK_GROWTH */

	/* Store the task name in the TCB. */
	if( pcName != NULL )
 80025f8:	68bb      	ldr	r3, [r7, #8]
 80025fa:	2b00      	cmp	r3, #0
 80025fc:	d01f      	beq.n	800263e <prvInitialiseNewTask+0x9c>
	{
		for( x = ( UBaseType_t ) 0; x < ( UBaseType_t ) configMAX_TASK_NAME_LEN; x++ )
 80025fe:	2300      	movs	r3, #0
 8002600:	61fb      	str	r3, [r7, #28]
 8002602:	e012      	b.n	800262a <prvInitialiseNewTask+0x88>
		{
			pxNewTCB->pcTaskName[ x ] = pcName[ x ];
 8002604:	68ba      	ldr	r2, [r7, #8]
 8002606:	69fb      	ldr	r3, [r7, #28]
 8002608:	4413      	add	r3, r2
 800260a:	7819      	ldrb	r1, [r3, #0]
 800260c:	6b3a      	ldr	r2, [r7, #48]	; 0x30
 800260e:	69fb      	ldr	r3, [r7, #28]
 8002610:	4413      	add	r3, r2
 8002612:	3334      	adds	r3, #52	; 0x34
 8002614:	460a      	mov	r2, r1
 8002616:	701a      	strb	r2, [r3, #0]

			/* Don't copy all configMAX_TASK_NAME_LEN if the string is shorter than
			configMAX_TASK_NAME_LEN characters just in case the memory after the
			string is not accessible (extremely unlikely). */
			if( pcName[ x ] == ( char ) 0x00 )
 8002618:	68ba      	ldr	r2, [r7, #8]
 800261a:	69fb      	ldr	r3, [r7, #28]
 800261c:	4413      	add	r3, r2
 800261e:	781b      	ldrb	r3, [r3, #0]
 8002620:	2b00      	cmp	r3, #0
 8002622:	d006      	beq.n	8002632 <prvInitialiseNewTask+0x90>
		for( x = ( UBaseType_t ) 0; x < ( UBaseType_t ) configMAX_TASK_NAME_LEN; x++ )
 8002624:	69fb      	ldr	r3, [r7, #28]
 8002626:	3301      	adds	r3, #1
 8002628:	61fb      	str	r3, [r7, #28]
 800262a:	69fb      	ldr	r3, [r7, #28]
 800262c:	2b0f      	cmp	r3, #15
 800262e:	d9e9      	bls.n	8002604 <prvInitialiseNewTask+0x62>
 8002630:	e000      	b.n	8002634 <prvInitialiseNewTask+0x92>
			{
				break;
 8002632:	bf00      	nop
			}
		}

		/* Ensure the name string is terminated in the case that the string length
		was greater or equal to configMAX_TASK_NAME_LEN. */
		pxNewTCB->pcTaskName[ configMAX_TASK_NAME_LEN - 1 ] = '\0';
 8002634:	6b3b      	ldr	r3, [r7, #48]	; 0x30
 8002636:	2200      	movs	r2, #0
 8002638:	f883 2043 	strb.w	r2, [r3, #67]	; 0x43
 800263c:	e003      	b.n	8002646 <prvInitialiseNewTask+0xa4>
	}
	else
	{
		/* The task has not been given a name, so just ensure there is a NULL
		terminator when it is read out. */
		pxNewTCB->pcTaskName[ 0 ] = 0x00;
 800263e:	6b3b      	ldr	r3, [r7, #48]	; 0x30
 8002640:	2200      	movs	r2, #0
 8002642:	f883 2034 	strb.w	r2, [r3, #52]	; 0x34
	}

	/* This is used as an array index so must ensure it's not too large.  First
	remove the privilege bit if one is present. */
	if( uxPriority >= ( UBaseType_t ) configMAX_PRIORITIES )
 8002646:	6abb      	ldr	r3, [r7, #40]	; 0x28
 8002648:	2b37      	cmp	r3, #55	; 0x37
 800264a:	d901      	bls.n	8002650 <prvInitialiseNewTask+0xae>
	{
		uxPriority = ( UBaseType_t ) configMAX_PRIORITIES - ( UBaseType_t ) 1U;
 800264c:	2337      	movs	r3, #55	; 0x37
 800264e:	62bb      	str	r3, [r7, #40]	; 0x28
	else
	{
		mtCOVERAGE_TEST_MARKER();
	}

	pxNewTCB->uxPriority = uxPriority;
 8002650:	6b3b      	ldr	r3, [r7, #48]	; 0x30
 8002652:	6aba      	ldr	r2, [r7, #40]	; 0x28
 8002654:	62da      	str	r2, [r3, #44]	; 0x2c
	#if ( configUSE_MUTEXES == 1 )
	{
		pxNewTCB->uxBasePriority = uxPriority;
 8002656:	6b3b      	ldr	r3, [r7, #48]	; 0x30
 8002658:	6aba      	ldr	r2, [r7, #40]	; 0x28
 800265a:	64da      	str	r2, [r3, #76]	; 0x4c
		pxNewTCB->uxMutexesHeld = 0;
 800265c:	6b3b      	ldr	r3, [r7, #48]	; 0x30
 800265e:	2200      	movs	r2, #0
 8002660:	651a      	str	r2, [r3, #80]	; 0x50
	}
	#endif /* configUSE_MUTEXES */

	vListInitialiseItem( &( pxNewTCB->xStateListItem ) );
 8002662:	6b3b      	ldr	r3, [r7, #48]	; 0x30
 8002664:	3304      	adds	r3, #4
 8002666:	4618      	mov	r0, r3
 8002668:	f7ff f994 	bl	8001994 <vListInitialiseItem>
	vListInitialiseItem( &( pxNewTCB->xEventListItem ) );
 800266c:	6b3b      	ldr	r3, [r7, #48]	; 0x30
 800266e:	3318      	adds	r3, #24
 8002670:	4618      	mov	r0, r3
 8002672:	f7ff f98f 	bl	8001994 <vListInitialiseItem>

	/* Set the pxNewTCB as a link back from the ListItem_t.  This is so we can get
	back to	the containing TCB from a generic item in a list. */
	listSET_LIST_ITEM_OWNER( &( pxNewTCB->xStateListItem ), pxNewTCB );
 8002676:	6b3b      	ldr	r3, [r7, #48]	; 0x30
 8002678:	6b3a      	ldr	r2, [r7, #48]	; 0x30
 800267a:	611a      	str	r2, [r3, #16]

	/* Event lists are always in priority order. */
	listSET_LIST_ITEM_VALUE( &( pxNewTCB->xEventListItem ), ( TickType_t ) configMAX_PRIORITIES - ( TickType_t ) uxPriority ); /*lint !e961 MISRA exception as the casts are only redundant for some ports. */
 800267c:	6abb      	ldr	r3, [r7, #40]	; 0x28
 800267e:	f1c3 0238 	rsb	r2, r3, #56	; 0x38
 8002682:	6b3b      	ldr	r3, [r7, #48]	; 0x30
 8002684:	619a      	str	r2, [r3, #24]
	listSET_LIST_ITEM_OWNER( &( pxNewTCB->xEventListItem ), pxNewTCB );
 8002686:	6b3b      	ldr	r3, [r7, #48]	; 0x30
 8002688:	6b3a      	ldr	r2, [r7, #48]	; 0x30
 800268a:	625a      	str	r2, [r3, #36]	; 0x24
	}
	#endif

	#if ( configUSE_TASK_NOTIFICATIONS == 1 )
	{
		pxNewTCB->ulNotifiedValue = 0;
 800268c:	6b3b      	ldr	r3, [r7, #48]	; 0x30
 800268e:	2200      	movs	r2, #0
 8002690:	655a      	str	r2, [r3, #84]	; 0x54
		pxNewTCB->ucNotifyState = taskNOT_WAITING_NOTIFICATION;
 8002692:	6b3b      	ldr	r3, [r7, #48]	; 0x30
 8002694:	2200      	movs	r2, #0
 8002696:	f883 2058 	strb.w	r2, [r3, #88]	; 0x58
			}
			#endif /* portSTACK_GROWTH */
		}
		#else /* portHAS_STACK_OVERFLOW_CHECKING */
		{
			pxNewTCB->pxTopOfStack = pxPortInitialiseStack( pxTopOfStack, pxTaskCode, pvParameters );
 800269a:	683a      	ldr	r2, [r7, #0]
 800269c:	68f9      	ldr	r1, [r7, #12]
 800269e:	69b8      	ldr	r0, [r7, #24]
 80026a0:	f001 f90c 	bl	80038bc <pxPortInitialiseStack>
 80026a4:	4602      	mov	r2, r0
 80026a6:	6b3b      	ldr	r3, [r7, #48]	; 0x30
 80026a8:	601a      	str	r2, [r3, #0]
		}
		#endif /* portHAS_STACK_OVERFLOW_CHECKING */
	}
	#endif /* portUSING_MPU_WRAPPERS */

	if( pxCreatedTask != NULL )
 80026aa:	6afb      	ldr	r3, [r7, #44]	; 0x2c
 80026ac:	2b00      	cmp	r3, #0
 80026ae:	d002      	beq.n	80026b6 <prvInitialiseNewTask+0x114>
	{
		/* Pass the handle out in an anonymous way.  The handle can be used to
		change the created task's priority, delete the created task, etc.*/
		*pxCreatedTask = ( TaskHandle_t ) pxNewTCB;
 80026b0:	6afb      	ldr	r3, [r7, #44]	; 0x2c
 80026b2:	6b3a      	ldr	r2, [r7, #48]	; 0x30
 80026b4:	601a      	str	r2, [r3, #0]
	}
	else
	{
		mtCOVERAGE_TEST_MARKER();
	}
}
 80026b6:	bf00      	nop
 80026b8:	3720      	adds	r7, #32
 80026ba:	46bd      	mov	sp, r7
 80026bc:	bd80      	pop	{r7, pc}
	...

080026c0 <prvAddNewTaskToReadyList>:
/*-----------------------------------------------------------*/

static void prvAddNewTaskToReadyList( TCB_t *pxNewTCB )
{
 80026c0:	b580      	push	{r7, lr}
 80026c2:	b082      	sub	sp, #8
 80026c4:	af00      	add	r7, sp, #0
 80026c6:	6078      	str	r0, [r7, #4]
	/* Ensure interrupts don't access the task lists while the lists are being
	updated. */
	taskENTER_CRITICAL();
 80026c8:	f001 fa20 	bl	8003b0c <vPortEnterCritical>
	{
		uxCurrentNumberOfTasks++;
 80026cc:	4b2d      	ldr	r3, [pc, #180]	; (8002784 <prvAddNewTaskToReadyList+0xc4>)
 80026ce:	681b      	ldr	r3, [r3, #0]
 80026d0:	3301      	adds	r3, #1
 80026d2:	4a2c      	ldr	r2, [pc, #176]	; (8002784 <prvAddNewTaskToReadyList+0xc4>)
 80026d4:	6013      	str	r3, [r2, #0]
		if( pxCurrentTCB == NULL )
 80026d6:	4b2c      	ldr	r3, [pc, #176]	; (8002788 <prvAddNewTaskToReadyList+0xc8>)
 80026d8:	681b      	ldr	r3, [r3, #0]
 80026da:	2b00      	cmp	r3, #0
 80026dc:	d109      	bne.n	80026f2 <prvAddNewTaskToReadyList+0x32>
		{
			/* There are no other tasks, or all the other tasks are in
			the suspended state - make this the current task. */
			pxCurrentTCB = pxNewTCB;
 80026de:	4a2a      	ldr	r2, [pc, #168]	; (8002788 <prvAddNewTaskToReadyList+0xc8>)
 80026e0:	687b      	ldr	r3, [r7, #4]
 80026e2:	6013      	str	r3, [r2, #0]

			if( uxCurrentNumberOfTasks == ( UBaseType_t ) 1 )
 80026e4:	4b27      	ldr	r3, [pc, #156]	; (8002784 <prvAddNewTaskToReadyList+0xc4>)
 80026e6:	681b      	ldr	r3, [r3, #0]
 80026e8:	2b01      	cmp	r3, #1
 80026ea:	d110      	bne.n	800270e <prvAddNewTaskToReadyList+0x4e>
			{
				/* This is the first task to be created so do the preliminary
				initialisation required.  We will not recover if this call
				fails, but we will report the failure. */
				prvInitialiseTaskLists();
 80026ec:	f000 fc08 	bl	8002f00 <prvInitialiseTaskLists>
 80026f0:	e00d      	b.n	800270e <prvAddNewTaskToReadyList+0x4e>
		else
		{
			/* If the scheduler is not already running, make this task the
			current task if it is the highest priority task to be created
			so far. */
			if( xSchedulerRunning == pdFALSE )
 80026f2:	4b26      	ldr	r3, [pc, #152]	; (800278c <prvAddNewTaskToReadyList+0xcc>)
 80026f4:	681b      	ldr	r3, [r3, #0]
 80026f6:	2b00      	cmp	r3, #0
 80026f8:	d109      	bne.n	800270e <prvAddNewTaskToReadyList+0x4e>
			{
				if( pxCurrentTCB->uxPriority <= pxNewTCB->uxPriority )
 80026fa:	4b23      	ldr	r3, [pc, #140]	; (8002788 <prvAddNewTaskToReadyList+0xc8>)
 80026fc:	681b      	ldr	r3, [r3, #0]
 80026fe:	6ada      	ldr	r2, [r3, #44]	; 0x2c
 8002700:	687b      	ldr	r3, [r7, #4]
 8002702:	6adb      	ldr	r3, [r3, #44]	; 0x2c
 8002704:	429a      	cmp	r2, r3
 8002706:	d802      	bhi.n	800270e <prvAddNewTaskToReadyList+0x4e>
				{
					pxCurrentTCB = pxNewTCB;
 8002708:	4a1f      	ldr	r2, [pc, #124]	; (8002788 <prvAddNewTaskToReadyList+0xc8>)
 800270a:	687b      	ldr	r3, [r7, #4]
 800270c:	6013      	str	r3, [r2, #0]
			{
				mtCOVERAGE_TEST_MARKER();
			}
		}

		uxTaskNumber++;
 800270e:	4b20      	ldr	r3, [pc, #128]	; (8002790 <prvAddNewTaskToReadyList+0xd0>)
 8002710:	681b      	ldr	r3, [r3, #0]
 8002712:	3301      	adds	r3, #1
 8002714:	4a1e      	ldr	r2, [pc, #120]	; (8002790 <prvAddNewTaskToReadyList+0xd0>)
 8002716:	6013      	str	r3, [r2, #0]

		#if ( configUSE_TRACE_FACILITY == 1 )
		{
			/* Add a counter into the TCB for tracing only. */
			pxNewTCB->uxTCBNumber = uxTaskNumber;
 8002718:	4b1d      	ldr	r3, [pc, #116]	; (8002790 <prvAddNewTaskToReadyList+0xd0>)
 800271a:	681a      	ldr	r2, [r3, #0]
 800271c:	687b      	ldr	r3, [r7, #4]
 800271e:	645a      	str	r2, [r3, #68]	; 0x44
		}
		#endif /* configUSE_TRACE_FACILITY */
		traceTASK_CREATE( pxNewTCB );

		prvAddTaskToReadyList( pxNewTCB );
 8002720:	687b      	ldr	r3, [r7, #4]
 8002722:	6ada      	ldr	r2, [r3, #44]	; 0x2c
 8002724:	4b1b      	ldr	r3, [pc, #108]	; (8002794 <prvAddNewTaskToReadyList+0xd4>)
 8002726:	681b      	ldr	r3, [r3, #0]
 8002728:	429a      	cmp	r2, r3
 800272a:	d903      	bls.n	8002734 <prvAddNewTaskToReadyList+0x74>
 800272c:	687b      	ldr	r3, [r7, #4]
 800272e:	6adb      	ldr	r3, [r3, #44]	; 0x2c
 8002730:	4a18      	ldr	r2, [pc, #96]	; (8002794 <prvAddNewTaskToReadyList+0xd4>)
 8002732:	6013      	str	r3, [r2, #0]
 8002734:	687b      	ldr	r3, [r7, #4]
 8002736:	6ada      	ldr	r2, [r3, #44]	; 0x2c
 8002738:	4613      	mov	r3, r2
 800273a:	009b      	lsls	r3, r3, #2
 800273c:	4413      	add	r3, r2
 800273e:	009b      	lsls	r3, r3, #2
 8002740:	4a15      	ldr	r2, [pc, #84]	; (8002798 <prvAddNewTaskToReadyList+0xd8>)
 8002742:	441a      	add	r2, r3
 8002744:	687b      	ldr	r3, [r7, #4]
 8002746:	3304      	adds	r3, #4
 8002748:	4619      	mov	r1, r3
 800274a:	4610      	mov	r0, r2
 800274c:	f7ff f92f 	bl	80019ae <vListInsertEnd>

		portSETUP_TCB( pxNewTCB );
	}
	taskEXIT_CRITICAL();
 8002750:	f001 fa0a 	bl	8003b68 <vPortExitCritical>

	if( xSchedulerRunning != pdFALSE )
 8002754:	4b0d      	ldr	r3, [pc, #52]	; (800278c <prvAddNewTaskToReadyList+0xcc>)
 8002756:	681b      	ldr	r3, [r3, #0]
 8002758:	2b00      	cmp	r3, #0
 800275a:	d00e      	beq.n	800277a <prvAddNewTaskToReadyList+0xba>
	{
		/* If the created task is of a higher priority than the current task
		then it should run now. */
		if( pxCurrentTCB->uxPriority < pxNewTCB->uxPriority )
 800275c:	4b0a      	ldr	r3, [pc, #40]	; (8002788 <prvAddNewTaskToReadyList+0xc8>)
 800275e:	681b      	ldr	r3, [r3, #0]
 8002760:	6ada      	ldr	r2, [r3, #44]	; 0x2c
 8002762:	687b      	ldr	r3, [r7, #4]
 8002764:	6adb      	ldr	r3, [r3, #44]	; 0x2c
 8002766:	429a      	cmp	r2, r3
 8002768:	d207      	bcs.n	800277a <prvAddNewTaskToReadyList+0xba>
		{
			taskYIELD_IF_USING_PREEMPTION();
 800276a:	4b0c      	ldr	r3, [pc, #48]	; (800279c <prvAddNewTaskToReadyList+0xdc>)
 800276c:	f04f 5280 	mov.w	r2, #268435456	; 0x10000000
 8002770:	601a      	str	r2, [r3, #0]
 8002772:	f3bf 8f4f 	dsb	sy
 8002776:	f3bf 8f6f 	isb	sy
	}
	else
	{
		mtCOVERAGE_TEST_MARKER();
	}
}
 800277a:	bf00      	nop
 800277c:	3708      	adds	r7, #8
 800277e:	46bd      	mov	sp, r7
 8002780:	bd80      	pop	{r7, pc}
 8002782:	bf00      	nop
 8002784:	20000bbc 	.word	0x20000bbc
 8002788:	200006e8 	.word	0x200006e8
 800278c:	20000bc8 	.word	0x20000bc8
 8002790:	20000bd8 	.word	0x20000bd8
 8002794:	20000bc4 	.word	0x20000bc4
 8002798:	200006ec 	.word	0x200006ec
 800279c:	e000ed04 	.word	0xe000ed04

080027a0 <vTaskDelay>:
/*-----------------------------------------------------------*/

#if ( INCLUDE_vTaskDelay == 1 )

	void vTaskDelay( const TickType_t xTicksToDelay )
	{
 80027a0:	b580      	push	{r7, lr}
 80027a2:	b084      	sub	sp, #16
 80027a4:	af00      	add	r7, sp, #0
 80027a6:	6078      	str	r0, [r7, #4]
	BaseType_t xAlreadyYielded = pdFALSE;
 80027a8:	2300      	movs	r3, #0
 80027aa:	60fb      	str	r3, [r7, #12]

		/* A delay time of zero just forces a reschedule. */
		if( xTicksToDelay > ( TickType_t ) 0U )
 80027ac:	687b      	ldr	r3, [r7, #4]
 80027ae:	2b00      	cmp	r3, #0
 80027b0:	d016      	beq.n	80027e0 <vTaskDelay+0x40>
		{
			configASSERT( uxSchedulerSuspended == 0 );
 80027b2:	4b13      	ldr	r3, [pc, #76]	; (8002800 <vTaskDelay+0x60>)
 80027b4:	681b      	ldr	r3, [r3, #0]
 80027b6:	2b00      	cmp	r3, #0
 80027b8:	d009      	beq.n	80027ce <vTaskDelay+0x2e>
 80027ba:	f04f 0350 	mov.w	r3, #80	; 0x50
 80027be:	f383 8811 	msr	BASEPRI, r3
 80027c2:	f3bf 8f6f 	isb	sy
 80027c6:	f3bf 8f4f 	dsb	sy
 80027ca:	60bb      	str	r3, [r7, #8]
 80027cc:	e7fe      	b.n	80027cc <vTaskDelay+0x2c>
			vTaskSuspendAll();
 80027ce:	f000 f87f 	bl	80028d0 <vTaskSuspendAll>
				list or removed from the blocked list until the scheduler
				is resumed.

				This task cannot be in an event list as it is the currently
				executing task. */
				prvAddCurrentTaskToDelayedList( xTicksToDelay, pdFALSE );
 80027d2:	2100      	movs	r1, #0
 80027d4:	6878      	ldr	r0, [r7, #4]
 80027d6:	f000 fcd7 	bl	8003188 <prvAddCurrentTaskToDelayedList>
			}
			xAlreadyYielded = xTaskResumeAll();
 80027da:	f000 f887 	bl	80028ec <xTaskResumeAll>
 80027de:	60f8      	str	r0, [r7, #12]
			mtCOVERAGE_TEST_MARKER();
		}

		/* Force a reschedule if xTaskResumeAll has not already done so, we may
		have put ourselves to sleep. */
		if( xAlreadyYielded == pdFALSE )
 80027e0:	68fb      	ldr	r3, [r7, #12]
 80027e2:	2b00      	cmp	r3, #0
 80027e4:	d107      	bne.n	80027f6 <vTaskDelay+0x56>
		{
			portYIELD_WITHIN_API();
 80027e6:	4b07      	ldr	r3, [pc, #28]	; (8002804 <vTaskDelay+0x64>)
 80027e8:	f04f 5280 	mov.w	r2, #268435456	; 0x10000000
 80027ec:	601a      	str	r2, [r3, #0]
 80027ee:	f3bf 8f4f 	dsb	sy
 80027f2:	f3bf 8f6f 	isb	sy
		}
		else
		{
			mtCOVERAGE_TEST_MARKER();
		}
	}
 80027f6:	bf00      	nop
 80027f8:	3710      	adds	r7, #16
 80027fa:	46bd      	mov	sp, r7
 80027fc:	bd80      	pop	{r7, pc}
 80027fe:	bf00      	nop
 8002800:	20000be4 	.word	0x20000be4
 8002804:	e000ed04 	.word	0xe000ed04

08002808 <vTaskStartScheduler>:

#endif /* ( ( INCLUDE_xTaskResumeFromISR == 1 ) && ( INCLUDE_vTaskSuspend == 1 ) ) */
/*-----------------------------------------------------------*/

void vTaskStartScheduler( void )
{
 8002808:	b580      	push	{r7, lr}
 800280a:	b08a      	sub	sp, #40	; 0x28
 800280c:	af04      	add	r7, sp, #16
BaseType_t xReturn;

	/* Add the idle task at the lowest priority. */
	#if( configSUPPORT_STATIC_ALLOCATION == 1 )
	{
		StaticTask_t *pxIdleTaskTCBBuffer = NULL;
 800280e:	2300      	movs	r3, #0
 8002810:	60bb      	str	r3, [r7, #8]
		StackType_t *pxIdleTaskStackBuffer = NULL;
 8002812:	2300      	movs	r3, #0
 8002814:	607b      	str	r3, [r7, #4]
		uint32_t ulIdleTaskStackSize;

		/* The Idle task is created using user provided RAM - obtain the
		address of the RAM then create the idle task. */
		vApplicationGetIdleTaskMemory( &pxIdleTaskTCBBuffer, &pxIdleTaskStackBuffer, &ulIdleTaskStackSize );
 8002816:	463a      	mov	r2, r7
 8002818:	1d39      	adds	r1, r7, #4
 800281a:	f107 0308 	add.w	r3, r7, #8
 800281e:	4618      	mov	r0, r3
 8002820:	f7ff f864 	bl	80018ec <vApplicationGetIdleTaskMemory>
		xIdleTaskHandle = xTaskCreateStatic(	prvIdleTask,
 8002824:	6839      	ldr	r1, [r7, #0]
 8002826:	687b      	ldr	r3, [r7, #4]
 8002828:	68ba      	ldr	r2, [r7, #8]
 800282a:	9202      	str	r2, [sp, #8]
 800282c:	9301      	str	r3, [sp, #4]
 800282e:	2300      	movs	r3, #0
 8002830:	9300      	str	r3, [sp, #0]
 8002832:	2300      	movs	r3, #0
 8002834:	460a      	mov	r2, r1
 8002836:	4920      	ldr	r1, [pc, #128]	; (80028b8 <vTaskStartScheduler+0xb0>)
 8002838:	4820      	ldr	r0, [pc, #128]	; (80028bc <vTaskStartScheduler+0xb4>)
 800283a:	f7ff fe13 	bl	8002464 <xTaskCreateStatic>
 800283e:	4602      	mov	r2, r0
 8002840:	4b1f      	ldr	r3, [pc, #124]	; (80028c0 <vTaskStartScheduler+0xb8>)
 8002842:	601a      	str	r2, [r3, #0]
												( void * ) NULL, /*lint !e961.  The cast is not redundant for all compilers. */
												portPRIVILEGE_BIT, /* In effect ( tskIDLE_PRIORITY | portPRIVILEGE_BIT ), but tskIDLE_PRIORITY is zero. */
												pxIdleTaskStackBuffer,
												pxIdleTaskTCBBuffer ); /*lint !e961 MISRA exception, justified as it is not a redundant explicit cast to all supported compilers. */

		if( xIdleTaskHandle != NULL )
 8002844:	4b1e      	ldr	r3, [pc, #120]	; (80028c0 <vTaskStartScheduler+0xb8>)
 8002846:	681b      	ldr	r3, [r3, #0]
 8002848:	2b00      	cmp	r3, #0
 800284a:	d002      	beq.n	8002852 <vTaskStartScheduler+0x4a>
		{
			xReturn = pdPASS;
 800284c:	2301      	movs	r3, #1
 800284e:	617b      	str	r3, [r7, #20]
 8002850:	e001      	b.n	8002856 <vTaskStartScheduler+0x4e>
		}
		else
		{
			xReturn = pdFAIL;
 8002852:	2300      	movs	r3, #0
 8002854:	617b      	str	r3, [r7, #20]
	}
	#endif /* configSUPPORT_STATIC_ALLOCATION */

	#if ( configUSE_TIMERS == 1 )
	{
		if( xReturn == pdPASS )
 8002856:	697b      	ldr	r3, [r7, #20]
 8002858:	2b01      	cmp	r3, #1
 800285a:	d102      	bne.n	8002862 <vTaskStartScheduler+0x5a>
		{
			xReturn = xTimerCreateTimerTask();
 800285c:	f000 fce8 	bl	8003230 <xTimerCreateTimerTask>
 8002860:	6178      	str	r0, [r7, #20]
			mtCOVERAGE_TEST_MARKER();
		}
	}
	#endif /* configUSE_TIMERS */

	if( xReturn == pdPASS )
 8002862:	697b      	ldr	r3, [r7, #20]
 8002864:	2b01      	cmp	r3, #1
 8002866:	d115      	bne.n	8002894 <vTaskStartScheduler+0x8c>
 8002868:	f04f 0350 	mov.w	r3, #80	; 0x50
 800286c:	f383 8811 	msr	BASEPRI, r3
 8002870:	f3bf 8f6f 	isb	sy
 8002874:	f3bf 8f4f 	dsb	sy
 8002878:	613b      	str	r3, [r7, #16]
			structure specific to the task that will run first. */
			_impure_ptr = &( pxCurrentTCB->xNewLib_reent );
		}
		#endif /* configUSE_NEWLIB_REENTRANT */

		xNextTaskUnblockTime = portMAX_DELAY;
 800287a:	4b12      	ldr	r3, [pc, #72]	; (80028c4 <vTaskStartScheduler+0xbc>)
 800287c:	f04f 32ff 	mov.w	r2, #4294967295
 8002880:	601a      	str	r2, [r3, #0]
		xSchedulerRunning = pdTRUE;
 8002882:	4b11      	ldr	r3, [pc, #68]	; (80028c8 <vTaskStartScheduler+0xc0>)
 8002884:	2201      	movs	r2, #1
 8002886:	601a      	str	r2, [r3, #0]
		xTickCount = ( TickType_t ) configINITIAL_TICK_COUNT;
 8002888:	4b10      	ldr	r3, [pc, #64]	; (80028cc <vTaskStartScheduler+0xc4>)
 800288a:	2200      	movs	r2, #0
 800288c:	601a      	str	r2, [r3, #0]

		traceTASK_SWITCHED_IN();

		/* Setting up the timer tick is hardware specific and thus in the
		portable interface. */
		if( xPortStartScheduler() != pdFALSE )
 800288e:	f001 f89f 	bl	80039d0 <xPortStartScheduler>
	}

	/* Prevent compiler warnings if INCLUDE_xTaskGetIdleTaskHandle is set to 0,
	meaning xIdleTaskHandle is not used anywhere else. */
	( void ) xIdleTaskHandle;
}
 8002892:	e00d      	b.n	80028b0 <vTaskStartScheduler+0xa8>
		configASSERT( xReturn != errCOULD_NOT_ALLOCATE_REQUIRED_MEMORY );
 8002894:	697b      	ldr	r3, [r7, #20]
 8002896:	f1b3 3fff 	cmp.w	r3, #4294967295
 800289a:	d109      	bne.n	80028b0 <vTaskStartScheduler+0xa8>
 800289c:	f04f 0350 	mov.w	r3, #80	; 0x50
 80028a0:	f383 8811 	msr	BASEPRI, r3
 80028a4:	f3bf 8f6f 	isb	sy
 80028a8:	f3bf 8f4f 	dsb	sy
 80028ac:	60fb      	str	r3, [r7, #12]
 80028ae:	e7fe      	b.n	80028ae <vTaskStartScheduler+0xa6>
}
 80028b0:	bf00      	nop
 80028b2:	3718      	adds	r7, #24
 80028b4:	46bd      	mov	sp, r7
 80028b6:	bd80      	pop	{r7, pc}
 80028b8:	0800418c 	.word	0x0800418c
 80028bc:	08002ed1 	.word	0x08002ed1
 80028c0:	20000be0 	.word	0x20000be0
 80028c4:	20000bdc 	.word	0x20000bdc
 80028c8:	20000bc8 	.word	0x20000bc8
 80028cc:	20000bc0 	.word	0x20000bc0

080028d0 <vTaskSuspendAll>:
	vPortEndScheduler();
}
/*----------------------------------------------------------*/

void vTaskSuspendAll( void )
{
 80028d0:	b480      	push	{r7}
 80028d2:	af00      	add	r7, sp, #0
	/* A critical section is not required as the variable is of type
	BaseType_t.  Please read Richard Barry's reply in the following link to a
	post in the FreeRTOS support forum before reporting this as a bug! -
	http://goo.gl/wu4acr */
	++uxSchedulerSuspended;
 80028d4:	4b04      	ldr	r3, [pc, #16]	; (80028e8 <vTaskSuspendAll+0x18>)
 80028d6:	681b      	ldr	r3, [r3, #0]
 80028d8:	3301      	adds	r3, #1
 80028da:	4a03      	ldr	r2, [pc, #12]	; (80028e8 <vTaskSuspendAll+0x18>)
 80028dc:	6013      	str	r3, [r2, #0]
	portMEMORY_BARRIER();
}
 80028de:	bf00      	nop
 80028e0:	46bd      	mov	sp, r7
 80028e2:	f85d 7b04 	ldr.w	r7, [sp], #4
 80028e6:	4770      	bx	lr
 80028e8:	20000be4 	.word	0x20000be4

080028ec <xTaskResumeAll>:

#endif /* configUSE_TICKLESS_IDLE */
/*----------------------------------------------------------*/

BaseType_t xTaskResumeAll( void )
{
 80028ec:	b580      	push	{r7, lr}
 80028ee:	b084      	sub	sp, #16
 80028f0:	af00      	add	r7, sp, #0
TCB_t *pxTCB = NULL;
 80028f2:	2300      	movs	r3, #0
 80028f4:	60fb      	str	r3, [r7, #12]
BaseType_t xAlreadyYielded = pdFALSE;
 80028f6:	2300      	movs	r3, #0
 80028f8:	60bb      	str	r3, [r7, #8]

	/* If uxSchedulerSuspended is zero then this function does not match a
	previous call to vTaskSuspendAll(). */
	configASSERT( uxSchedulerSuspended );
 80028fa:	4b41      	ldr	r3, [pc, #260]	; (8002a00 <xTaskResumeAll+0x114>)
 80028fc:	681b      	ldr	r3, [r3, #0]
 80028fe:	2b00      	cmp	r3, #0
 8002900:	d109      	bne.n	8002916 <xTaskResumeAll+0x2a>
 8002902:	f04f 0350 	mov.w	r3, #80	; 0x50
 8002906:	f383 8811 	msr	BASEPRI, r3
 800290a:	f3bf 8f6f 	isb	sy
 800290e:	f3bf 8f4f 	dsb	sy
 8002912:	603b      	str	r3, [r7, #0]
 8002914:	e7fe      	b.n	8002914 <xTaskResumeAll+0x28>
	/* It is possible that an ISR caused a task to be removed from an event
	list while the scheduler was suspended.  If this was the case then the
	removed task will have been added to the xPendingReadyList.  Once the
	scheduler has been resumed it is safe to move all the pending ready
	tasks from this list into their appropriate ready list. */
	taskENTER_CRITICAL();
 8002916:	f001 f8f9 	bl	8003b0c <vPortEnterCritical>
	{
		--uxSchedulerSuspended;
 800291a:	4b39      	ldr	r3, [pc, #228]	; (8002a00 <xTaskResumeAll+0x114>)
 800291c:	681b      	ldr	r3, [r3, #0]
 800291e:	3b01      	subs	r3, #1
 8002920:	4a37      	ldr	r2, [pc, #220]	; (8002a00 <xTaskResumeAll+0x114>)
 8002922:	6013      	str	r3, [r2, #0]

		if( uxSchedulerSuspended == ( UBaseType_t ) pdFALSE )
 8002924:	4b36      	ldr	r3, [pc, #216]	; (8002a00 <xTaskResumeAll+0x114>)
 8002926:	681b      	ldr	r3, [r3, #0]
 8002928:	2b00      	cmp	r3, #0
 800292a:	d162      	bne.n	80029f2 <xTaskResumeAll+0x106>
		{
			if( uxCurrentNumberOfTasks > ( UBaseType_t ) 0U )
 800292c:	4b35      	ldr	r3, [pc, #212]	; (8002a04 <xTaskResumeAll+0x118>)
 800292e:	681b      	ldr	r3, [r3, #0]
 8002930:	2b00      	cmp	r3, #0
 8002932:	d05e      	beq.n	80029f2 <xTaskResumeAll+0x106>
			{
				/* Move any readied tasks from the pending list into the
				appropriate ready list. */
				while( listLIST_IS_EMPTY( &xPendingReadyList ) == pdFALSE )
 8002934:	e02f      	b.n	8002996 <xTaskResumeAll+0xaa>
				{
					pxTCB = listGET_OWNER_OF_HEAD_ENTRY( ( &xPendingReadyList ) ); /*lint !e9079 void * is used as this macro is used with timers and co-routines too.  Alignment is known to be fine as the type of the pointer stored and retrieved is the same. */
 8002936:	4b34      	ldr	r3, [pc, #208]	; (8002a08 <xTaskResumeAll+0x11c>)
 8002938:	68db      	ldr	r3, [r3, #12]
 800293a:	68db      	ldr	r3, [r3, #12]
 800293c:	60fb      	str	r3, [r7, #12]
					( void ) uxListRemove( &( pxTCB->xEventListItem ) );
 800293e:	68fb      	ldr	r3, [r7, #12]
 8002940:	3318      	adds	r3, #24
 8002942:	4618      	mov	r0, r3
 8002944:	f7ff f890 	bl	8001a68 <uxListRemove>
					( void ) uxListRemove( &( pxTCB->xStateListItem ) );
 8002948:	68fb      	ldr	r3, [r7, #12]
 800294a:	3304      	adds	r3, #4
 800294c:	4618      	mov	r0, r3
 800294e:	f7ff f88b 	bl	8001a68 <uxListRemove>
					prvAddTaskToReadyList( pxTCB );
 8002952:	68fb      	ldr	r3, [r7, #12]
 8002954:	6ada      	ldr	r2, [r3, #44]	; 0x2c
 8002956:	4b2d      	ldr	r3, [pc, #180]	; (8002a0c <xTaskResumeAll+0x120>)
 8002958:	681b      	ldr	r3, [r3, #0]
 800295a:	429a      	cmp	r2, r3
 800295c:	d903      	bls.n	8002966 <xTaskResumeAll+0x7a>
 800295e:	68fb      	ldr	r3, [r7, #12]
 8002960:	6adb      	ldr	r3, [r3, #44]	; 0x2c
 8002962:	4a2a      	ldr	r2, [pc, #168]	; (8002a0c <xTaskResumeAll+0x120>)
 8002964:	6013      	str	r3, [r2, #0]
 8002966:	68fb      	ldr	r3, [r7, #12]
 8002968:	6ada      	ldr	r2, [r3, #44]	; 0x2c
 800296a:	4613      	mov	r3, r2
 800296c:	009b      	lsls	r3, r3, #2
 800296e:	4413      	add	r3, r2
 8002970:	009b      	lsls	r3, r3, #2
 8002972:	4a27      	ldr	r2, [pc, #156]	; (8002a10 <xTaskResumeAll+0x124>)
 8002974:	441a      	add	r2, r3
 8002976:	68fb      	ldr	r3, [r7, #12]
 8002978:	3304      	adds	r3, #4
 800297a:	4619      	mov	r1, r3
 800297c:	4610      	mov	r0, r2
 800297e:	f7ff f816 	bl	80019ae <vListInsertEnd>

					/* If the moved task has a priority higher than the current
					task then a yield must be performed. */
					if( pxTCB->uxPriority >= pxCurrentTCB->uxPriority )
 8002982:	68fb      	ldr	r3, [r7, #12]
 8002984:	6ada      	ldr	r2, [r3, #44]	; 0x2c
 8002986:	4b23      	ldr	r3, [pc, #140]	; (8002a14 <xTaskResumeAll+0x128>)
 8002988:	681b      	ldr	r3, [r3, #0]
 800298a:	6adb      	ldr	r3, [r3, #44]	; 0x2c
 800298c:	429a      	cmp	r2, r3
 800298e:	d302      	bcc.n	8002996 <xTaskResumeAll+0xaa>
					{
						xYieldPending = pdTRUE;
 8002990:	4b21      	ldr	r3, [pc, #132]	; (8002a18 <xTaskResumeAll+0x12c>)
 8002992:	2201      	movs	r2, #1
 8002994:	601a      	str	r2, [r3, #0]
				while( listLIST_IS_EMPTY( &xPendingReadyList ) == pdFALSE )
 8002996:	4b1c      	ldr	r3, [pc, #112]	; (8002a08 <xTaskResumeAll+0x11c>)
 8002998:	681b      	ldr	r3, [r3, #0]
 800299a:	2b00      	cmp	r3, #0
 800299c:	d1cb      	bne.n	8002936 <xTaskResumeAll+0x4a>
					{
						mtCOVERAGE_TEST_MARKER();
					}
				}

				if( pxTCB != NULL )
 800299e:	68fb      	ldr	r3, [r7, #12]
 80029a0:	2b00      	cmp	r3, #0
 80029a2:	d001      	beq.n	80029a8 <xTaskResumeAll+0xbc>
					which may have prevented the next unblock time from being
					re-calculated, in which case re-calculate it now.  Mainly
					important for low power tickless implementations, where
					this can prevent an unnecessary exit from low power
					state. */
					prvResetNextTaskUnblockTime();
 80029a4:	f000 fb46 	bl	8003034 <prvResetNextTaskUnblockTime>
				/* If any ticks occurred while the scheduler was suspended then
				they should be processed now.  This ensures the tick count does
				not	slip, and that any delayed tasks are resumed at the correct
				time. */
				{
					UBaseType_t uxPendedCounts = uxPendedTicks; /* Non-volatile copy. */
 80029a8:	4b1c      	ldr	r3, [pc, #112]	; (8002a1c <xTaskResumeAll+0x130>)
 80029aa:	681b      	ldr	r3, [r3, #0]
 80029ac:	607b      	str	r3, [r7, #4]

					if( uxPendedCounts > ( UBaseType_t ) 0U )
 80029ae:	687b      	ldr	r3, [r7, #4]
 80029b0:	2b00      	cmp	r3, #0
 80029b2:	d010      	beq.n	80029d6 <xTaskResumeAll+0xea>
					{
						do
						{
							if( xTaskIncrementTick() != pdFALSE )
 80029b4:	f000 f846 	bl	8002a44 <xTaskIncrementTick>
 80029b8:	4603      	mov	r3, r0
 80029ba:	2b00      	cmp	r3, #0
 80029bc:	d002      	beq.n	80029c4 <xTaskResumeAll+0xd8>
							{
								xYieldPending = pdTRUE;
 80029be:	4b16      	ldr	r3, [pc, #88]	; (8002a18 <xTaskResumeAll+0x12c>)
 80029c0:	2201      	movs	r2, #1
 80029c2:	601a      	str	r2, [r3, #0]
							}
							else
							{
								mtCOVERAGE_TEST_MARKER();
							}
							--uxPendedCounts;
 80029c4:	687b      	ldr	r3, [r7, #4]
 80029c6:	3b01      	subs	r3, #1
 80029c8:	607b      	str	r3, [r7, #4]
						} while( uxPendedCounts > ( UBaseType_t ) 0U );
 80029ca:	687b      	ldr	r3, [r7, #4]
 80029cc:	2b00      	cmp	r3, #0
 80029ce:	d1f1      	bne.n	80029b4 <xTaskResumeAll+0xc8>

						uxPendedTicks = 0;
 80029d0:	4b12      	ldr	r3, [pc, #72]	; (8002a1c <xTaskResumeAll+0x130>)
 80029d2:	2200      	movs	r2, #0
 80029d4:	601a      	str	r2, [r3, #0]
					{
						mtCOVERAGE_TEST_MARKER();
					}
				}

				if( xYieldPending != pdFALSE )
 80029d6:	4b10      	ldr	r3, [pc, #64]	; (8002a18 <xTaskResumeAll+0x12c>)
 80029d8:	681b      	ldr	r3, [r3, #0]
 80029da:	2b00      	cmp	r3, #0
 80029dc:	d009      	beq.n	80029f2 <xTaskResumeAll+0x106>
				{
					#if( configUSE_PREEMPTION != 0 )
					{
						xAlreadyYielded = pdTRUE;
 80029de:	2301      	movs	r3, #1
 80029e0:	60bb      	str	r3, [r7, #8]
					}
					#endif
					taskYIELD_IF_USING_PREEMPTION();
 80029e2:	4b0f      	ldr	r3, [pc, #60]	; (8002a20 <xTaskResumeAll+0x134>)
 80029e4:	f04f 5280 	mov.w	r2, #268435456	; 0x10000000
 80029e8:	601a      	str	r2, [r3, #0]
 80029ea:	f3bf 8f4f 	dsb	sy
 80029ee:	f3bf 8f6f 	isb	sy
		else
		{
			mtCOVERAGE_TEST_MARKER();
		}
	}
	taskEXIT_CRITICAL();
 80029f2:	f001 f8b9 	bl	8003b68 <vPortExitCritical>

	return xAlreadyYielded;
 80029f6:	68bb      	ldr	r3, [r7, #8]
}
 80029f8:	4618      	mov	r0, r3
 80029fa:	3710      	adds	r7, #16
 80029fc:	46bd      	mov	sp, r7
 80029fe:	bd80      	pop	{r7, pc}
 8002a00:	20000be4 	.word	0x20000be4
 8002a04:	20000bbc 	.word	0x20000bbc
 8002a08:	20000b7c 	.word	0x20000b7c
 8002a0c:	20000bc4 	.word	0x20000bc4
 8002a10:	200006ec 	.word	0x200006ec
 8002a14:	200006e8 	.word	0x200006e8
 8002a18:	20000bd0 	.word	0x20000bd0
 8002a1c:	20000bcc 	.word	0x20000bcc
 8002a20:	e000ed04 	.word	0xe000ed04

08002a24 <xTaskGetTickCount>:
/*-----------------------------------------------------------*/

TickType_t xTaskGetTickCount( void )
{
 8002a24:	b480      	push	{r7}
 8002a26:	b083      	sub	sp, #12
 8002a28:	af00      	add	r7, sp, #0
TickType_t xTicks;

	/* Critical section required if running on a 16 bit processor. */
	portTICK_TYPE_ENTER_CRITICAL();
	{
		xTicks = xTickCount;
 8002a2a:	4b05      	ldr	r3, [pc, #20]	; (8002a40 <xTaskGetTickCount+0x1c>)
 8002a2c:	681b      	ldr	r3, [r3, #0]
 8002a2e:	607b      	str	r3, [r7, #4]
	}
	portTICK_TYPE_EXIT_CRITICAL();

	return xTicks;
 8002a30:	687b      	ldr	r3, [r7, #4]
}
 8002a32:	4618      	mov	r0, r3
 8002a34:	370c      	adds	r7, #12
 8002a36:	46bd      	mov	sp, r7
 8002a38:	f85d 7b04 	ldr.w	r7, [sp], #4
 8002a3c:	4770      	bx	lr
 8002a3e:	bf00      	nop
 8002a40:	20000bc0 	.word	0x20000bc0

08002a44 <xTaskIncrementTick>:

#endif /* INCLUDE_xTaskAbortDelay */
/*----------------------------------------------------------*/

BaseType_t xTaskIncrementTick( void )
{
 8002a44:	b580      	push	{r7, lr}
 8002a46:	b086      	sub	sp, #24
 8002a48:	af00      	add	r7, sp, #0
TCB_t * pxTCB;
TickType_t xItemValue;
BaseType_t xSwitchRequired = pdFALSE;
 8002a4a:	2300      	movs	r3, #0
 8002a4c:	617b      	str	r3, [r7, #20]

	/* Called by the portable layer each time a tick interrupt occurs.
	Increments the tick then checks to see if the new tick value will cause any
	tasks to be unblocked. */
	traceTASK_INCREMENT_TICK( xTickCount );
	if( uxSchedulerSuspended == ( UBaseType_t ) pdFALSE )
 8002a4e:	4b4e      	ldr	r3, [pc, #312]	; (8002b88 <xTaskIncrementTick+0x144>)
 8002a50:	681b      	ldr	r3, [r3, #0]
 8002a52:	2b00      	cmp	r3, #0
 8002a54:	f040 8088 	bne.w	8002b68 <xTaskIncrementTick+0x124>
	{
		/* Minor optimisation.  The tick count cannot change in this
		block. */
		const TickType_t xConstTickCount = xTickCount + ( TickType_t ) 1;
 8002a58:	4b4c      	ldr	r3, [pc, #304]	; (8002b8c <xTaskIncrementTick+0x148>)
 8002a5a:	681b      	ldr	r3, [r3, #0]
 8002a5c:	3301      	adds	r3, #1
 8002a5e:	613b      	str	r3, [r7, #16]

		/* Increment the RTOS tick, switching the delayed and overflowed
		delayed lists if it wraps to 0. */
		xTickCount = xConstTickCount;
 8002a60:	4a4a      	ldr	r2, [pc, #296]	; (8002b8c <xTaskIncrementTick+0x148>)
 8002a62:	693b      	ldr	r3, [r7, #16]
 8002a64:	6013      	str	r3, [r2, #0]

		if( xConstTickCount == ( TickType_t ) 0U ) /*lint !e774 'if' does not always evaluate to false as it is looking for an overflow. */
 8002a66:	693b      	ldr	r3, [r7, #16]
 8002a68:	2b00      	cmp	r3, #0
 8002a6a:	d11f      	bne.n	8002aac <xTaskIncrementTick+0x68>
		{
			taskSWITCH_DELAYED_LISTS();
 8002a6c:	4b48      	ldr	r3, [pc, #288]	; (8002b90 <xTaskIncrementTick+0x14c>)
 8002a6e:	681b      	ldr	r3, [r3, #0]
 8002a70:	681b      	ldr	r3, [r3, #0]
 8002a72:	2b00      	cmp	r3, #0
 8002a74:	d009      	beq.n	8002a8a <xTaskIncrementTick+0x46>
 8002a76:	f04f 0350 	mov.w	r3, #80	; 0x50
 8002a7a:	f383 8811 	msr	BASEPRI, r3
 8002a7e:	f3bf 8f6f 	isb	sy
 8002a82:	f3bf 8f4f 	dsb	sy
 8002a86:	603b      	str	r3, [r7, #0]
 8002a88:	e7fe      	b.n	8002a88 <xTaskIncrementTick+0x44>
 8002a8a:	4b41      	ldr	r3, [pc, #260]	; (8002b90 <xTaskIncrementTick+0x14c>)
 8002a8c:	681b      	ldr	r3, [r3, #0]
 8002a8e:	60fb      	str	r3, [r7, #12]
 8002a90:	4b40      	ldr	r3, [pc, #256]	; (8002b94 <xTaskIncrementTick+0x150>)
 8002a92:	681b      	ldr	r3, [r3, #0]
 8002a94:	4a3e      	ldr	r2, [pc, #248]	; (8002b90 <xTaskIncrementTick+0x14c>)
 8002a96:	6013      	str	r3, [r2, #0]
 8002a98:	4a3e      	ldr	r2, [pc, #248]	; (8002b94 <xTaskIncrementTick+0x150>)
 8002a9a:	68fb      	ldr	r3, [r7, #12]
 8002a9c:	6013      	str	r3, [r2, #0]
 8002a9e:	4b3e      	ldr	r3, [pc, #248]	; (8002b98 <xTaskIncrementTick+0x154>)
 8002aa0:	681b      	ldr	r3, [r3, #0]
 8002aa2:	3301      	adds	r3, #1
 8002aa4:	4a3c      	ldr	r2, [pc, #240]	; (8002b98 <xTaskIncrementTick+0x154>)
 8002aa6:	6013      	str	r3, [r2, #0]
 8002aa8:	f000 fac4 	bl	8003034 <prvResetNextTaskUnblockTime>

		/* See if this tick has made a timeout expire.  Tasks are stored in
		the	queue in the order of their wake time - meaning once one task
		has been found whose block time has not expired there is no need to
		look any further down the list. */
		if( xConstTickCount >= xNextTaskUnblockTime )
 8002aac:	4b3b      	ldr	r3, [pc, #236]	; (8002b9c <xTaskIncrementTick+0x158>)
 8002aae:	681b      	ldr	r3, [r3, #0]
 8002ab0:	693a      	ldr	r2, [r7, #16]
 8002ab2:	429a      	cmp	r2, r3
 8002ab4:	d349      	bcc.n	8002b4a <xTaskIncrementTick+0x106>
		{
			for( ;; )
			{
				if( listLIST_IS_EMPTY( pxDelayedTaskList ) != pdFALSE )
 8002ab6:	4b36      	ldr	r3, [pc, #216]	; (8002b90 <xTaskIncrementTick+0x14c>)
 8002ab8:	681b      	ldr	r3, [r3, #0]
 8002aba:	681b      	ldr	r3, [r3, #0]
 8002abc:	2b00      	cmp	r3, #0
 8002abe:	d104      	bne.n	8002aca <xTaskIncrementTick+0x86>
					/* The delayed list is empty.  Set xNextTaskUnblockTime
					to the maximum possible value so it is extremely
					unlikely that the
					if( xTickCount >= xNextTaskUnblockTime ) test will pass
					next time through. */
					xNextTaskUnblockTime = portMAX_DELAY; /*lint !e961 MISRA exception as the casts are only redundant for some ports. */
 8002ac0:	4b36      	ldr	r3, [pc, #216]	; (8002b9c <xTaskIncrementTick+0x158>)
 8002ac2:	f04f 32ff 	mov.w	r2, #4294967295
 8002ac6:	601a      	str	r2, [r3, #0]
					break;
 8002ac8:	e03f      	b.n	8002b4a <xTaskIncrementTick+0x106>
				{
					/* The delayed list is not empty, get the value of the
					item at the head of the delayed list.  This is the time
					at which the task at the head of the delayed list must
					be removed from the Blocked state. */
					pxTCB = listGET_OWNER_OF_HEAD_ENTRY( pxDelayedTaskList ); /*lint !e9079 void * is used as this macro is used with timers and co-routines too.  Alignment is known to be fine as the type of the pointer stored and retrieved is the same. */
 8002aca:	4b31      	ldr	r3, [pc, #196]	; (8002b90 <xTaskIncrementTick+0x14c>)
 8002acc:	681b      	ldr	r3, [r3, #0]
 8002ace:	68db      	ldr	r3, [r3, #12]
 8002ad0:	68db      	ldr	r3, [r3, #12]
 8002ad2:	60bb      	str	r3, [r7, #8]
					xItemValue = listGET_LIST_ITEM_VALUE( &( pxTCB->xStateListItem ) );
 8002ad4:	68bb      	ldr	r3, [r7, #8]
 8002ad6:	685b      	ldr	r3, [r3, #4]
 8002ad8:	607b      	str	r3, [r7, #4]

					if( xConstTickCount < xItemValue )
 8002ada:	693a      	ldr	r2, [r7, #16]
 8002adc:	687b      	ldr	r3, [r7, #4]
 8002ade:	429a      	cmp	r2, r3
 8002ae0:	d203      	bcs.n	8002aea <xTaskIncrementTick+0xa6>
						/* It is not time to unblock this item yet, but the
						item value is the time at which the task at the head
						of the blocked list must be removed from the Blocked
						state -	so record the item value in
						xNextTaskUnblockTime. */
						xNextTaskUnblockTime = xItemValue;
 8002ae2:	4a2e      	ldr	r2, [pc, #184]	; (8002b9c <xTaskIncrementTick+0x158>)
 8002ae4:	687b      	ldr	r3, [r7, #4]
 8002ae6:	6013      	str	r3, [r2, #0]
						break; /*lint !e9011 Code structure here is deedmed easier to understand with multiple breaks. */
 8002ae8:	e02f      	b.n	8002b4a <xTaskIncrementTick+0x106>
					{
						mtCOVERAGE_TEST_MARKER();
					}

					/* It is time to remove the item from the Blocked state. */
					( void ) uxListRemove( &( pxTCB->xStateListItem ) );
 8002aea:	68bb      	ldr	r3, [r7, #8]
 8002aec:	3304      	adds	r3, #4
 8002aee:	4618      	mov	r0, r3
 8002af0:	f7fe ffba 	bl	8001a68 <uxListRemove>

					/* Is the task waiting on an event also?  If so remove
					it from the event list. */
					if( listLIST_ITEM_CONTAINER( &( pxTCB->xEventListItem ) ) != NULL )
 8002af4:	68bb      	ldr	r3, [r7, #8]
 8002af6:	6a9b      	ldr	r3, [r3, #40]	; 0x28
 8002af8:	2b00      	cmp	r3, #0
 8002afa:	d004      	beq.n	8002b06 <xTaskIncrementTick+0xc2>
					{
						( void ) uxListRemove( &( pxTCB->xEventListItem ) );
 8002afc:	68bb      	ldr	r3, [r7, #8]
 8002afe:	3318      	adds	r3, #24
 8002b00:	4618      	mov	r0, r3
 8002b02:	f7fe ffb1 	bl	8001a68 <uxListRemove>
						mtCOVERAGE_TEST_MARKER();
					}

					/* Place the unblocked task into the appropriate ready
					list. */
					prvAddTaskToReadyList( pxTCB );
 8002b06:	68bb      	ldr	r3, [r7, #8]
 8002b08:	6ada      	ldr	r2, [r3, #44]	; 0x2c
 8002b0a:	4b25      	ldr	r3, [pc, #148]	; (8002ba0 <xTaskIncrementTick+0x15c>)
 8002b0c:	681b      	ldr	r3, [r3, #0]
 8002b0e:	429a      	cmp	r2, r3
 8002b10:	d903      	bls.n	8002b1a <xTaskIncrementTick+0xd6>
 8002b12:	68bb      	ldr	r3, [r7, #8]
 8002b14:	6adb      	ldr	r3, [r3, #44]	; 0x2c
 8002b16:	4a22      	ldr	r2, [pc, #136]	; (8002ba0 <xTaskIncrementTick+0x15c>)
 8002b18:	6013      	str	r3, [r2, #0]
 8002b1a:	68bb      	ldr	r3, [r7, #8]
 8002b1c:	6ada      	ldr	r2, [r3, #44]	; 0x2c
 8002b1e:	4613      	mov	r3, r2
 8002b20:	009b      	lsls	r3, r3, #2
 8002b22:	4413      	add	r3, r2
 8002b24:	009b      	lsls	r3, r3, #2
 8002b26:	4a1f      	ldr	r2, [pc, #124]	; (8002ba4 <xTaskIncrementTick+0x160>)
 8002b28:	441a      	add	r2, r3
 8002b2a:	68bb      	ldr	r3, [r7, #8]
 8002b2c:	3304      	adds	r3, #4
 8002b2e:	4619      	mov	r1, r3
 8002b30:	4610      	mov	r0, r2
 8002b32:	f7fe ff3c 	bl	80019ae <vListInsertEnd>
					{
						/* Preemption is on, but a context switch should
						only be performed if the unblocked task has a
						priority that is equal to or higher than the
						currently executing task. */
						if( pxTCB->uxPriority >= pxCurrentTCB->uxPriority )
 8002b36:	68bb      	ldr	r3, [r7, #8]
 8002b38:	6ada      	ldr	r2, [r3, #44]	; 0x2c
 8002b3a:	4b1b      	ldr	r3, [pc, #108]	; (8002ba8 <xTaskIncrementTick+0x164>)
 8002b3c:	681b      	ldr	r3, [r3, #0]
 8002b3e:	6adb      	ldr	r3, [r3, #44]	; 0x2c
 8002b40:	429a      	cmp	r2, r3
 8002b42:	d3b8      	bcc.n	8002ab6 <xTaskIncrementTick+0x72>
						{
							xSwitchRequired = pdTRUE;
 8002b44:	2301      	movs	r3, #1
 8002b46:	617b      	str	r3, [r7, #20]
				if( listLIST_IS_EMPTY( pxDelayedTaskList ) != pdFALSE )
 8002b48:	e7b5      	b.n	8002ab6 <xTaskIncrementTick+0x72>
		/* Tasks of equal priority to the currently running task will share
		processing time (time slice) if preemption is on, and the application
		writer has not explicitly turned time slicing off. */
		#if ( ( configUSE_PREEMPTION == 1 ) && ( configUSE_TIME_SLICING == 1 ) )
		{
			if( listCURRENT_LIST_LENGTH( &( pxReadyTasksLists[ pxCurrentTCB->uxPriority ] ) ) > ( UBaseType_t ) 1 )
 8002b4a:	4b17      	ldr	r3, [pc, #92]	; (8002ba8 <xTaskIncrementTick+0x164>)
 8002b4c:	681b      	ldr	r3, [r3, #0]
 8002b4e:	6ada      	ldr	r2, [r3, #44]	; 0x2c
 8002b50:	4914      	ldr	r1, [pc, #80]	; (8002ba4 <xTaskIncrementTick+0x160>)
 8002b52:	4613      	mov	r3, r2
 8002b54:	009b      	lsls	r3, r3, #2
 8002b56:	4413      	add	r3, r2
 8002b58:	009b      	lsls	r3, r3, #2
 8002b5a:	440b      	add	r3, r1
 8002b5c:	681b      	ldr	r3, [r3, #0]
 8002b5e:	2b01      	cmp	r3, #1
 8002b60:	d907      	bls.n	8002b72 <xTaskIncrementTick+0x12e>
			{
				xSwitchRequired = pdTRUE;
 8002b62:	2301      	movs	r3, #1
 8002b64:	617b      	str	r3, [r7, #20]
 8002b66:	e004      	b.n	8002b72 <xTaskIncrementTick+0x12e>
		}
		#endif /* configUSE_TICK_HOOK */
	}
	else
	{
		++uxPendedTicks;
 8002b68:	4b10      	ldr	r3, [pc, #64]	; (8002bac <xTaskIncrementTick+0x168>)
 8002b6a:	681b      	ldr	r3, [r3, #0]
 8002b6c:	3301      	adds	r3, #1
 8002b6e:	4a0f      	ldr	r2, [pc, #60]	; (8002bac <xTaskIncrementTick+0x168>)
 8002b70:	6013      	str	r3, [r2, #0]
		#endif
	}

	#if ( configUSE_PREEMPTION == 1 )
	{
		if( xYieldPending != pdFALSE )
 8002b72:	4b0f      	ldr	r3, [pc, #60]	; (8002bb0 <xTaskIncrementTick+0x16c>)
 8002b74:	681b      	ldr	r3, [r3, #0]
 8002b76:	2b00      	cmp	r3, #0
 8002b78:	d001      	beq.n	8002b7e <xTaskIncrementTick+0x13a>
		{
			xSwitchRequired = pdTRUE;
 8002b7a:	2301      	movs	r3, #1
 8002b7c:	617b      	str	r3, [r7, #20]
			mtCOVERAGE_TEST_MARKER();
		}
	}
	#endif /* configUSE_PREEMPTION */

	return xSwitchRequired;
 8002b7e:	697b      	ldr	r3, [r7, #20]
}
 8002b80:	4618      	mov	r0, r3
 8002b82:	3718      	adds	r7, #24
 8002b84:	46bd      	mov	sp, r7
 8002b86:	bd80      	pop	{r7, pc}
 8002b88:	20000be4 	.word	0x20000be4
 8002b8c:	20000bc0 	.word	0x20000bc0
 8002b90:	20000b74 	.word	0x20000b74
 8002b94:	20000b78 	.word	0x20000b78
 8002b98:	20000bd4 	.word	0x20000bd4
 8002b9c:	20000bdc 	.word	0x20000bdc
 8002ba0:	20000bc4 	.word	0x20000bc4
 8002ba4:	200006ec 	.word	0x200006ec
 8002ba8:	200006e8 	.word	0x200006e8
 8002bac:	20000bcc 	.word	0x20000bcc
 8002bb0:	20000bd0 	.word	0x20000bd0

08002bb4 <vTaskSwitchContext>:

#endif /* configUSE_APPLICATION_TASK_TAG */
/*-----------------------------------------------------------*/

void vTaskSwitchContext( void )
{
 8002bb4:	b480      	push	{r7}
 8002bb6:	b085      	sub	sp, #20
 8002bb8:	af00      	add	r7, sp, #0
	if( uxSchedulerSuspended != ( UBaseType_t ) pdFALSE )
 8002bba:	4b27      	ldr	r3, [pc, #156]	; (8002c58 <vTaskSwitchContext+0xa4>)
 8002bbc:	681b      	ldr	r3, [r3, #0]
 8002bbe:	2b00      	cmp	r3, #0
 8002bc0:	d003      	beq.n	8002bca <vTaskSwitchContext+0x16>
	{
		/* The scheduler is currently suspended - do not allow a context
		switch. */
		xYieldPending = pdTRUE;
 8002bc2:	4b26      	ldr	r3, [pc, #152]	; (8002c5c <vTaskSwitchContext+0xa8>)
 8002bc4:	2201      	movs	r2, #1
 8002bc6:	601a      	str	r2, [r3, #0]
			structure specific to this task. */
			_impure_ptr = &( pxCurrentTCB->xNewLib_reent );
		}
		#endif /* configUSE_NEWLIB_REENTRANT */
	}
}
 8002bc8:	e040      	b.n	8002c4c <vTaskSwitchContext+0x98>
		xYieldPending = pdFALSE;
 8002bca:	4b24      	ldr	r3, [pc, #144]	; (8002c5c <vTaskSwitchContext+0xa8>)
 8002bcc:	2200      	movs	r2, #0
 8002bce:	601a      	str	r2, [r3, #0]
		taskSELECT_HIGHEST_PRIORITY_TASK(); /*lint !e9079 void * is used as this macro is used with timers and co-routines too.  Alignment is known to be fine as the type of the pointer stored and retrieved is the same. */
 8002bd0:	4b23      	ldr	r3, [pc, #140]	; (8002c60 <vTaskSwitchContext+0xac>)
 8002bd2:	681b      	ldr	r3, [r3, #0]
 8002bd4:	60fb      	str	r3, [r7, #12]
 8002bd6:	e00f      	b.n	8002bf8 <vTaskSwitchContext+0x44>
 8002bd8:	68fb      	ldr	r3, [r7, #12]
 8002bda:	2b00      	cmp	r3, #0
 8002bdc:	d109      	bne.n	8002bf2 <vTaskSwitchContext+0x3e>
 8002bde:	f04f 0350 	mov.w	r3, #80	; 0x50
 8002be2:	f383 8811 	msr	BASEPRI, r3
 8002be6:	f3bf 8f6f 	isb	sy
 8002bea:	f3bf 8f4f 	dsb	sy
 8002bee:	607b      	str	r3, [r7, #4]
 8002bf0:	e7fe      	b.n	8002bf0 <vTaskSwitchContext+0x3c>
 8002bf2:	68fb      	ldr	r3, [r7, #12]
 8002bf4:	3b01      	subs	r3, #1
 8002bf6:	60fb      	str	r3, [r7, #12]
 8002bf8:	491a      	ldr	r1, [pc, #104]	; (8002c64 <vTaskSwitchContext+0xb0>)
 8002bfa:	68fa      	ldr	r2, [r7, #12]
 8002bfc:	4613      	mov	r3, r2
 8002bfe:	009b      	lsls	r3, r3, #2
 8002c00:	4413      	add	r3, r2
 8002c02:	009b      	lsls	r3, r3, #2
 8002c04:	440b      	add	r3, r1
 8002c06:	681b      	ldr	r3, [r3, #0]
 8002c08:	2b00      	cmp	r3, #0
 8002c0a:	d0e5      	beq.n	8002bd8 <vTaskSwitchContext+0x24>
 8002c0c:	68fa      	ldr	r2, [r7, #12]
 8002c0e:	4613      	mov	r3, r2
 8002c10:	009b      	lsls	r3, r3, #2
 8002c12:	4413      	add	r3, r2
 8002c14:	009b      	lsls	r3, r3, #2
 8002c16:	4a13      	ldr	r2, [pc, #76]	; (8002c64 <vTaskSwitchContext+0xb0>)
 8002c18:	4413      	add	r3, r2
 8002c1a:	60bb      	str	r3, [r7, #8]
 8002c1c:	68bb      	ldr	r3, [r7, #8]
 8002c1e:	685b      	ldr	r3, [r3, #4]
 8002c20:	685a      	ldr	r2, [r3, #4]
 8002c22:	68bb      	ldr	r3, [r7, #8]
 8002c24:	605a      	str	r2, [r3, #4]
 8002c26:	68bb      	ldr	r3, [r7, #8]
 8002c28:	685a      	ldr	r2, [r3, #4]
 8002c2a:	68bb      	ldr	r3, [r7, #8]
 8002c2c:	3308      	adds	r3, #8
 8002c2e:	429a      	cmp	r2, r3
 8002c30:	d104      	bne.n	8002c3c <vTaskSwitchContext+0x88>
 8002c32:	68bb      	ldr	r3, [r7, #8]
 8002c34:	685b      	ldr	r3, [r3, #4]
 8002c36:	685a      	ldr	r2, [r3, #4]
 8002c38:	68bb      	ldr	r3, [r7, #8]
 8002c3a:	605a      	str	r2, [r3, #4]
 8002c3c:	68bb      	ldr	r3, [r7, #8]
 8002c3e:	685b      	ldr	r3, [r3, #4]
 8002c40:	68db      	ldr	r3, [r3, #12]
 8002c42:	4a09      	ldr	r2, [pc, #36]	; (8002c68 <vTaskSwitchContext+0xb4>)
 8002c44:	6013      	str	r3, [r2, #0]
 8002c46:	4a06      	ldr	r2, [pc, #24]	; (8002c60 <vTaskSwitchContext+0xac>)
 8002c48:	68fb      	ldr	r3, [r7, #12]
 8002c4a:	6013      	str	r3, [r2, #0]
}
 8002c4c:	bf00      	nop
 8002c4e:	3714      	adds	r7, #20
 8002c50:	46bd      	mov	sp, r7
 8002c52:	f85d 7b04 	ldr.w	r7, [sp], #4
 8002c56:	4770      	bx	lr
 8002c58:	20000be4 	.word	0x20000be4
 8002c5c:	20000bd0 	.word	0x20000bd0
 8002c60:	20000bc4 	.word	0x20000bc4
 8002c64:	200006ec 	.word	0x200006ec
 8002c68:	200006e8 	.word	0x200006e8

08002c6c <vTaskPlaceOnEventList>:
/*-----------------------------------------------------------*/

void vTaskPlaceOnEventList( List_t * const pxEventList, const TickType_t xTicksToWait )
{
 8002c6c:	b580      	push	{r7, lr}
 8002c6e:	b084      	sub	sp, #16
 8002c70:	af00      	add	r7, sp, #0
 8002c72:	6078      	str	r0, [r7, #4]
 8002c74:	6039      	str	r1, [r7, #0]
	configASSERT( pxEventList );
 8002c76:	687b      	ldr	r3, [r7, #4]
 8002c78:	2b00      	cmp	r3, #0
 8002c7a:	d109      	bne.n	8002c90 <vTaskPlaceOnEventList+0x24>
 8002c7c:	f04f 0350 	mov.w	r3, #80	; 0x50
 8002c80:	f383 8811 	msr	BASEPRI, r3
 8002c84:	f3bf 8f6f 	isb	sy
 8002c88:	f3bf 8f4f 	dsb	sy
 8002c8c:	60fb      	str	r3, [r7, #12]
 8002c8e:	e7fe      	b.n	8002c8e <vTaskPlaceOnEventList+0x22>

	/* Place the event list item of the TCB in the appropriate event list.
	This is placed in the list in priority order so the highest priority task
	is the first to be woken by the event.  The queue that contains the event
	list is locked, preventing simultaneous access from interrupts. */
	vListInsert( pxEventList, &( pxCurrentTCB->xEventListItem ) );
 8002c90:	4b07      	ldr	r3, [pc, #28]	; (8002cb0 <vTaskPlaceOnEventList+0x44>)
 8002c92:	681b      	ldr	r3, [r3, #0]
 8002c94:	3318      	adds	r3, #24
 8002c96:	4619      	mov	r1, r3
 8002c98:	6878      	ldr	r0, [r7, #4]
 8002c9a:	f7fe feac 	bl	80019f6 <vListInsert>

	prvAddCurrentTaskToDelayedList( xTicksToWait, pdTRUE );
 8002c9e:	2101      	movs	r1, #1
 8002ca0:	6838      	ldr	r0, [r7, #0]
 8002ca2:	f000 fa71 	bl	8003188 <prvAddCurrentTaskToDelayedList>
}
 8002ca6:	bf00      	nop
 8002ca8:	3710      	adds	r7, #16
 8002caa:	46bd      	mov	sp, r7
 8002cac:	bd80      	pop	{r7, pc}
 8002cae:	bf00      	nop
 8002cb0:	200006e8 	.word	0x200006e8

08002cb4 <vTaskPlaceOnEventListRestricted>:
/*-----------------------------------------------------------*/

#if( configUSE_TIMERS == 1 )

	void vTaskPlaceOnEventListRestricted( List_t * const pxEventList, TickType_t xTicksToWait, const BaseType_t xWaitIndefinitely )
	{
 8002cb4:	b580      	push	{r7, lr}
 8002cb6:	b086      	sub	sp, #24
 8002cb8:	af00      	add	r7, sp, #0
 8002cba:	60f8      	str	r0, [r7, #12]
 8002cbc:	60b9      	str	r1, [r7, #8]
 8002cbe:	607a      	str	r2, [r7, #4]
		configASSERT( pxEventList );
 8002cc0:	68fb      	ldr	r3, [r7, #12]
 8002cc2:	2b00      	cmp	r3, #0
 8002cc4:	d109      	bne.n	8002cda <vTaskPlaceOnEventListRestricted+0x26>
 8002cc6:	f04f 0350 	mov.w	r3, #80	; 0x50
 8002cca:	f383 8811 	msr	BASEPRI, r3
 8002cce:	f3bf 8f6f 	isb	sy
 8002cd2:	f3bf 8f4f 	dsb	sy
 8002cd6:	617b      	str	r3, [r7, #20]
 8002cd8:	e7fe      	b.n	8002cd8 <vTaskPlaceOnEventListRestricted+0x24>

		/* Place the event list item of the TCB in the appropriate event list.
		In this case it is assume that this is the only task that is going to
		be waiting on this event list, so the faster vListInsertEnd() function
		can be used in place of vListInsert. */
		vListInsertEnd( pxEventList, &( pxCurrentTCB->xEventListItem ) );
 8002cda:	4b0a      	ldr	r3, [pc, #40]	; (8002d04 <vTaskPlaceOnEventListRestricted+0x50>)
 8002cdc:	681b      	ldr	r3, [r3, #0]
 8002cde:	3318      	adds	r3, #24
 8002ce0:	4619      	mov	r1, r3
 8002ce2:	68f8      	ldr	r0, [r7, #12]
 8002ce4:	f7fe fe63 	bl	80019ae <vListInsertEnd>

		/* If the task should block indefinitely then set the block time to a
		value that will be recognised as an indefinite delay inside the
		prvAddCurrentTaskToDelayedList() function. */
		if( xWaitIndefinitely != pdFALSE )
 8002ce8:	687b      	ldr	r3, [r7, #4]
 8002cea:	2b00      	cmp	r3, #0
 8002cec:	d002      	beq.n	8002cf4 <vTaskPlaceOnEventListRestricted+0x40>
		{
			xTicksToWait = portMAX_DELAY;
 8002cee:	f04f 33ff 	mov.w	r3, #4294967295
 8002cf2:	60bb      	str	r3, [r7, #8]
		}

		traceTASK_DELAY_UNTIL( ( xTickCount + xTicksToWait ) );
		prvAddCurrentTaskToDelayedList( xTicksToWait, xWaitIndefinitely );
 8002cf4:	6879      	ldr	r1, [r7, #4]
 8002cf6:	68b8      	ldr	r0, [r7, #8]
 8002cf8:	f000 fa46 	bl	8003188 <prvAddCurrentTaskToDelayedList>
	}
 8002cfc:	bf00      	nop
 8002cfe:	3718      	adds	r7, #24
 8002d00:	46bd      	mov	sp, r7
 8002d02:	bd80      	pop	{r7, pc}
 8002d04:	200006e8 	.word	0x200006e8

08002d08 <xTaskRemoveFromEventList>:

#endif /* configUSE_TIMERS */
/*-----------------------------------------------------------*/

BaseType_t xTaskRemoveFromEventList( const List_t * const pxEventList )
{
 8002d08:	b580      	push	{r7, lr}
 8002d0a:	b086      	sub	sp, #24
 8002d0c:	af00      	add	r7, sp, #0
 8002d0e:	6078      	str	r0, [r7, #4]
	get called - the lock count on the queue will get modified instead.  This
	means exclusive access to the event list is guaranteed here.

	This function assumes that a check has already been made to ensure that
	pxEventList is not empty. */
	pxUnblockedTCB = listGET_OWNER_OF_HEAD_ENTRY( pxEventList ); /*lint !e9079 void * is used as this macro is used with timers and co-routines too.  Alignment is known to be fine as the type of the pointer stored and retrieved is the same. */
 8002d10:	687b      	ldr	r3, [r7, #4]
 8002d12:	68db      	ldr	r3, [r3, #12]
 8002d14:	68db      	ldr	r3, [r3, #12]
 8002d16:	613b      	str	r3, [r7, #16]
	configASSERT( pxUnblockedTCB );
 8002d18:	693b      	ldr	r3, [r7, #16]
 8002d1a:	2b00      	cmp	r3, #0
 8002d1c:	d109      	bne.n	8002d32 <xTaskRemoveFromEventList+0x2a>
 8002d1e:	f04f 0350 	mov.w	r3, #80	; 0x50
 8002d22:	f383 8811 	msr	BASEPRI, r3
 8002d26:	f3bf 8f6f 	isb	sy
 8002d2a:	f3bf 8f4f 	dsb	sy
 8002d2e:	60fb      	str	r3, [r7, #12]
 8002d30:	e7fe      	b.n	8002d30 <xTaskRemoveFromEventList+0x28>
	( void ) uxListRemove( &( pxUnblockedTCB->xEventListItem ) );
 8002d32:	693b      	ldr	r3, [r7, #16]
 8002d34:	3318      	adds	r3, #24
 8002d36:	4618      	mov	r0, r3
 8002d38:	f7fe fe96 	bl	8001a68 <uxListRemove>

	if( uxSchedulerSuspended == ( UBaseType_t ) pdFALSE )
 8002d3c:	4b1d      	ldr	r3, [pc, #116]	; (8002db4 <xTaskRemoveFromEventList+0xac>)
 8002d3e:	681b      	ldr	r3, [r3, #0]
 8002d40:	2b00      	cmp	r3, #0
 8002d42:	d11d      	bne.n	8002d80 <xTaskRemoveFromEventList+0x78>
	{
		( void ) uxListRemove( &( pxUnblockedTCB->xStateListItem ) );
 8002d44:	693b      	ldr	r3, [r7, #16]
 8002d46:	3304      	adds	r3, #4
 8002d48:	4618      	mov	r0, r3
 8002d4a:	f7fe fe8d 	bl	8001a68 <uxListRemove>
		prvAddTaskToReadyList( pxUnblockedTCB );
 8002d4e:	693b      	ldr	r3, [r7, #16]
 8002d50:	6ada      	ldr	r2, [r3, #44]	; 0x2c
 8002d52:	4b19      	ldr	r3, [pc, #100]	; (8002db8 <xTaskRemoveFromEventList+0xb0>)
 8002d54:	681b      	ldr	r3, [r3, #0]
 8002d56:	429a      	cmp	r2, r3
 8002d58:	d903      	bls.n	8002d62 <xTaskRemoveFromEventList+0x5a>
 8002d5a:	693b      	ldr	r3, [r7, #16]
 8002d5c:	6adb      	ldr	r3, [r3, #44]	; 0x2c
 8002d5e:	4a16      	ldr	r2, [pc, #88]	; (8002db8 <xTaskRemoveFromEventList+0xb0>)
 8002d60:	6013      	str	r3, [r2, #0]
 8002d62:	693b      	ldr	r3, [r7, #16]
 8002d64:	6ada      	ldr	r2, [r3, #44]	; 0x2c
 8002d66:	4613      	mov	r3, r2
 8002d68:	009b      	lsls	r3, r3, #2
 8002d6a:	4413      	add	r3, r2
 8002d6c:	009b      	lsls	r3, r3, #2
 8002d6e:	4a13      	ldr	r2, [pc, #76]	; (8002dbc <xTaskRemoveFromEventList+0xb4>)
 8002d70:	441a      	add	r2, r3
 8002d72:	693b      	ldr	r3, [r7, #16]
 8002d74:	3304      	adds	r3, #4
 8002d76:	4619      	mov	r1, r3
 8002d78:	4610      	mov	r0, r2
 8002d7a:	f7fe fe18 	bl	80019ae <vListInsertEnd>
 8002d7e:	e005      	b.n	8002d8c <xTaskRemoveFromEventList+0x84>
	}
	else
	{
		/* The delayed and ready lists cannot be accessed, so hold this task
		pending until the scheduler is resumed. */
		vListInsertEnd( &( xPendingReadyList ), &( pxUnblockedTCB->xEventListItem ) );
 8002d80:	693b      	ldr	r3, [r7, #16]
 8002d82:	3318      	adds	r3, #24
 8002d84:	4619      	mov	r1, r3
 8002d86:	480e      	ldr	r0, [pc, #56]	; (8002dc0 <xTaskRemoveFromEventList+0xb8>)
 8002d88:	f7fe fe11 	bl	80019ae <vListInsertEnd>
	}

	if( pxUnblockedTCB->uxPriority > pxCurrentTCB->uxPriority )
 8002d8c:	693b      	ldr	r3, [r7, #16]
 8002d8e:	6ada      	ldr	r2, [r3, #44]	; 0x2c
 8002d90:	4b0c      	ldr	r3, [pc, #48]	; (8002dc4 <xTaskRemoveFromEventList+0xbc>)
 8002d92:	681b      	ldr	r3, [r3, #0]
 8002d94:	6adb      	ldr	r3, [r3, #44]	; 0x2c
 8002d96:	429a      	cmp	r2, r3
 8002d98:	d905      	bls.n	8002da6 <xTaskRemoveFromEventList+0x9e>
	{
		/* Return true if the task removed from the event list has a higher
		priority than the calling task.  This allows the calling task to know if
		it should force a context switch now. */
		xReturn = pdTRUE;
 8002d9a:	2301      	movs	r3, #1
 8002d9c:	617b      	str	r3, [r7, #20]

		/* Mark that a yield is pending in case the user is not using the
		"xHigherPriorityTaskWoken" parameter to an ISR safe FreeRTOS function. */
		xYieldPending = pdTRUE;
 8002d9e:	4b0a      	ldr	r3, [pc, #40]	; (8002dc8 <xTaskRemoveFromEventList+0xc0>)
 8002da0:	2201      	movs	r2, #1
 8002da2:	601a      	str	r2, [r3, #0]
 8002da4:	e001      	b.n	8002daa <xTaskRemoveFromEventList+0xa2>
	}
	else
	{
		xReturn = pdFALSE;
 8002da6:	2300      	movs	r3, #0
 8002da8:	617b      	str	r3, [r7, #20]
	}

	return xReturn;
 8002daa:	697b      	ldr	r3, [r7, #20]
}
 8002dac:	4618      	mov	r0, r3
 8002dae:	3718      	adds	r7, #24
 8002db0:	46bd      	mov	sp, r7
 8002db2:	bd80      	pop	{r7, pc}
 8002db4:	20000be4 	.word	0x20000be4
 8002db8:	20000bc4 	.word	0x20000bc4
 8002dbc:	200006ec 	.word	0x200006ec
 8002dc0:	20000b7c 	.word	0x20000b7c
 8002dc4:	200006e8 	.word	0x200006e8
 8002dc8:	20000bd0 	.word	0x20000bd0

08002dcc <vTaskInternalSetTimeOutState>:
	taskEXIT_CRITICAL();
}
/*-----------------------------------------------------------*/

void vTaskInternalSetTimeOutState( TimeOut_t * const pxTimeOut )
{
 8002dcc:	b480      	push	{r7}
 8002dce:	b083      	sub	sp, #12
 8002dd0:	af00      	add	r7, sp, #0
 8002dd2:	6078      	str	r0, [r7, #4]
	/* For internal use only as it does not use a critical section. */
	pxTimeOut->xOverflowCount = xNumOfOverflows;
 8002dd4:	4b06      	ldr	r3, [pc, #24]	; (8002df0 <vTaskInternalSetTimeOutState+0x24>)
 8002dd6:	681a      	ldr	r2, [r3, #0]
 8002dd8:	687b      	ldr	r3, [r7, #4]
 8002dda:	601a      	str	r2, [r3, #0]
	pxTimeOut->xTimeOnEntering = xTickCount;
 8002ddc:	4b05      	ldr	r3, [pc, #20]	; (8002df4 <vTaskInternalSetTimeOutState+0x28>)
 8002dde:	681a      	ldr	r2, [r3, #0]
 8002de0:	687b      	ldr	r3, [r7, #4]
 8002de2:	605a      	str	r2, [r3, #4]
}
 8002de4:	bf00      	nop
 8002de6:	370c      	adds	r7, #12
 8002de8:	46bd      	mov	sp, r7
 8002dea:	f85d 7b04 	ldr.w	r7, [sp], #4
 8002dee:	4770      	bx	lr
 8002df0:	20000bd4 	.word	0x20000bd4
 8002df4:	20000bc0 	.word	0x20000bc0

08002df8 <xTaskCheckForTimeOut>:
/*-----------------------------------------------------------*/

BaseType_t xTaskCheckForTimeOut( TimeOut_t * const pxTimeOut, TickType_t * const pxTicksToWait )
{
 8002df8:	b580      	push	{r7, lr}
 8002dfa:	b088      	sub	sp, #32
 8002dfc:	af00      	add	r7, sp, #0
 8002dfe:	6078      	str	r0, [r7, #4]
 8002e00:	6039      	str	r1, [r7, #0]
BaseType_t xReturn;

	configASSERT( pxTimeOut );
 8002e02:	687b      	ldr	r3, [r7, #4]
 8002e04:	2b00      	cmp	r3, #0
 8002e06:	d109      	bne.n	8002e1c <xTaskCheckForTimeOut+0x24>
 8002e08:	f04f 0350 	mov.w	r3, #80	; 0x50
 8002e0c:	f383 8811 	msr	BASEPRI, r3
 8002e10:	f3bf 8f6f 	isb	sy
 8002e14:	f3bf 8f4f 	dsb	sy
 8002e18:	613b      	str	r3, [r7, #16]
 8002e1a:	e7fe      	b.n	8002e1a <xTaskCheckForTimeOut+0x22>
	configASSERT( pxTicksToWait );
 8002e1c:	683b      	ldr	r3, [r7, #0]
 8002e1e:	2b00      	cmp	r3, #0
 8002e20:	d109      	bne.n	8002e36 <xTaskCheckForTimeOut+0x3e>
 8002e22:	f04f 0350 	mov.w	r3, #80	; 0x50
 8002e26:	f383 8811 	msr	BASEPRI, r3
 8002e2a:	f3bf 8f6f 	isb	sy
 8002e2e:	f3bf 8f4f 	dsb	sy
 8002e32:	60fb      	str	r3, [r7, #12]
 8002e34:	e7fe      	b.n	8002e34 <xTaskCheckForTimeOut+0x3c>

	taskENTER_CRITICAL();
 8002e36:	f000 fe69 	bl	8003b0c <vPortEnterCritical>
	{
		/* Minor optimisation.  The tick count cannot change in this block. */
		const TickType_t xConstTickCount = xTickCount;
 8002e3a:	4b1d      	ldr	r3, [pc, #116]	; (8002eb0 <xTaskCheckForTimeOut+0xb8>)
 8002e3c:	681b      	ldr	r3, [r3, #0]
 8002e3e:	61bb      	str	r3, [r7, #24]
		const TickType_t xElapsedTime = xConstTickCount - pxTimeOut->xTimeOnEntering;
 8002e40:	687b      	ldr	r3, [r7, #4]
 8002e42:	685b      	ldr	r3, [r3, #4]
 8002e44:	69ba      	ldr	r2, [r7, #24]
 8002e46:	1ad3      	subs	r3, r2, r3
 8002e48:	617b      	str	r3, [r7, #20]
			}
			else
		#endif

		#if ( INCLUDE_vTaskSuspend == 1 )
			if( *pxTicksToWait == portMAX_DELAY )
 8002e4a:	683b      	ldr	r3, [r7, #0]
 8002e4c:	681b      	ldr	r3, [r3, #0]
 8002e4e:	f1b3 3fff 	cmp.w	r3, #4294967295
 8002e52:	d102      	bne.n	8002e5a <xTaskCheckForTimeOut+0x62>
			{
				/* If INCLUDE_vTaskSuspend is set to 1 and the block time
				specified is the maximum block time then the task should block
				indefinitely, and therefore never time out. */
				xReturn = pdFALSE;
 8002e54:	2300      	movs	r3, #0
 8002e56:	61fb      	str	r3, [r7, #28]
 8002e58:	e023      	b.n	8002ea2 <xTaskCheckForTimeOut+0xaa>
			}
			else
		#endif

		if( ( xNumOfOverflows != pxTimeOut->xOverflowCount ) && ( xConstTickCount >= pxTimeOut->xTimeOnEntering ) ) /*lint !e525 Indentation preferred as is to make code within pre-processor directives clearer. */
 8002e5a:	687b      	ldr	r3, [r7, #4]
 8002e5c:	681a      	ldr	r2, [r3, #0]
 8002e5e:	4b15      	ldr	r3, [pc, #84]	; (8002eb4 <xTaskCheckForTimeOut+0xbc>)
 8002e60:	681b      	ldr	r3, [r3, #0]
 8002e62:	429a      	cmp	r2, r3
 8002e64:	d007      	beq.n	8002e76 <xTaskCheckForTimeOut+0x7e>
 8002e66:	687b      	ldr	r3, [r7, #4]
 8002e68:	685b      	ldr	r3, [r3, #4]
 8002e6a:	69ba      	ldr	r2, [r7, #24]
 8002e6c:	429a      	cmp	r2, r3
 8002e6e:	d302      	bcc.n	8002e76 <xTaskCheckForTimeOut+0x7e>
			/* The tick count is greater than the time at which
			vTaskSetTimeout() was called, but has also overflowed since
			vTaskSetTimeOut() was called.  It must have wrapped all the way
			around and gone past again. This passed since vTaskSetTimeout()
			was called. */
			xReturn = pdTRUE;
 8002e70:	2301      	movs	r3, #1
 8002e72:	61fb      	str	r3, [r7, #28]
 8002e74:	e015      	b.n	8002ea2 <xTaskCheckForTimeOut+0xaa>
		}
		else if( xElapsedTime < *pxTicksToWait ) /*lint !e961 Explicit casting is only redundant with some compilers, whereas others require it to prevent integer conversion errors. */
 8002e76:	683b      	ldr	r3, [r7, #0]
 8002e78:	681b      	ldr	r3, [r3, #0]
 8002e7a:	697a      	ldr	r2, [r7, #20]
 8002e7c:	429a      	cmp	r2, r3
 8002e7e:	d20b      	bcs.n	8002e98 <xTaskCheckForTimeOut+0xa0>
		{
			/* Not a genuine timeout. Adjust parameters for time remaining. */
			*pxTicksToWait -= xElapsedTime;
 8002e80:	683b      	ldr	r3, [r7, #0]
 8002e82:	681a      	ldr	r2, [r3, #0]
 8002e84:	697b      	ldr	r3, [r7, #20]
 8002e86:	1ad2      	subs	r2, r2, r3
 8002e88:	683b      	ldr	r3, [r7, #0]
 8002e8a:	601a      	str	r2, [r3, #0]
			vTaskInternalSetTimeOutState( pxTimeOut );
 8002e8c:	6878      	ldr	r0, [r7, #4]
 8002e8e:	f7ff ff9d 	bl	8002dcc <vTaskInternalSetTimeOutState>
			xReturn = pdFALSE;
 8002e92:	2300      	movs	r3, #0
 8002e94:	61fb      	str	r3, [r7, #28]
 8002e96:	e004      	b.n	8002ea2 <xTaskCheckForTimeOut+0xaa>
		}
		else
		{
			*pxTicksToWait = 0;
 8002e98:	683b      	ldr	r3, [r7, #0]
 8002e9a:	2200      	movs	r2, #0
 8002e9c:	601a      	str	r2, [r3, #0]
			xReturn = pdTRUE;
 8002e9e:	2301      	movs	r3, #1
 8002ea0:	61fb      	str	r3, [r7, #28]
		}
	}
	taskEXIT_CRITICAL();
 8002ea2:	f000 fe61 	bl	8003b68 <vPortExitCritical>

	return xReturn;
 8002ea6:	69fb      	ldr	r3, [r7, #28]
}
 8002ea8:	4618      	mov	r0, r3
 8002eaa:	3720      	adds	r7, #32
 8002eac:	46bd      	mov	sp, r7
 8002eae:	bd80      	pop	{r7, pc}
 8002eb0:	20000bc0 	.word	0x20000bc0
 8002eb4:	20000bd4 	.word	0x20000bd4

08002eb8 <vTaskMissedYield>:
/*-----------------------------------------------------------*/

void vTaskMissedYield( void )
{
 8002eb8:	b480      	push	{r7}
 8002eba:	af00      	add	r7, sp, #0
	xYieldPending = pdTRUE;
 8002ebc:	4b03      	ldr	r3, [pc, #12]	; (8002ecc <vTaskMissedYield+0x14>)
 8002ebe:	2201      	movs	r2, #1
 8002ec0:	601a      	str	r2, [r3, #0]
}
 8002ec2:	bf00      	nop
 8002ec4:	46bd      	mov	sp, r7
 8002ec6:	f85d 7b04 	ldr.w	r7, [sp], #4
 8002eca:	4770      	bx	lr
 8002ecc:	20000bd0 	.word	0x20000bd0

08002ed0 <prvIdleTask>:
 *
 * void prvIdleTask( void *pvParameters );
 *
 */
static portTASK_FUNCTION( prvIdleTask, pvParameters )
{
 8002ed0:	b580      	push	{r7, lr}
 8002ed2:	b082      	sub	sp, #8
 8002ed4:	af00      	add	r7, sp, #0
 8002ed6:	6078      	str	r0, [r7, #4]

	for( ;; )
	{
		/* See if any tasks have deleted themselves - if so then the idle task
		is responsible for freeing the deleted task's TCB and stack. */
		prvCheckTasksWaitingTermination();
 8002ed8:	f000 f852 	bl	8002f80 <prvCheckTasksWaitingTermination>

			A critical region is not required here as we are just reading from
			the list, and an occasional incorrect value will not matter.  If
			the ready list at the idle priority contains more than one task
			then a task other than the idle task is ready to execute. */
			if( listCURRENT_LIST_LENGTH( &( pxReadyTasksLists[ tskIDLE_PRIORITY ] ) ) > ( UBaseType_t ) 1 )
 8002edc:	4b06      	ldr	r3, [pc, #24]	; (8002ef8 <prvIdleTask+0x28>)
 8002ede:	681b      	ldr	r3, [r3, #0]
 8002ee0:	2b01      	cmp	r3, #1
 8002ee2:	d9f9      	bls.n	8002ed8 <prvIdleTask+0x8>
			{
				taskYIELD();
 8002ee4:	4b05      	ldr	r3, [pc, #20]	; (8002efc <prvIdleTask+0x2c>)
 8002ee6:	f04f 5280 	mov.w	r2, #268435456	; 0x10000000
 8002eea:	601a      	str	r2, [r3, #0]
 8002eec:	f3bf 8f4f 	dsb	sy
 8002ef0:	f3bf 8f6f 	isb	sy
		prvCheckTasksWaitingTermination();
 8002ef4:	e7f0      	b.n	8002ed8 <prvIdleTask+0x8>
 8002ef6:	bf00      	nop
 8002ef8:	200006ec 	.word	0x200006ec
 8002efc:	e000ed04 	.word	0xe000ed04

08002f00 <prvInitialiseTaskLists>:

#endif /* portUSING_MPU_WRAPPERS */
/*-----------------------------------------------------------*/

static void prvInitialiseTaskLists( void )
{
 8002f00:	b580      	push	{r7, lr}
 8002f02:	b082      	sub	sp, #8
 8002f04:	af00      	add	r7, sp, #0
UBaseType_t uxPriority;

	for( uxPriority = ( UBaseType_t ) 0U; uxPriority < ( UBaseType_t ) configMAX_PRIORITIES; uxPriority++ )
 8002f06:	2300      	movs	r3, #0
 8002f08:	607b      	str	r3, [r7, #4]
 8002f0a:	e00c      	b.n	8002f26 <prvInitialiseTaskLists+0x26>
	{
		vListInitialise( &( pxReadyTasksLists[ uxPriority ] ) );
 8002f0c:	687a      	ldr	r2, [r7, #4]
 8002f0e:	4613      	mov	r3, r2
 8002f10:	009b      	lsls	r3, r3, #2
 8002f12:	4413      	add	r3, r2
 8002f14:	009b      	lsls	r3, r3, #2
 8002f16:	4a12      	ldr	r2, [pc, #72]	; (8002f60 <prvInitialiseTaskLists+0x60>)
 8002f18:	4413      	add	r3, r2
 8002f1a:	4618      	mov	r0, r3
 8002f1c:	f7fe fd1a 	bl	8001954 <vListInitialise>
	for( uxPriority = ( UBaseType_t ) 0U; uxPriority < ( UBaseType_t ) configMAX_PRIORITIES; uxPriority++ )
 8002f20:	687b      	ldr	r3, [r7, #4]
 8002f22:	3301      	adds	r3, #1
 8002f24:	607b      	str	r3, [r7, #4]
 8002f26:	687b      	ldr	r3, [r7, #4]
 8002f28:	2b37      	cmp	r3, #55	; 0x37
 8002f2a:	d9ef      	bls.n	8002f0c <prvInitialiseTaskLists+0xc>
	}

	vListInitialise( &xDelayedTaskList1 );
 8002f2c:	480d      	ldr	r0, [pc, #52]	; (8002f64 <prvInitialiseTaskLists+0x64>)
 8002f2e:	f7fe fd11 	bl	8001954 <vListInitialise>
	vListInitialise( &xDelayedTaskList2 );
 8002f32:	480d      	ldr	r0, [pc, #52]	; (8002f68 <prvInitialiseTaskLists+0x68>)
 8002f34:	f7fe fd0e 	bl	8001954 <vListInitialise>
	vListInitialise( &xPendingReadyList );
 8002f38:	480c      	ldr	r0, [pc, #48]	; (8002f6c <prvInitialiseTaskLists+0x6c>)
 8002f3a:	f7fe fd0b 	bl	8001954 <vListInitialise>

	#if ( INCLUDE_vTaskDelete == 1 )
	{
		vListInitialise( &xTasksWaitingTermination );
 8002f3e:	480c      	ldr	r0, [pc, #48]	; (8002f70 <prvInitialiseTaskLists+0x70>)
 8002f40:	f7fe fd08 	bl	8001954 <vListInitialise>
	}
	#endif /* INCLUDE_vTaskDelete */

	#if ( INCLUDE_vTaskSuspend == 1 )
	{
		vListInitialise( &xSuspendedTaskList );
 8002f44:	480b      	ldr	r0, [pc, #44]	; (8002f74 <prvInitialiseTaskLists+0x74>)
 8002f46:	f7fe fd05 	bl	8001954 <vListInitialise>
	}
	#endif /* INCLUDE_vTaskSuspend */

	/* Start with pxDelayedTaskList using list1 and the pxOverflowDelayedTaskList
	using list2. */
	pxDelayedTaskList = &xDelayedTaskList1;
 8002f4a:	4b0b      	ldr	r3, [pc, #44]	; (8002f78 <prvInitialiseTaskLists+0x78>)
 8002f4c:	4a05      	ldr	r2, [pc, #20]	; (8002f64 <prvInitialiseTaskLists+0x64>)
 8002f4e:	601a      	str	r2, [r3, #0]
	pxOverflowDelayedTaskList = &xDelayedTaskList2;
 8002f50:	4b0a      	ldr	r3, [pc, #40]	; (8002f7c <prvInitialiseTaskLists+0x7c>)
 8002f52:	4a05      	ldr	r2, [pc, #20]	; (8002f68 <prvInitialiseTaskLists+0x68>)
 8002f54:	601a      	str	r2, [r3, #0]
}
 8002f56:	bf00      	nop
 8002f58:	3708      	adds	r7, #8
 8002f5a:	46bd      	mov	sp, r7
 8002f5c:	bd80      	pop	{r7, pc}
 8002f5e:	bf00      	nop
 8002f60:	200006ec 	.word	0x200006ec
 8002f64:	20000b4c 	.word	0x20000b4c
 8002f68:	20000b60 	.word	0x20000b60
 8002f6c:	20000b7c 	.word	0x20000b7c
 8002f70:	20000b90 	.word	0x20000b90
 8002f74:	20000ba8 	.word	0x20000ba8
 8002f78:	20000b74 	.word	0x20000b74
 8002f7c:	20000b78 	.word	0x20000b78

08002f80 <prvCheckTasksWaitingTermination>:
/*-----------------------------------------------------------*/

static void prvCheckTasksWaitingTermination( void )
{
 8002f80:	b580      	push	{r7, lr}
 8002f82:	b082      	sub	sp, #8
 8002f84:	af00      	add	r7, sp, #0
	{
		TCB_t *pxTCB;

		/* uxDeletedTasksWaitingCleanUp is used to prevent taskENTER_CRITICAL()
		being called too often in the idle task. */
		while( uxDeletedTasksWaitingCleanUp > ( UBaseType_t ) 0U )
 8002f86:	e019      	b.n	8002fbc <prvCheckTasksWaitingTermination+0x3c>
		{
			taskENTER_CRITICAL();
 8002f88:	f000 fdc0 	bl	8003b0c <vPortEnterCritical>
			{
				pxTCB = listGET_OWNER_OF_HEAD_ENTRY( ( &xTasksWaitingTermination ) ); /*lint !e9079 void * is used as this macro is used with timers and co-routines too.  Alignment is known to be fine as the type of the pointer stored and retrieved is the same. */
 8002f8c:	4b0f      	ldr	r3, [pc, #60]	; (8002fcc <prvCheckTasksWaitingTermination+0x4c>)
 8002f8e:	68db      	ldr	r3, [r3, #12]
 8002f90:	68db      	ldr	r3, [r3, #12]
 8002f92:	607b      	str	r3, [r7, #4]
				( void ) uxListRemove( &( pxTCB->xStateListItem ) );
 8002f94:	687b      	ldr	r3, [r7, #4]
 8002f96:	3304      	adds	r3, #4
 8002f98:	4618      	mov	r0, r3
 8002f9a:	f7fe fd65 	bl	8001a68 <uxListRemove>
				--uxCurrentNumberOfTasks;
 8002f9e:	4b0c      	ldr	r3, [pc, #48]	; (8002fd0 <prvCheckTasksWaitingTermination+0x50>)
 8002fa0:	681b      	ldr	r3, [r3, #0]
 8002fa2:	3b01      	subs	r3, #1
 8002fa4:	4a0a      	ldr	r2, [pc, #40]	; (8002fd0 <prvCheckTasksWaitingTermination+0x50>)
 8002fa6:	6013      	str	r3, [r2, #0]
				--uxDeletedTasksWaitingCleanUp;
 8002fa8:	4b0a      	ldr	r3, [pc, #40]	; (8002fd4 <prvCheckTasksWaitingTermination+0x54>)
 8002faa:	681b      	ldr	r3, [r3, #0]
 8002fac:	3b01      	subs	r3, #1
 8002fae:	4a09      	ldr	r2, [pc, #36]	; (8002fd4 <prvCheckTasksWaitingTermination+0x54>)
 8002fb0:	6013      	str	r3, [r2, #0]
			}
			taskEXIT_CRITICAL();
 8002fb2:	f000 fdd9 	bl	8003b68 <vPortExitCritical>

			prvDeleteTCB( pxTCB );
 8002fb6:	6878      	ldr	r0, [r7, #4]
 8002fb8:	f000 f80e 	bl	8002fd8 <prvDeleteTCB>
		while( uxDeletedTasksWaitingCleanUp > ( UBaseType_t ) 0U )
 8002fbc:	4b05      	ldr	r3, [pc, #20]	; (8002fd4 <prvCheckTasksWaitingTermination+0x54>)
 8002fbe:	681b      	ldr	r3, [r3, #0]
 8002fc0:	2b00      	cmp	r3, #0
 8002fc2:	d1e1      	bne.n	8002f88 <prvCheckTasksWaitingTermination+0x8>
		}
	}
	#endif /* INCLUDE_vTaskDelete */
}
 8002fc4:	bf00      	nop
 8002fc6:	3708      	adds	r7, #8
 8002fc8:	46bd      	mov	sp, r7
 8002fca:	bd80      	pop	{r7, pc}
 8002fcc:	20000b90 	.word	0x20000b90
 8002fd0:	20000bbc 	.word	0x20000bbc
 8002fd4:	20000ba4 	.word	0x20000ba4

08002fd8 <prvDeleteTCB>:
/*-----------------------------------------------------------*/

#if ( INCLUDE_vTaskDelete == 1 )

	static void prvDeleteTCB( TCB_t *pxTCB )
	{
 8002fd8:	b580      	push	{r7, lr}
 8002fda:	b084      	sub	sp, #16
 8002fdc:	af00      	add	r7, sp, #0
 8002fde:	6078      	str	r0, [r7, #4]
		#elif( tskSTATIC_AND_DYNAMIC_ALLOCATION_POSSIBLE != 0 ) /*lint !e731 !e9029 Macro has been consolidated for readability reasons. */
		{
			/* The task could have been allocated statically or dynamically, so
			check what was statically allocated before trying to free the
			memory. */
			if( pxTCB->ucStaticallyAllocated == tskDYNAMICALLY_ALLOCATED_STACK_AND_TCB )
 8002fe0:	687b      	ldr	r3, [r7, #4]
 8002fe2:	f893 3059 	ldrb.w	r3, [r3, #89]	; 0x59
 8002fe6:	2b00      	cmp	r3, #0
 8002fe8:	d108      	bne.n	8002ffc <prvDeleteTCB+0x24>
			{
				/* Both the stack and TCB were allocated dynamically, so both
				must be freed. */
				vPortFree( pxTCB->pxStack );
 8002fea:	687b      	ldr	r3, [r7, #4]
 8002fec:	6b1b      	ldr	r3, [r3, #48]	; 0x30
 8002fee:	4618      	mov	r0, r3
 8002ff0:	f000 ff68 	bl	8003ec4 <vPortFree>
				vPortFree( pxTCB );
 8002ff4:	6878      	ldr	r0, [r7, #4]
 8002ff6:	f000 ff65 	bl	8003ec4 <vPortFree>
				configASSERT( pxTCB->ucStaticallyAllocated == tskSTATICALLY_ALLOCATED_STACK_AND_TCB	);
				mtCOVERAGE_TEST_MARKER();
			}
		}
		#endif /* configSUPPORT_DYNAMIC_ALLOCATION */
	}
 8002ffa:	e017      	b.n	800302c <prvDeleteTCB+0x54>
			else if( pxTCB->ucStaticallyAllocated == tskSTATICALLY_ALLOCATED_STACK_ONLY )
 8002ffc:	687b      	ldr	r3, [r7, #4]
 8002ffe:	f893 3059 	ldrb.w	r3, [r3, #89]	; 0x59
 8003002:	2b01      	cmp	r3, #1
 8003004:	d103      	bne.n	800300e <prvDeleteTCB+0x36>
				vPortFree( pxTCB );
 8003006:	6878      	ldr	r0, [r7, #4]
 8003008:	f000 ff5c 	bl	8003ec4 <vPortFree>
	}
 800300c:	e00e      	b.n	800302c <prvDeleteTCB+0x54>
				configASSERT( pxTCB->ucStaticallyAllocated == tskSTATICALLY_ALLOCATED_STACK_AND_TCB	);
 800300e:	687b      	ldr	r3, [r7, #4]
 8003010:	f893 3059 	ldrb.w	r3, [r3, #89]	; 0x59
 8003014:	2b02      	cmp	r3, #2
 8003016:	d009      	beq.n	800302c <prvDeleteTCB+0x54>
 8003018:	f04f 0350 	mov.w	r3, #80	; 0x50
 800301c:	f383 8811 	msr	BASEPRI, r3
 8003020:	f3bf 8f6f 	isb	sy
 8003024:	f3bf 8f4f 	dsb	sy
 8003028:	60fb      	str	r3, [r7, #12]
 800302a:	e7fe      	b.n	800302a <prvDeleteTCB+0x52>
	}
 800302c:	bf00      	nop
 800302e:	3710      	adds	r7, #16
 8003030:	46bd      	mov	sp, r7
 8003032:	bd80      	pop	{r7, pc}

08003034 <prvResetNextTaskUnblockTime>:

#endif /* INCLUDE_vTaskDelete */
/*-----------------------------------------------------------*/

static void prvResetNextTaskUnblockTime( void )
{
 8003034:	b480      	push	{r7}
 8003036:	b083      	sub	sp, #12
 8003038:	af00      	add	r7, sp, #0
TCB_t *pxTCB;

	if( listLIST_IS_EMPTY( pxDelayedTaskList ) != pdFALSE )
 800303a:	4b0c      	ldr	r3, [pc, #48]	; (800306c <prvResetNextTaskUnblockTime+0x38>)
 800303c:	681b      	ldr	r3, [r3, #0]
 800303e:	681b      	ldr	r3, [r3, #0]
 8003040:	2b00      	cmp	r3, #0
 8003042:	d104      	bne.n	800304e <prvResetNextTaskUnblockTime+0x1a>
	{
		/* The new current delayed list is empty.  Set xNextTaskUnblockTime to
		the maximum possible value so it is	extremely unlikely that the
		if( xTickCount >= xNextTaskUnblockTime ) test will pass until
		there is an item in the delayed list. */
		xNextTaskUnblockTime = portMAX_DELAY;
 8003044:	4b0a      	ldr	r3, [pc, #40]	; (8003070 <prvResetNextTaskUnblockTime+0x3c>)
 8003046:	f04f 32ff 	mov.w	r2, #4294967295
 800304a:	601a      	str	r2, [r3, #0]
		which the task at the head of the delayed list should be removed
		from the Blocked state. */
		( pxTCB ) = listGET_OWNER_OF_HEAD_ENTRY( pxDelayedTaskList ); /*lint !e9079 void * is used as this macro is used with timers and co-routines too.  Alignment is known to be fine as the type of the pointer stored and retrieved is the same. */
		xNextTaskUnblockTime = listGET_LIST_ITEM_VALUE( &( ( pxTCB )->xStateListItem ) );
	}
}
 800304c:	e008      	b.n	8003060 <prvResetNextTaskUnblockTime+0x2c>
		( pxTCB ) = listGET_OWNER_OF_HEAD_ENTRY( pxDelayedTaskList ); /*lint !e9079 void * is used as this macro is used with timers and co-routines too.  Alignment is known to be fine as the type of the pointer stored and retrieved is the same. */
 800304e:	4b07      	ldr	r3, [pc, #28]	; (800306c <prvResetNextTaskUnblockTime+0x38>)
 8003050:	681b      	ldr	r3, [r3, #0]
 8003052:	68db      	ldr	r3, [r3, #12]
 8003054:	68db      	ldr	r3, [r3, #12]
 8003056:	607b      	str	r3, [r7, #4]
		xNextTaskUnblockTime = listGET_LIST_ITEM_VALUE( &( ( pxTCB )->xStateListItem ) );
 8003058:	687b      	ldr	r3, [r7, #4]
 800305a:	685b      	ldr	r3, [r3, #4]
 800305c:	4a04      	ldr	r2, [pc, #16]	; (8003070 <prvResetNextTaskUnblockTime+0x3c>)
 800305e:	6013      	str	r3, [r2, #0]
}
 8003060:	bf00      	nop
 8003062:	370c      	adds	r7, #12
 8003064:	46bd      	mov	sp, r7
 8003066:	f85d 7b04 	ldr.w	r7, [sp], #4
 800306a:	4770      	bx	lr
 800306c:	20000b74 	.word	0x20000b74
 8003070:	20000bdc 	.word	0x20000bdc

08003074 <xTaskGetSchedulerState>:
/*-----------------------------------------------------------*/

#if ( ( INCLUDE_xTaskGetSchedulerState == 1 ) || ( configUSE_TIMERS == 1 ) )

	BaseType_t xTaskGetSchedulerState( void )
	{
 8003074:	b480      	push	{r7}
 8003076:	b083      	sub	sp, #12
 8003078:	af00      	add	r7, sp, #0
	BaseType_t xReturn;

		if( xSchedulerRunning == pdFALSE )
 800307a:	4b0b      	ldr	r3, [pc, #44]	; (80030a8 <xTaskGetSchedulerState+0x34>)
 800307c:	681b      	ldr	r3, [r3, #0]
 800307e:	2b00      	cmp	r3, #0
 8003080:	d102      	bne.n	8003088 <xTaskGetSchedulerState+0x14>
		{
			xReturn = taskSCHEDULER_NOT_STARTED;
 8003082:	2301      	movs	r3, #1
 8003084:	607b      	str	r3, [r7, #4]
 8003086:	e008      	b.n	800309a <xTaskGetSchedulerState+0x26>
		}
		else
		{
			if( uxSchedulerSuspended == ( UBaseType_t ) pdFALSE )
 8003088:	4b08      	ldr	r3, [pc, #32]	; (80030ac <xTaskGetSchedulerState+0x38>)
 800308a:	681b      	ldr	r3, [r3, #0]
 800308c:	2b00      	cmp	r3, #0
 800308e:	d102      	bne.n	8003096 <xTaskGetSchedulerState+0x22>
			{
				xReturn = taskSCHEDULER_RUNNING;
 8003090:	2302      	movs	r3, #2
 8003092:	607b      	str	r3, [r7, #4]
 8003094:	e001      	b.n	800309a <xTaskGetSchedulerState+0x26>
			}
			else
			{
				xReturn = taskSCHEDULER_SUSPENDED;
 8003096:	2300      	movs	r3, #0
 8003098:	607b      	str	r3, [r7, #4]
			}
		}

		return xReturn;
 800309a:	687b      	ldr	r3, [r7, #4]
	}
 800309c:	4618      	mov	r0, r3
 800309e:	370c      	adds	r7, #12
 80030a0:	46bd      	mov	sp, r7
 80030a2:	f85d 7b04 	ldr.w	r7, [sp], #4
 80030a6:	4770      	bx	lr
 80030a8:	20000bc8 	.word	0x20000bc8
 80030ac:	20000be4 	.word	0x20000be4

080030b0 <xTaskPriorityDisinherit>:
/*-----------------------------------------------------------*/

#if ( configUSE_MUTEXES == 1 )

	BaseType_t xTaskPriorityDisinherit( TaskHandle_t const pxMutexHolder )
	{
 80030b0:	b580      	push	{r7, lr}
 80030b2:	b086      	sub	sp, #24
 80030b4:	af00      	add	r7, sp, #0
 80030b6:	6078      	str	r0, [r7, #4]
	TCB_t * const pxTCB = pxMutexHolder;
 80030b8:	687b      	ldr	r3, [r7, #4]
 80030ba:	613b      	str	r3, [r7, #16]
	BaseType_t xReturn = pdFALSE;
 80030bc:	2300      	movs	r3, #0
 80030be:	617b      	str	r3, [r7, #20]

		if( pxMutexHolder != NULL )
 80030c0:	687b      	ldr	r3, [r7, #4]
 80030c2:	2b00      	cmp	r3, #0
 80030c4:	d054      	beq.n	8003170 <xTaskPriorityDisinherit+0xc0>
		{
			/* A task can only have an inherited priority if it holds the mutex.
			If the mutex is held by a task then it cannot be given from an
			interrupt, and if a mutex is given by the holding task then it must
			be the running state task. */
			configASSERT( pxTCB == pxCurrentTCB );
 80030c6:	4b2d      	ldr	r3, [pc, #180]	; (800317c <xTaskPriorityDisinherit+0xcc>)
 80030c8:	681b      	ldr	r3, [r3, #0]
 80030ca:	693a      	ldr	r2, [r7, #16]
 80030cc:	429a      	cmp	r2, r3
 80030ce:	d009      	beq.n	80030e4 <xTaskPriorityDisinherit+0x34>
 80030d0:	f04f 0350 	mov.w	r3, #80	; 0x50
 80030d4:	f383 8811 	msr	BASEPRI, r3
 80030d8:	f3bf 8f6f 	isb	sy
 80030dc:	f3bf 8f4f 	dsb	sy
 80030e0:	60fb      	str	r3, [r7, #12]
 80030e2:	e7fe      	b.n	80030e2 <xTaskPriorityDisinherit+0x32>
			configASSERT( pxTCB->uxMutexesHeld );
 80030e4:	693b      	ldr	r3, [r7, #16]
 80030e6:	6d1b      	ldr	r3, [r3, #80]	; 0x50
 80030e8:	2b00      	cmp	r3, #0
 80030ea:	d109      	bne.n	8003100 <xTaskPriorityDisinherit+0x50>
 80030ec:	f04f 0350 	mov.w	r3, #80	; 0x50
 80030f0:	f383 8811 	msr	BASEPRI, r3
 80030f4:	f3bf 8f6f 	isb	sy
 80030f8:	f3bf 8f4f 	dsb	sy
 80030fc:	60bb      	str	r3, [r7, #8]
 80030fe:	e7fe      	b.n	80030fe <xTaskPriorityDisinherit+0x4e>
			( pxTCB->uxMutexesHeld )--;
 8003100:	693b      	ldr	r3, [r7, #16]
 8003102:	6d1b      	ldr	r3, [r3, #80]	; 0x50
 8003104:	1e5a      	subs	r2, r3, #1
 8003106:	693b      	ldr	r3, [r7, #16]
 8003108:	651a      	str	r2, [r3, #80]	; 0x50

			/* Has the holder of the mutex inherited the priority of another
			task? */
			if( pxTCB->uxPriority != pxTCB->uxBasePriority )
 800310a:	693b      	ldr	r3, [r7, #16]
 800310c:	6ada      	ldr	r2, [r3, #44]	; 0x2c
 800310e:	693b      	ldr	r3, [r7, #16]
 8003110:	6cdb      	ldr	r3, [r3, #76]	; 0x4c
 8003112:	429a      	cmp	r2, r3
 8003114:	d02c      	beq.n	8003170 <xTaskPriorityDisinherit+0xc0>
			{
				/* Only disinherit if no other mutexes are held. */
				if( pxTCB->uxMutexesHeld == ( UBaseType_t ) 0 )
 8003116:	693b      	ldr	r3, [r7, #16]
 8003118:	6d1b      	ldr	r3, [r3, #80]	; 0x50
 800311a:	2b00      	cmp	r3, #0
 800311c:	d128      	bne.n	8003170 <xTaskPriorityDisinherit+0xc0>
					/* A task can only have an inherited priority if it holds
					the mutex.  If the mutex is held by a task then it cannot be
					given from an interrupt, and if a mutex is given by the
					holding task then it must be the running state task.  Remove
					the holding task from the ready list. */
					if( uxListRemove( &( pxTCB->xStateListItem ) ) == ( UBaseType_t ) 0 )
 800311e:	693b      	ldr	r3, [r7, #16]
 8003120:	3304      	adds	r3, #4
 8003122:	4618      	mov	r0, r3
 8003124:	f7fe fca0 	bl	8001a68 <uxListRemove>
					}

					/* Disinherit the priority before adding the task into the
					new	ready list. */
					traceTASK_PRIORITY_DISINHERIT( pxTCB, pxTCB->uxBasePriority );
					pxTCB->uxPriority = pxTCB->uxBasePriority;
 8003128:	693b      	ldr	r3, [r7, #16]
 800312a:	6cda      	ldr	r2, [r3, #76]	; 0x4c
 800312c:	693b      	ldr	r3, [r7, #16]
 800312e:	62da      	str	r2, [r3, #44]	; 0x2c

					/* Reset the event list item value.  It cannot be in use for
					any other purpose if this task is running, and it must be
					running to give back the mutex. */
					listSET_LIST_ITEM_VALUE( &( pxTCB->xEventListItem ), ( TickType_t ) configMAX_PRIORITIES - ( TickType_t ) pxTCB->uxPriority ); /*lint !e961 MISRA exception as the casts are only redundant for some ports. */
 8003130:	693b      	ldr	r3, [r7, #16]
 8003132:	6adb      	ldr	r3, [r3, #44]	; 0x2c
 8003134:	f1c3 0238 	rsb	r2, r3, #56	; 0x38
 8003138:	693b      	ldr	r3, [r7, #16]
 800313a:	619a      	str	r2, [r3, #24]
					prvAddTaskToReadyList( pxTCB );
 800313c:	693b      	ldr	r3, [r7, #16]
 800313e:	6ada      	ldr	r2, [r3, #44]	; 0x2c
 8003140:	4b0f      	ldr	r3, [pc, #60]	; (8003180 <xTaskPriorityDisinherit+0xd0>)
 8003142:	681b      	ldr	r3, [r3, #0]
 8003144:	429a      	cmp	r2, r3
 8003146:	d903      	bls.n	8003150 <xTaskPriorityDisinherit+0xa0>
 8003148:	693b      	ldr	r3, [r7, #16]
 800314a:	6adb      	ldr	r3, [r3, #44]	; 0x2c
 800314c:	4a0c      	ldr	r2, [pc, #48]	; (8003180 <xTaskPriorityDisinherit+0xd0>)
 800314e:	6013      	str	r3, [r2, #0]
 8003150:	693b      	ldr	r3, [r7, #16]
 8003152:	6ada      	ldr	r2, [r3, #44]	; 0x2c
 8003154:	4613      	mov	r3, r2
 8003156:	009b      	lsls	r3, r3, #2
 8003158:	4413      	add	r3, r2
 800315a:	009b      	lsls	r3, r3, #2
 800315c:	4a09      	ldr	r2, [pc, #36]	; (8003184 <xTaskPriorityDisinherit+0xd4>)
 800315e:	441a      	add	r2, r3
 8003160:	693b      	ldr	r3, [r7, #16]
 8003162:	3304      	adds	r3, #4
 8003164:	4619      	mov	r1, r3
 8003166:	4610      	mov	r0, r2
 8003168:	f7fe fc21 	bl	80019ae <vListInsertEnd>
					in an order different to that in which they were taken.
					If a context switch did not occur when the first mutex was
					returned, even if a task was waiting on it, then a context
					switch should occur when the last mutex is returned whether
					a task is waiting on it or not. */
					xReturn = pdTRUE;
 800316c:	2301      	movs	r3, #1
 800316e:	617b      	str	r3, [r7, #20]
		else
		{
			mtCOVERAGE_TEST_MARKER();
		}

		return xReturn;
 8003170:	697b      	ldr	r3, [r7, #20]
	}
 8003172:	4618      	mov	r0, r3
 8003174:	3718      	adds	r7, #24
 8003176:	46bd      	mov	sp, r7
 8003178:	bd80      	pop	{r7, pc}
 800317a:	bf00      	nop
 800317c:	200006e8 	.word	0x200006e8
 8003180:	20000bc4 	.word	0x20000bc4
 8003184:	200006ec 	.word	0x200006ec

08003188 <prvAddCurrentTaskToDelayedList>:
	}
#endif
/*-----------------------------------------------------------*/

static void prvAddCurrentTaskToDelayedList( TickType_t xTicksToWait, const BaseType_t xCanBlockIndefinitely )
{
 8003188:	b580      	push	{r7, lr}
 800318a:	b084      	sub	sp, #16
 800318c:	af00      	add	r7, sp, #0
 800318e:	6078      	str	r0, [r7, #4]
 8003190:	6039      	str	r1, [r7, #0]
TickType_t xTimeToWake;
const TickType_t xConstTickCount = xTickCount;
 8003192:	4b21      	ldr	r3, [pc, #132]	; (8003218 <prvAddCurrentTaskToDelayedList+0x90>)
 8003194:	681b      	ldr	r3, [r3, #0]
 8003196:	60fb      	str	r3, [r7, #12]
	}
	#endif

	/* Remove the task from the ready list before adding it to the blocked list
	as the same list item is used for both lists. */
	if( uxListRemove( &( pxCurrentTCB->xStateListItem ) ) == ( UBaseType_t ) 0 )
 8003198:	4b20      	ldr	r3, [pc, #128]	; (800321c <prvAddCurrentTaskToDelayedList+0x94>)
 800319a:	681b      	ldr	r3, [r3, #0]
 800319c:	3304      	adds	r3, #4
 800319e:	4618      	mov	r0, r3
 80031a0:	f7fe fc62 	bl	8001a68 <uxListRemove>
		mtCOVERAGE_TEST_MARKER();
	}

	#if ( INCLUDE_vTaskSuspend == 1 )
	{
		if( ( xTicksToWait == portMAX_DELAY ) && ( xCanBlockIndefinitely != pdFALSE ) )
 80031a4:	687b      	ldr	r3, [r7, #4]
 80031a6:	f1b3 3fff 	cmp.w	r3, #4294967295
 80031aa:	d10a      	bne.n	80031c2 <prvAddCurrentTaskToDelayedList+0x3a>
 80031ac:	683b      	ldr	r3, [r7, #0]
 80031ae:	2b00      	cmp	r3, #0
 80031b0:	d007      	beq.n	80031c2 <prvAddCurrentTaskToDelayedList+0x3a>
		{
			/* Add the task to the suspended task list instead of a delayed task
			list to ensure it is not woken by a timing event.  It will block
			indefinitely. */
			vListInsertEnd( &xSuspendedTaskList, &( pxCurrentTCB->xStateListItem ) );
 80031b2:	4b1a      	ldr	r3, [pc, #104]	; (800321c <prvAddCurrentTaskToDelayedList+0x94>)
 80031b4:	681b      	ldr	r3, [r3, #0]
 80031b6:	3304      	adds	r3, #4
 80031b8:	4619      	mov	r1, r3
 80031ba:	4819      	ldr	r0, [pc, #100]	; (8003220 <prvAddCurrentTaskToDelayedList+0x98>)
 80031bc:	f7fe fbf7 	bl	80019ae <vListInsertEnd>

		/* Avoid compiler warning when INCLUDE_vTaskSuspend is not 1. */
		( void ) xCanBlockIndefinitely;
	}
	#endif /* INCLUDE_vTaskSuspend */
}
 80031c0:	e026      	b.n	8003210 <prvAddCurrentTaskToDelayedList+0x88>
			xTimeToWake = xConstTickCount + xTicksToWait;
 80031c2:	68fa      	ldr	r2, [r7, #12]
 80031c4:	687b      	ldr	r3, [r7, #4]
 80031c6:	4413      	add	r3, r2
 80031c8:	60bb      	str	r3, [r7, #8]
			listSET_LIST_ITEM_VALUE( &( pxCurrentTCB->xStateListItem ), xTimeToWake );
 80031ca:	4b14      	ldr	r3, [pc, #80]	; (800321c <prvAddCurrentTaskToDelayedList+0x94>)
 80031cc:	681b      	ldr	r3, [r3, #0]
 80031ce:	68ba      	ldr	r2, [r7, #8]
 80031d0:	605a      	str	r2, [r3, #4]
			if( xTimeToWake < xConstTickCount )
 80031d2:	68ba      	ldr	r2, [r7, #8]
 80031d4:	68fb      	ldr	r3, [r7, #12]
 80031d6:	429a      	cmp	r2, r3
 80031d8:	d209      	bcs.n	80031ee <prvAddCurrentTaskToDelayedList+0x66>
				vListInsert( pxOverflowDelayedTaskList, &( pxCurrentTCB->xStateListItem ) );
 80031da:	4b12      	ldr	r3, [pc, #72]	; (8003224 <prvAddCurrentTaskToDelayedList+0x9c>)
 80031dc:	681a      	ldr	r2, [r3, #0]
 80031de:	4b0f      	ldr	r3, [pc, #60]	; (800321c <prvAddCurrentTaskToDelayedList+0x94>)
 80031e0:	681b      	ldr	r3, [r3, #0]
 80031e2:	3304      	adds	r3, #4
 80031e4:	4619      	mov	r1, r3
 80031e6:	4610      	mov	r0, r2
 80031e8:	f7fe fc05 	bl	80019f6 <vListInsert>
}
 80031ec:	e010      	b.n	8003210 <prvAddCurrentTaskToDelayedList+0x88>
				vListInsert( pxDelayedTaskList, &( pxCurrentTCB->xStateListItem ) );
 80031ee:	4b0e      	ldr	r3, [pc, #56]	; (8003228 <prvAddCurrentTaskToDelayedList+0xa0>)
 80031f0:	681a      	ldr	r2, [r3, #0]
 80031f2:	4b0a      	ldr	r3, [pc, #40]	; (800321c <prvAddCurrentTaskToDelayedList+0x94>)
 80031f4:	681b      	ldr	r3, [r3, #0]
 80031f6:	3304      	adds	r3, #4
 80031f8:	4619      	mov	r1, r3
 80031fa:	4610      	mov	r0, r2
 80031fc:	f7fe fbfb 	bl	80019f6 <vListInsert>
				if( xTimeToWake < xNextTaskUnblockTime )
 8003200:	4b0a      	ldr	r3, [pc, #40]	; (800322c <prvAddCurrentTaskToDelayedList+0xa4>)
 8003202:	681b      	ldr	r3, [r3, #0]
 8003204:	68ba      	ldr	r2, [r7, #8]
 8003206:	429a      	cmp	r2, r3
 8003208:	d202      	bcs.n	8003210 <prvAddCurrentTaskToDelayedList+0x88>
					xNextTaskUnblockTime = xTimeToWake;
 800320a:	4a08      	ldr	r2, [pc, #32]	; (800322c <prvAddCurrentTaskToDelayedList+0xa4>)
 800320c:	68bb      	ldr	r3, [r7, #8]
 800320e:	6013      	str	r3, [r2, #0]
}
 8003210:	bf00      	nop
 8003212:	3710      	adds	r7, #16
 8003214:	46bd      	mov	sp, r7
 8003216:	bd80      	pop	{r7, pc}
 8003218:	20000bc0 	.word	0x20000bc0
 800321c:	200006e8 	.word	0x200006e8
 8003220:	20000ba8 	.word	0x20000ba8
 8003224:	20000b78 	.word	0x20000b78
 8003228:	20000b74 	.word	0x20000b74
 800322c:	20000bdc 	.word	0x20000bdc

08003230 <xTimerCreateTimerTask>:
									TimerCallbackFunction_t pxCallbackFunction,
									Timer_t *pxNewTimer ) PRIVILEGED_FUNCTION;
/*-----------------------------------------------------------*/

BaseType_t xTimerCreateTimerTask( void )
{
 8003230:	b580      	push	{r7, lr}
 8003232:	b08a      	sub	sp, #40	; 0x28
 8003234:	af04      	add	r7, sp, #16
BaseType_t xReturn = pdFAIL;
 8003236:	2300      	movs	r3, #0
 8003238:	617b      	str	r3, [r7, #20]

	/* This function is called when the scheduler is started if
	configUSE_TIMERS is set to 1.  Check that the infrastructure used by the
	timer service task has been created/initialised.  If timers have already
	been created then the initialisation will already have been performed. */
	prvCheckForValidListAndQueue();
 800323a:	f000 faff 	bl	800383c <prvCheckForValidListAndQueue>

	if( xTimerQueue != NULL )
 800323e:	4b1c      	ldr	r3, [pc, #112]	; (80032b0 <xTimerCreateTimerTask+0x80>)
 8003240:	681b      	ldr	r3, [r3, #0]
 8003242:	2b00      	cmp	r3, #0
 8003244:	d021      	beq.n	800328a <xTimerCreateTimerTask+0x5a>
	{
		#if( configSUPPORT_STATIC_ALLOCATION == 1 )
		{
			StaticTask_t *pxTimerTaskTCBBuffer = NULL;
 8003246:	2300      	movs	r3, #0
 8003248:	60fb      	str	r3, [r7, #12]
			StackType_t *pxTimerTaskStackBuffer = NULL;
 800324a:	2300      	movs	r3, #0
 800324c:	60bb      	str	r3, [r7, #8]
			uint32_t ulTimerTaskStackSize;

			vApplicationGetTimerTaskMemory( &pxTimerTaskTCBBuffer, &pxTimerTaskStackBuffer, &ulTimerTaskStackSize );
 800324e:	1d3a      	adds	r2, r7, #4
 8003250:	f107 0108 	add.w	r1, r7, #8
 8003254:	f107 030c 	add.w	r3, r7, #12
 8003258:	4618      	mov	r0, r3
 800325a:	f7fe fb61 	bl	8001920 <vApplicationGetTimerTaskMemory>
			xTimerTaskHandle = xTaskCreateStatic(	prvTimerTask,
 800325e:	6879      	ldr	r1, [r7, #4]
 8003260:	68bb      	ldr	r3, [r7, #8]
 8003262:	68fa      	ldr	r2, [r7, #12]
 8003264:	9202      	str	r2, [sp, #8]
 8003266:	9301      	str	r3, [sp, #4]
 8003268:	2302      	movs	r3, #2
 800326a:	9300      	str	r3, [sp, #0]
 800326c:	2300      	movs	r3, #0
 800326e:	460a      	mov	r2, r1
 8003270:	4910      	ldr	r1, [pc, #64]	; (80032b4 <xTimerCreateTimerTask+0x84>)
 8003272:	4811      	ldr	r0, [pc, #68]	; (80032b8 <xTimerCreateTimerTask+0x88>)
 8003274:	f7ff f8f6 	bl	8002464 <xTaskCreateStatic>
 8003278:	4602      	mov	r2, r0
 800327a:	4b10      	ldr	r3, [pc, #64]	; (80032bc <xTimerCreateTimerTask+0x8c>)
 800327c:	601a      	str	r2, [r3, #0]
													NULL,
													( ( UBaseType_t ) configTIMER_TASK_PRIORITY ) | portPRIVILEGE_BIT,
													pxTimerTaskStackBuffer,
													pxTimerTaskTCBBuffer );

			if( xTimerTaskHandle != NULL )
 800327e:	4b0f      	ldr	r3, [pc, #60]	; (80032bc <xTimerCreateTimerTask+0x8c>)
 8003280:	681b      	ldr	r3, [r3, #0]
 8003282:	2b00      	cmp	r3, #0
 8003284:	d001      	beq.n	800328a <xTimerCreateTimerTask+0x5a>
			{
				xReturn = pdPASS;
 8003286:	2301      	movs	r3, #1
 8003288:	617b      	str	r3, [r7, #20]
	else
	{
		mtCOVERAGE_TEST_MARKER();
	}

	configASSERT( xReturn );
 800328a:	697b      	ldr	r3, [r7, #20]
 800328c:	2b00      	cmp	r3, #0
 800328e:	d109      	bne.n	80032a4 <xTimerCreateTimerTask+0x74>
 8003290:	f04f 0350 	mov.w	r3, #80	; 0x50
 8003294:	f383 8811 	msr	BASEPRI, r3
 8003298:	f3bf 8f6f 	isb	sy
 800329c:	f3bf 8f4f 	dsb	sy
 80032a0:	613b      	str	r3, [r7, #16]
 80032a2:	e7fe      	b.n	80032a2 <xTimerCreateTimerTask+0x72>
	return xReturn;
 80032a4:	697b      	ldr	r3, [r7, #20]
}
 80032a6:	4618      	mov	r0, r3
 80032a8:	3718      	adds	r7, #24
 80032aa:	46bd      	mov	sp, r7
 80032ac:	bd80      	pop	{r7, pc}
 80032ae:	bf00      	nop
 80032b0:	20000c18 	.word	0x20000c18
 80032b4:	08004194 	.word	0x08004194
 80032b8:	080033f1 	.word	0x080033f1
 80032bc:	20000c1c 	.word	0x20000c1c

080032c0 <xTimerGenericCommand>:
	}
}
/*-----------------------------------------------------------*/

BaseType_t xTimerGenericCommand( TimerHandle_t xTimer, const BaseType_t xCommandID, const TickType_t xOptionalValue, BaseType_t * const pxHigherPriorityTaskWoken, const TickType_t xTicksToWait )
{
 80032c0:	b580      	push	{r7, lr}
 80032c2:	b08a      	sub	sp, #40	; 0x28
 80032c4:	af00      	add	r7, sp, #0
 80032c6:	60f8      	str	r0, [r7, #12]
 80032c8:	60b9      	str	r1, [r7, #8]
 80032ca:	607a      	str	r2, [r7, #4]
 80032cc:	603b      	str	r3, [r7, #0]
BaseType_t xReturn = pdFAIL;
 80032ce:	2300      	movs	r3, #0
 80032d0:	627b      	str	r3, [r7, #36]	; 0x24
DaemonTaskMessage_t xMessage;

	configASSERT( xTimer );
 80032d2:	68fb      	ldr	r3, [r7, #12]
 80032d4:	2b00      	cmp	r3, #0
 80032d6:	d109      	bne.n	80032ec <xTimerGenericCommand+0x2c>
 80032d8:	f04f 0350 	mov.w	r3, #80	; 0x50
 80032dc:	f383 8811 	msr	BASEPRI, r3
 80032e0:	f3bf 8f6f 	isb	sy
 80032e4:	f3bf 8f4f 	dsb	sy
 80032e8:	623b      	str	r3, [r7, #32]
 80032ea:	e7fe      	b.n	80032ea <xTimerGenericCommand+0x2a>

	/* Send a message to the timer service task to perform a particular action
	on a particular timer definition. */
	if( xTimerQueue != NULL )
 80032ec:	4b19      	ldr	r3, [pc, #100]	; (8003354 <xTimerGenericCommand+0x94>)
 80032ee:	681b      	ldr	r3, [r3, #0]
 80032f0:	2b00      	cmp	r3, #0
 80032f2:	d02a      	beq.n	800334a <xTimerGenericCommand+0x8a>
	{
		/* Send a command to the timer service task to start the xTimer timer. */
		xMessage.xMessageID = xCommandID;
 80032f4:	68bb      	ldr	r3, [r7, #8]
 80032f6:	613b      	str	r3, [r7, #16]
		xMessage.u.xTimerParameters.xMessageValue = xOptionalValue;
 80032f8:	687b      	ldr	r3, [r7, #4]
 80032fa:	617b      	str	r3, [r7, #20]
		xMessage.u.xTimerParameters.pxTimer = xTimer;
 80032fc:	68fb      	ldr	r3, [r7, #12]
 80032fe:	61bb      	str	r3, [r7, #24]

		if( xCommandID < tmrFIRST_FROM_ISR_COMMAND )
 8003300:	68bb      	ldr	r3, [r7, #8]
 8003302:	2b05      	cmp	r3, #5
 8003304:	dc18      	bgt.n	8003338 <xTimerGenericCommand+0x78>
		{
			if( xTaskGetSchedulerState() == taskSCHEDULER_RUNNING )
 8003306:	f7ff feb5 	bl	8003074 <xTaskGetSchedulerState>
 800330a:	4603      	mov	r3, r0
 800330c:	2b02      	cmp	r3, #2
 800330e:	d109      	bne.n	8003324 <xTimerGenericCommand+0x64>
			{
				xReturn = xQueueSendToBack( xTimerQueue, &xMessage, xTicksToWait );
 8003310:	4b10      	ldr	r3, [pc, #64]	; (8003354 <xTimerGenericCommand+0x94>)
 8003312:	6818      	ldr	r0, [r3, #0]
 8003314:	f107 0110 	add.w	r1, r7, #16
 8003318:	2300      	movs	r3, #0
 800331a:	6b3a      	ldr	r2, [r7, #48]	; 0x30
 800331c:	f7fe fccc 	bl	8001cb8 <xQueueGenericSend>
 8003320:	6278      	str	r0, [r7, #36]	; 0x24
 8003322:	e012      	b.n	800334a <xTimerGenericCommand+0x8a>
			}
			else
			{
				xReturn = xQueueSendToBack( xTimerQueue, &xMessage, tmrNO_DELAY );
 8003324:	4b0b      	ldr	r3, [pc, #44]	; (8003354 <xTimerGenericCommand+0x94>)
 8003326:	6818      	ldr	r0, [r3, #0]
 8003328:	f107 0110 	add.w	r1, r7, #16
 800332c:	2300      	movs	r3, #0
 800332e:	2200      	movs	r2, #0
 8003330:	f7fe fcc2 	bl	8001cb8 <xQueueGenericSend>
 8003334:	6278      	str	r0, [r7, #36]	; 0x24
 8003336:	e008      	b.n	800334a <xTimerGenericCommand+0x8a>
			}
		}
		else
		{
			xReturn = xQueueSendToBackFromISR( xTimerQueue, &xMessage, pxHigherPriorityTaskWoken );
 8003338:	4b06      	ldr	r3, [pc, #24]	; (8003354 <xTimerGenericCommand+0x94>)
 800333a:	6818      	ldr	r0, [r3, #0]
 800333c:	f107 0110 	add.w	r1, r7, #16
 8003340:	2300      	movs	r3, #0
 8003342:	683a      	ldr	r2, [r7, #0]
 8003344:	f7fe fdb2 	bl	8001eac <xQueueGenericSendFromISR>
 8003348:	6278      	str	r0, [r7, #36]	; 0x24
	else
	{
		mtCOVERAGE_TEST_MARKER();
	}

	return xReturn;
 800334a:	6a7b      	ldr	r3, [r7, #36]	; 0x24
}
 800334c:	4618      	mov	r0, r3
 800334e:	3728      	adds	r7, #40	; 0x28
 8003350:	46bd      	mov	sp, r7
 8003352:	bd80      	pop	{r7, pc}
 8003354:	20000c18 	.word	0x20000c18

08003358 <prvProcessExpiredTimer>:
	return pxTimer->pcTimerName;
}
/*-----------------------------------------------------------*/

static void prvProcessExpiredTimer( const TickType_t xNextExpireTime, const TickType_t xTimeNow )
{
 8003358:	b580      	push	{r7, lr}
 800335a:	b088      	sub	sp, #32
 800335c:	af02      	add	r7, sp, #8
 800335e:	6078      	str	r0, [r7, #4]
 8003360:	6039      	str	r1, [r7, #0]
BaseType_t xResult;
Timer_t * const pxTimer = ( Timer_t * ) listGET_OWNER_OF_HEAD_ENTRY( pxCurrentTimerList ); /*lint !e9087 !e9079 void * is used as this macro is used with tasks and co-routines too.  Alignment is known to be fine as the type of the pointer stored and retrieved is the same. */
 8003362:	4b22      	ldr	r3, [pc, #136]	; (80033ec <prvProcessExpiredTimer+0x94>)
 8003364:	681b      	ldr	r3, [r3, #0]
 8003366:	68db      	ldr	r3, [r3, #12]
 8003368:	68db      	ldr	r3, [r3, #12]
 800336a:	617b      	str	r3, [r7, #20]

	/* Remove the timer from the list of active timers.  A check has already
	been performed to ensure the list is not empty. */
	( void ) uxListRemove( &( pxTimer->xTimerListItem ) );
 800336c:	697b      	ldr	r3, [r7, #20]
 800336e:	3304      	adds	r3, #4
 8003370:	4618      	mov	r0, r3
 8003372:	f7fe fb79 	bl	8001a68 <uxListRemove>
	traceTIMER_EXPIRED( pxTimer );

	/* If the timer is an auto reload timer then calculate the next
	expiry time and re-insert the timer in the list of active timers. */
	if( ( pxTimer->ucStatus & tmrSTATUS_IS_AUTORELOAD ) != 0 )
 8003376:	697b      	ldr	r3, [r7, #20]
 8003378:	f893 3028 	ldrb.w	r3, [r3, #40]	; 0x28
 800337c:	f003 0304 	and.w	r3, r3, #4
 8003380:	2b00      	cmp	r3, #0
 8003382:	d021      	beq.n	80033c8 <prvProcessExpiredTimer+0x70>
	{
		/* The timer is inserted into a list using a time relative to anything
		other than the current time.  It will therefore be inserted into the
		correct list relative to the time this task thinks it is now. */
		if( prvInsertTimerInActiveList( pxTimer, ( xNextExpireTime + pxTimer->xTimerPeriodInTicks ), xTimeNow, xNextExpireTime ) != pdFALSE )
 8003384:	697b      	ldr	r3, [r7, #20]
 8003386:	699a      	ldr	r2, [r3, #24]
 8003388:	687b      	ldr	r3, [r7, #4]
 800338a:	18d1      	adds	r1, r2, r3
 800338c:	687b      	ldr	r3, [r7, #4]
 800338e:	683a      	ldr	r2, [r7, #0]
 8003390:	6978      	ldr	r0, [r7, #20]
 8003392:	f000 f8d1 	bl	8003538 <prvInsertTimerInActiveList>
 8003396:	4603      	mov	r3, r0
 8003398:	2b00      	cmp	r3, #0
 800339a:	d01e      	beq.n	80033da <prvProcessExpiredTimer+0x82>
		{
			/* The timer expired before it was added to the active timer
			list.  Reload it now.  */
			xResult = xTimerGenericCommand( pxTimer, tmrCOMMAND_START_DONT_TRACE, xNextExpireTime, NULL, tmrNO_DELAY );
 800339c:	2300      	movs	r3, #0
 800339e:	9300      	str	r3, [sp, #0]
 80033a0:	2300      	movs	r3, #0
 80033a2:	687a      	ldr	r2, [r7, #4]
 80033a4:	2100      	movs	r1, #0
 80033a6:	6978      	ldr	r0, [r7, #20]
 80033a8:	f7ff ff8a 	bl	80032c0 <xTimerGenericCommand>
 80033ac:	6138      	str	r0, [r7, #16]
			configASSERT( xResult );
 80033ae:	693b      	ldr	r3, [r7, #16]
 80033b0:	2b00      	cmp	r3, #0
 80033b2:	d112      	bne.n	80033da <prvProcessExpiredTimer+0x82>
 80033b4:	f04f 0350 	mov.w	r3, #80	; 0x50
 80033b8:	f383 8811 	msr	BASEPRI, r3
 80033bc:	f3bf 8f6f 	isb	sy
 80033c0:	f3bf 8f4f 	dsb	sy
 80033c4:	60fb      	str	r3, [r7, #12]
 80033c6:	e7fe      	b.n	80033c6 <prvProcessExpiredTimer+0x6e>
			mtCOVERAGE_TEST_MARKER();
		}
	}
	else
	{
		pxTimer->ucStatus &= ~tmrSTATUS_IS_ACTIVE;
 80033c8:	697b      	ldr	r3, [r7, #20]
 80033ca:	f893 3028 	ldrb.w	r3, [r3, #40]	; 0x28
 80033ce:	f023 0301 	bic.w	r3, r3, #1
 80033d2:	b2da      	uxtb	r2, r3
 80033d4:	697b      	ldr	r3, [r7, #20]
 80033d6:	f883 2028 	strb.w	r2, [r3, #40]	; 0x28
		mtCOVERAGE_TEST_MARKER();
	}

	/* Call the timer callback. */
	pxTimer->pxCallbackFunction( ( TimerHandle_t ) pxTimer );
 80033da:	697b      	ldr	r3, [r7, #20]
 80033dc:	6a1b      	ldr	r3, [r3, #32]
 80033de:	6978      	ldr	r0, [r7, #20]
 80033e0:	4798      	blx	r3
}
 80033e2:	bf00      	nop
 80033e4:	3718      	adds	r7, #24
 80033e6:	46bd      	mov	sp, r7
 80033e8:	bd80      	pop	{r7, pc}
 80033ea:	bf00      	nop
 80033ec:	20000c10 	.word	0x20000c10

080033f0 <prvTimerTask>:
/*-----------------------------------------------------------*/

static portTASK_FUNCTION( prvTimerTask, pvParameters )
{
 80033f0:	b580      	push	{r7, lr}
 80033f2:	b084      	sub	sp, #16
 80033f4:	af00      	add	r7, sp, #0
 80033f6:	6078      	str	r0, [r7, #4]

	for( ;; )
	{
		/* Query the timers list to see if it contains any timers, and if so,
		obtain the time at which the next timer will expire. */
		xNextExpireTime = prvGetNextExpireTime( &xListWasEmpty );
 80033f8:	f107 0308 	add.w	r3, r7, #8
 80033fc:	4618      	mov	r0, r3
 80033fe:	f000 f857 	bl	80034b0 <prvGetNextExpireTime>
 8003402:	60f8      	str	r0, [r7, #12]

		/* If a timer has expired, process it.  Otherwise, block this task
		until either a timer does expire, or a command is received. */
		prvProcessTimerOrBlockTask( xNextExpireTime, xListWasEmpty );
 8003404:	68bb      	ldr	r3, [r7, #8]
 8003406:	4619      	mov	r1, r3
 8003408:	68f8      	ldr	r0, [r7, #12]
 800340a:	f000 f803 	bl	8003414 <prvProcessTimerOrBlockTask>

		/* Empty the command queue. */
		prvProcessReceivedCommands();
 800340e:	f000 f8d5 	bl	80035bc <prvProcessReceivedCommands>
		xNextExpireTime = prvGetNextExpireTime( &xListWasEmpty );
 8003412:	e7f1      	b.n	80033f8 <prvTimerTask+0x8>

08003414 <prvProcessTimerOrBlockTask>:
	}
}
/*-----------------------------------------------------------*/

static void prvProcessTimerOrBlockTask( const TickType_t xNextExpireTime, BaseType_t xListWasEmpty )
{
 8003414:	b580      	push	{r7, lr}
 8003416:	b084      	sub	sp, #16
 8003418:	af00      	add	r7, sp, #0
 800341a:	6078      	str	r0, [r7, #4]
 800341c:	6039      	str	r1, [r7, #0]
TickType_t xTimeNow;
BaseType_t xTimerListsWereSwitched;

	vTaskSuspendAll();
 800341e:	f7ff fa57 	bl	80028d0 <vTaskSuspendAll>
		/* Obtain the time now to make an assessment as to whether the timer
		has expired or not.  If obtaining the time causes the lists to switch
		then don't process this timer as any timers that remained in the list
		when the lists were switched will have been processed within the
		prvSampleTimeNow() function. */
		xTimeNow = prvSampleTimeNow( &xTimerListsWereSwitched );
 8003422:	f107 0308 	add.w	r3, r7, #8
 8003426:	4618      	mov	r0, r3
 8003428:	f000 f866 	bl	80034f8 <prvSampleTimeNow>
 800342c:	60f8      	str	r0, [r7, #12]
		if( xTimerListsWereSwitched == pdFALSE )
 800342e:	68bb      	ldr	r3, [r7, #8]
 8003430:	2b00      	cmp	r3, #0
 8003432:	d130      	bne.n	8003496 <prvProcessTimerOrBlockTask+0x82>
		{
			/* The tick count has not overflowed, has the timer expired? */
			if( ( xListWasEmpty == pdFALSE ) && ( xNextExpireTime <= xTimeNow ) )
 8003434:	683b      	ldr	r3, [r7, #0]
 8003436:	2b00      	cmp	r3, #0
 8003438:	d10a      	bne.n	8003450 <prvProcessTimerOrBlockTask+0x3c>
 800343a:	687a      	ldr	r2, [r7, #4]
 800343c:	68fb      	ldr	r3, [r7, #12]
 800343e:	429a      	cmp	r2, r3
 8003440:	d806      	bhi.n	8003450 <prvProcessTimerOrBlockTask+0x3c>
			{
				( void ) xTaskResumeAll();
 8003442:	f7ff fa53 	bl	80028ec <xTaskResumeAll>
				prvProcessExpiredTimer( xNextExpireTime, xTimeNow );
 8003446:	68f9      	ldr	r1, [r7, #12]
 8003448:	6878      	ldr	r0, [r7, #4]
 800344a:	f7ff ff85 	bl	8003358 <prvProcessExpiredTimer>
		else
		{
			( void ) xTaskResumeAll();
		}
	}
}
 800344e:	e024      	b.n	800349a <prvProcessTimerOrBlockTask+0x86>
				if( xListWasEmpty != pdFALSE )
 8003450:	683b      	ldr	r3, [r7, #0]
 8003452:	2b00      	cmp	r3, #0
 8003454:	d008      	beq.n	8003468 <prvProcessTimerOrBlockTask+0x54>
					xListWasEmpty = listLIST_IS_EMPTY( pxOverflowTimerList );
 8003456:	4b13      	ldr	r3, [pc, #76]	; (80034a4 <prvProcessTimerOrBlockTask+0x90>)
 8003458:	681b      	ldr	r3, [r3, #0]
 800345a:	681b      	ldr	r3, [r3, #0]
 800345c:	2b00      	cmp	r3, #0
 800345e:	d101      	bne.n	8003464 <prvProcessTimerOrBlockTask+0x50>
 8003460:	2301      	movs	r3, #1
 8003462:	e000      	b.n	8003466 <prvProcessTimerOrBlockTask+0x52>
 8003464:	2300      	movs	r3, #0
 8003466:	603b      	str	r3, [r7, #0]
				vQueueWaitForMessageRestricted( xTimerQueue, ( xNextExpireTime - xTimeNow ), xListWasEmpty );
 8003468:	4b0f      	ldr	r3, [pc, #60]	; (80034a8 <prvProcessTimerOrBlockTask+0x94>)
 800346a:	6818      	ldr	r0, [r3, #0]
 800346c:	687a      	ldr	r2, [r7, #4]
 800346e:	68fb      	ldr	r3, [r7, #12]
 8003470:	1ad3      	subs	r3, r2, r3
 8003472:	683a      	ldr	r2, [r7, #0]
 8003474:	4619      	mov	r1, r3
 8003476:	f7fe ffc1 	bl	80023fc <vQueueWaitForMessageRestricted>
				if( xTaskResumeAll() == pdFALSE )
 800347a:	f7ff fa37 	bl	80028ec <xTaskResumeAll>
 800347e:	4603      	mov	r3, r0
 8003480:	2b00      	cmp	r3, #0
 8003482:	d10a      	bne.n	800349a <prvProcessTimerOrBlockTask+0x86>
					portYIELD_WITHIN_API();
 8003484:	4b09      	ldr	r3, [pc, #36]	; (80034ac <prvProcessTimerOrBlockTask+0x98>)
 8003486:	f04f 5280 	mov.w	r2, #268435456	; 0x10000000
 800348a:	601a      	str	r2, [r3, #0]
 800348c:	f3bf 8f4f 	dsb	sy
 8003490:	f3bf 8f6f 	isb	sy
}
 8003494:	e001      	b.n	800349a <prvProcessTimerOrBlockTask+0x86>
			( void ) xTaskResumeAll();
 8003496:	f7ff fa29 	bl	80028ec <xTaskResumeAll>
}
 800349a:	bf00      	nop
 800349c:	3710      	adds	r7, #16
 800349e:	46bd      	mov	sp, r7
 80034a0:	bd80      	pop	{r7, pc}
 80034a2:	bf00      	nop
 80034a4:	20000c14 	.word	0x20000c14
 80034a8:	20000c18 	.word	0x20000c18
 80034ac:	e000ed04 	.word	0xe000ed04

080034b0 <prvGetNextExpireTime>:
/*-----------------------------------------------------------*/

static TickType_t prvGetNextExpireTime( BaseType_t * const pxListWasEmpty )
{
 80034b0:	b480      	push	{r7}
 80034b2:	b085      	sub	sp, #20
 80034b4:	af00      	add	r7, sp, #0
 80034b6:	6078      	str	r0, [r7, #4]
	the timer with the nearest expiry time will expire.  If there are no
	active timers then just set the next expire time to 0.  That will cause
	this task to unblock when the tick count overflows, at which point the
	timer lists will be switched and the next expiry time can be
	re-assessed.  */
	*pxListWasEmpty = listLIST_IS_EMPTY( pxCurrentTimerList );
 80034b8:	4b0e      	ldr	r3, [pc, #56]	; (80034f4 <prvGetNextExpireTime+0x44>)
 80034ba:	681b      	ldr	r3, [r3, #0]
 80034bc:	681b      	ldr	r3, [r3, #0]
 80034be:	2b00      	cmp	r3, #0
 80034c0:	d101      	bne.n	80034c6 <prvGetNextExpireTime+0x16>
 80034c2:	2201      	movs	r2, #1
 80034c4:	e000      	b.n	80034c8 <prvGetNextExpireTime+0x18>
 80034c6:	2200      	movs	r2, #0
 80034c8:	687b      	ldr	r3, [r7, #4]
 80034ca:	601a      	str	r2, [r3, #0]
	if( *pxListWasEmpty == pdFALSE )
 80034cc:	687b      	ldr	r3, [r7, #4]
 80034ce:	681b      	ldr	r3, [r3, #0]
 80034d0:	2b00      	cmp	r3, #0
 80034d2:	d105      	bne.n	80034e0 <prvGetNextExpireTime+0x30>
	{
		xNextExpireTime = listGET_ITEM_VALUE_OF_HEAD_ENTRY( pxCurrentTimerList );
 80034d4:	4b07      	ldr	r3, [pc, #28]	; (80034f4 <prvGetNextExpireTime+0x44>)
 80034d6:	681b      	ldr	r3, [r3, #0]
 80034d8:	68db      	ldr	r3, [r3, #12]
 80034da:	681b      	ldr	r3, [r3, #0]
 80034dc:	60fb      	str	r3, [r7, #12]
 80034de:	e001      	b.n	80034e4 <prvGetNextExpireTime+0x34>
	}
	else
	{
		/* Ensure the task unblocks when the tick count rolls over. */
		xNextExpireTime = ( TickType_t ) 0U;
 80034e0:	2300      	movs	r3, #0
 80034e2:	60fb      	str	r3, [r7, #12]
	}

	return xNextExpireTime;
 80034e4:	68fb      	ldr	r3, [r7, #12]
}
 80034e6:	4618      	mov	r0, r3
 80034e8:	3714      	adds	r7, #20
 80034ea:	46bd      	mov	sp, r7
 80034ec:	f85d 7b04 	ldr.w	r7, [sp], #4
 80034f0:	4770      	bx	lr
 80034f2:	bf00      	nop
 80034f4:	20000c10 	.word	0x20000c10

080034f8 <prvSampleTimeNow>:
/*-----------------------------------------------------------*/

static TickType_t prvSampleTimeNow( BaseType_t * const pxTimerListsWereSwitched )
{
 80034f8:	b580      	push	{r7, lr}
 80034fa:	b084      	sub	sp, #16
 80034fc:	af00      	add	r7, sp, #0
 80034fe:	6078      	str	r0, [r7, #4]
TickType_t xTimeNow;
PRIVILEGED_DATA static TickType_t xLastTime = ( TickType_t ) 0U; /*lint !e956 Variable is only accessible to one task. */

	xTimeNow = xTaskGetTickCount();
 8003500:	f7ff fa90 	bl	8002a24 <xTaskGetTickCount>
 8003504:	60f8      	str	r0, [r7, #12]

	if( xTimeNow < xLastTime )
 8003506:	4b0b      	ldr	r3, [pc, #44]	; (8003534 <prvSampleTimeNow+0x3c>)
 8003508:	681b      	ldr	r3, [r3, #0]
 800350a:	68fa      	ldr	r2, [r7, #12]
 800350c:	429a      	cmp	r2, r3
 800350e:	d205      	bcs.n	800351c <prvSampleTimeNow+0x24>
	{
		prvSwitchTimerLists();
 8003510:	f000 f930 	bl	8003774 <prvSwitchTimerLists>
		*pxTimerListsWereSwitched = pdTRUE;
 8003514:	687b      	ldr	r3, [r7, #4]
 8003516:	2201      	movs	r2, #1
 8003518:	601a      	str	r2, [r3, #0]
 800351a:	e002      	b.n	8003522 <prvSampleTimeNow+0x2a>
	}
	else
	{
		*pxTimerListsWereSwitched = pdFALSE;
 800351c:	687b      	ldr	r3, [r7, #4]
 800351e:	2200      	movs	r2, #0
 8003520:	601a      	str	r2, [r3, #0]
	}

	xLastTime = xTimeNow;
 8003522:	4a04      	ldr	r2, [pc, #16]	; (8003534 <prvSampleTimeNow+0x3c>)
 8003524:	68fb      	ldr	r3, [r7, #12]
 8003526:	6013      	str	r3, [r2, #0]

	return xTimeNow;
 8003528:	68fb      	ldr	r3, [r7, #12]
}
 800352a:	4618      	mov	r0, r3
 800352c:	3710      	adds	r7, #16
 800352e:	46bd      	mov	sp, r7
 8003530:	bd80      	pop	{r7, pc}
 8003532:	bf00      	nop
 8003534:	20000c20 	.word	0x20000c20

08003538 <prvInsertTimerInActiveList>:
/*-----------------------------------------------------------*/

static BaseType_t prvInsertTimerInActiveList( Timer_t * const pxTimer, const TickType_t xNextExpiryTime, const TickType_t xTimeNow, const TickType_t xCommandTime )
{
 8003538:	b580      	push	{r7, lr}
 800353a:	b086      	sub	sp, #24
 800353c:	af00      	add	r7, sp, #0
 800353e:	60f8      	str	r0, [r7, #12]
 8003540:	60b9      	str	r1, [r7, #8]
 8003542:	607a      	str	r2, [r7, #4]
 8003544:	603b      	str	r3, [r7, #0]
BaseType_t xProcessTimerNow = pdFALSE;
 8003546:	2300      	movs	r3, #0
 8003548:	617b      	str	r3, [r7, #20]

	listSET_LIST_ITEM_VALUE( &( pxTimer->xTimerListItem ), xNextExpiryTime );
 800354a:	68fb      	ldr	r3, [r7, #12]
 800354c:	68ba      	ldr	r2, [r7, #8]
 800354e:	605a      	str	r2, [r3, #4]
	listSET_LIST_ITEM_OWNER( &( pxTimer->xTimerListItem ), pxTimer );
 8003550:	68fb      	ldr	r3, [r7, #12]
 8003552:	68fa      	ldr	r2, [r7, #12]
 8003554:	611a      	str	r2, [r3, #16]

	if( xNextExpiryTime <= xTimeNow )
 8003556:	68ba      	ldr	r2, [r7, #8]
 8003558:	687b      	ldr	r3, [r7, #4]
 800355a:	429a      	cmp	r2, r3
 800355c:	d812      	bhi.n	8003584 <prvInsertTimerInActiveList+0x4c>
	{
		/* Has the expiry time elapsed between the command to start/reset a
		timer was issued, and the time the command was processed? */
		if( ( ( TickType_t ) ( xTimeNow - xCommandTime ) ) >= pxTimer->xTimerPeriodInTicks ) /*lint !e961 MISRA exception as the casts are only redundant for some ports. */
 800355e:	687a      	ldr	r2, [r7, #4]
 8003560:	683b      	ldr	r3, [r7, #0]
 8003562:	1ad2      	subs	r2, r2, r3
 8003564:	68fb      	ldr	r3, [r7, #12]
 8003566:	699b      	ldr	r3, [r3, #24]
 8003568:	429a      	cmp	r2, r3
 800356a:	d302      	bcc.n	8003572 <prvInsertTimerInActiveList+0x3a>
		{
			/* The time between a command being issued and the command being
			processed actually exceeds the timers period.  */
			xProcessTimerNow = pdTRUE;
 800356c:	2301      	movs	r3, #1
 800356e:	617b      	str	r3, [r7, #20]
 8003570:	e01b      	b.n	80035aa <prvInsertTimerInActiveList+0x72>
		}
		else
		{
			vListInsert( pxOverflowTimerList, &( pxTimer->xTimerListItem ) );
 8003572:	4b10      	ldr	r3, [pc, #64]	; (80035b4 <prvInsertTimerInActiveList+0x7c>)
 8003574:	681a      	ldr	r2, [r3, #0]
 8003576:	68fb      	ldr	r3, [r7, #12]
 8003578:	3304      	adds	r3, #4
 800357a:	4619      	mov	r1, r3
 800357c:	4610      	mov	r0, r2
 800357e:	f7fe fa3a 	bl	80019f6 <vListInsert>
 8003582:	e012      	b.n	80035aa <prvInsertTimerInActiveList+0x72>
		}
	}
	else
	{
		if( ( xTimeNow < xCommandTime ) && ( xNextExpiryTime >= xCommandTime ) )
 8003584:	687a      	ldr	r2, [r7, #4]
 8003586:	683b      	ldr	r3, [r7, #0]
 8003588:	429a      	cmp	r2, r3
 800358a:	d206      	bcs.n	800359a <prvInsertTimerInActiveList+0x62>
 800358c:	68ba      	ldr	r2, [r7, #8]
 800358e:	683b      	ldr	r3, [r7, #0]
 8003590:	429a      	cmp	r2, r3
 8003592:	d302      	bcc.n	800359a <prvInsertTimerInActiveList+0x62>
		{
			/* If, since the command was issued, the tick count has overflowed
			but the expiry time has not, then the timer must have already passed
			its expiry time and should be processed immediately. */
			xProcessTimerNow = pdTRUE;
 8003594:	2301      	movs	r3, #1
 8003596:	617b      	str	r3, [r7, #20]
 8003598:	e007      	b.n	80035aa <prvInsertTimerInActiveList+0x72>
		}
		else
		{
			vListInsert( pxCurrentTimerList, &( pxTimer->xTimerListItem ) );
 800359a:	4b07      	ldr	r3, [pc, #28]	; (80035b8 <prvInsertTimerInActiveList+0x80>)
 800359c:	681a      	ldr	r2, [r3, #0]
 800359e:	68fb      	ldr	r3, [r7, #12]
 80035a0:	3304      	adds	r3, #4
 80035a2:	4619      	mov	r1, r3
 80035a4:	4610      	mov	r0, r2
 80035a6:	f7fe fa26 	bl	80019f6 <vListInsert>
		}
	}

	return xProcessTimerNow;
 80035aa:	697b      	ldr	r3, [r7, #20]
}
 80035ac:	4618      	mov	r0, r3
 80035ae:	3718      	adds	r7, #24
 80035b0:	46bd      	mov	sp, r7
 80035b2:	bd80      	pop	{r7, pc}
 80035b4:	20000c14 	.word	0x20000c14
 80035b8:	20000c10 	.word	0x20000c10

080035bc <prvProcessReceivedCommands>:
/*-----------------------------------------------------------*/

static void	prvProcessReceivedCommands( void )
{
 80035bc:	b580      	push	{r7, lr}
 80035be:	b08e      	sub	sp, #56	; 0x38
 80035c0:	af02      	add	r7, sp, #8
DaemonTaskMessage_t xMessage;
Timer_t *pxTimer;
BaseType_t xTimerListsWereSwitched, xResult;
TickType_t xTimeNow;

	while( xQueueReceive( xTimerQueue, &xMessage, tmrNO_DELAY ) != pdFAIL ) /*lint !e603 xMessage does not have to be initialised as it is passed out, not in, and it is not used unless xQueueReceive() returns pdTRUE. */
 80035c2:	e0c6      	b.n	8003752 <prvProcessReceivedCommands+0x196>
	{
		#if ( INCLUDE_xTimerPendFunctionCall == 1 )
		{
			/* Negative commands are pended function calls rather than timer
			commands. */
			if( xMessage.xMessageID < ( BaseType_t ) 0 )
 80035c4:	687b      	ldr	r3, [r7, #4]
 80035c6:	2b00      	cmp	r3, #0
 80035c8:	da17      	bge.n	80035fa <prvProcessReceivedCommands+0x3e>
			{
				const CallbackParameters_t * const pxCallback = &( xMessage.u.xCallbackParameters );
 80035ca:	1d3b      	adds	r3, r7, #4
 80035cc:	3304      	adds	r3, #4
 80035ce:	62fb      	str	r3, [r7, #44]	; 0x2c

				/* The timer uses the xCallbackParameters member to request a
				callback be executed.  Check the callback is not NULL. */
				configASSERT( pxCallback );
 80035d0:	6afb      	ldr	r3, [r7, #44]	; 0x2c
 80035d2:	2b00      	cmp	r3, #0
 80035d4:	d109      	bne.n	80035ea <prvProcessReceivedCommands+0x2e>
 80035d6:	f04f 0350 	mov.w	r3, #80	; 0x50
 80035da:	f383 8811 	msr	BASEPRI, r3
 80035de:	f3bf 8f6f 	isb	sy
 80035e2:	f3bf 8f4f 	dsb	sy
 80035e6:	61fb      	str	r3, [r7, #28]
 80035e8:	e7fe      	b.n	80035e8 <prvProcessReceivedCommands+0x2c>

				/* Call the function. */
				pxCallback->pxCallbackFunction( pxCallback->pvParameter1, pxCallback->ulParameter2 );
 80035ea:	6afb      	ldr	r3, [r7, #44]	; 0x2c
 80035ec:	681b      	ldr	r3, [r3, #0]
 80035ee:	6afa      	ldr	r2, [r7, #44]	; 0x2c
 80035f0:	6850      	ldr	r0, [r2, #4]
 80035f2:	6afa      	ldr	r2, [r7, #44]	; 0x2c
 80035f4:	6892      	ldr	r2, [r2, #8]
 80035f6:	4611      	mov	r1, r2
 80035f8:	4798      	blx	r3
		}
		#endif /* INCLUDE_xTimerPendFunctionCall */

		/* Commands that are positive are timer commands rather than pended
		function calls. */
		if( xMessage.xMessageID >= ( BaseType_t ) 0 )
 80035fa:	687b      	ldr	r3, [r7, #4]
 80035fc:	2b00      	cmp	r3, #0
 80035fe:	f2c0 80a7 	blt.w	8003750 <prvProcessReceivedCommands+0x194>
		{
			/* The messages uses the xTimerParameters member to work on a
			software timer. */
			pxTimer = xMessage.u.xTimerParameters.pxTimer;
 8003602:	68fb      	ldr	r3, [r7, #12]
 8003604:	62bb      	str	r3, [r7, #40]	; 0x28

			if( listIS_CONTAINED_WITHIN( NULL, &( pxTimer->xTimerListItem ) ) == pdFALSE ) /*lint !e961. The cast is only redundant when NULL is passed into the macro. */
 8003606:	6abb      	ldr	r3, [r7, #40]	; 0x28
 8003608:	695b      	ldr	r3, [r3, #20]
 800360a:	2b00      	cmp	r3, #0
 800360c:	d004      	beq.n	8003618 <prvProcessReceivedCommands+0x5c>
			{
				/* The timer is in a list, remove it. */
				( void ) uxListRemove( &( pxTimer->xTimerListItem ) );
 800360e:	6abb      	ldr	r3, [r7, #40]	; 0x28
 8003610:	3304      	adds	r3, #4
 8003612:	4618      	mov	r0, r3
 8003614:	f7fe fa28 	bl	8001a68 <uxListRemove>
			it must be present in the function call.  prvSampleTimeNow() must be
			called after the message is received from xTimerQueue so there is no
			possibility of a higher priority task adding a message to the message
			queue with a time that is ahead of the timer daemon task (because it
			pre-empted the timer daemon task after the xTimeNow value was set). */
			xTimeNow = prvSampleTimeNow( &xTimerListsWereSwitched );
 8003618:	463b      	mov	r3, r7
 800361a:	4618      	mov	r0, r3
 800361c:	f7ff ff6c 	bl	80034f8 <prvSampleTimeNow>
 8003620:	6278      	str	r0, [r7, #36]	; 0x24

			switch( xMessage.xMessageID )
 8003622:	687b      	ldr	r3, [r7, #4]
 8003624:	2b09      	cmp	r3, #9
 8003626:	f200 8094 	bhi.w	8003752 <prvProcessReceivedCommands+0x196>
 800362a:	a201      	add	r2, pc, #4	; (adr r2, 8003630 <prvProcessReceivedCommands+0x74>)
 800362c:	f852 f023 	ldr.w	pc, [r2, r3, lsl #2]
 8003630:	08003659 	.word	0x08003659
 8003634:	08003659 	.word	0x08003659
 8003638:	08003659 	.word	0x08003659
 800363c:	080036cb 	.word	0x080036cb
 8003640:	080036df 	.word	0x080036df
 8003644:	08003727 	.word	0x08003727
 8003648:	08003659 	.word	0x08003659
 800364c:	08003659 	.word	0x08003659
 8003650:	080036cb 	.word	0x080036cb
 8003654:	080036df 	.word	0x080036df
				case tmrCOMMAND_START_FROM_ISR :
				case tmrCOMMAND_RESET :
				case tmrCOMMAND_RESET_FROM_ISR :
				case tmrCOMMAND_START_DONT_TRACE :
					/* Start or restart a timer. */
					pxTimer->ucStatus |= tmrSTATUS_IS_ACTIVE;
 8003658:	6abb      	ldr	r3, [r7, #40]	; 0x28
 800365a:	f893 3028 	ldrb.w	r3, [r3, #40]	; 0x28
 800365e:	f043 0301 	orr.w	r3, r3, #1
 8003662:	b2da      	uxtb	r2, r3
 8003664:	6abb      	ldr	r3, [r7, #40]	; 0x28
 8003666:	f883 2028 	strb.w	r2, [r3, #40]	; 0x28
					if( prvInsertTimerInActiveList( pxTimer,  xMessage.u.xTimerParameters.xMessageValue + pxTimer->xTimerPeriodInTicks, xTimeNow, xMessage.u.xTimerParameters.xMessageValue ) != pdFALSE )
 800366a:	68ba      	ldr	r2, [r7, #8]
 800366c:	6abb      	ldr	r3, [r7, #40]	; 0x28
 800366e:	699b      	ldr	r3, [r3, #24]
 8003670:	18d1      	adds	r1, r2, r3
 8003672:	68bb      	ldr	r3, [r7, #8]
 8003674:	6a7a      	ldr	r2, [r7, #36]	; 0x24
 8003676:	6ab8      	ldr	r0, [r7, #40]	; 0x28
 8003678:	f7ff ff5e 	bl	8003538 <prvInsertTimerInActiveList>
 800367c:	4603      	mov	r3, r0
 800367e:	2b00      	cmp	r3, #0
 8003680:	d067      	beq.n	8003752 <prvProcessReceivedCommands+0x196>
					{
						/* The timer expired before it was added to the active
						timer list.  Process it now. */
						pxTimer->pxCallbackFunction( ( TimerHandle_t ) pxTimer );
 8003682:	6abb      	ldr	r3, [r7, #40]	; 0x28
 8003684:	6a1b      	ldr	r3, [r3, #32]
 8003686:	6ab8      	ldr	r0, [r7, #40]	; 0x28
 8003688:	4798      	blx	r3
						traceTIMER_EXPIRED( pxTimer );

						if( ( pxTimer->ucStatus & tmrSTATUS_IS_AUTORELOAD ) != 0 )
 800368a:	6abb      	ldr	r3, [r7, #40]	; 0x28
 800368c:	f893 3028 	ldrb.w	r3, [r3, #40]	; 0x28
 8003690:	f003 0304 	and.w	r3, r3, #4
 8003694:	2b00      	cmp	r3, #0
 8003696:	d05c      	beq.n	8003752 <prvProcessReceivedCommands+0x196>
						{
							xResult = xTimerGenericCommand( pxTimer, tmrCOMMAND_START_DONT_TRACE, xMessage.u.xTimerParameters.xMessageValue + pxTimer->xTimerPeriodInTicks, NULL, tmrNO_DELAY );
 8003698:	68ba      	ldr	r2, [r7, #8]
 800369a:	6abb      	ldr	r3, [r7, #40]	; 0x28
 800369c:	699b      	ldr	r3, [r3, #24]
 800369e:	441a      	add	r2, r3
 80036a0:	2300      	movs	r3, #0
 80036a2:	9300      	str	r3, [sp, #0]
 80036a4:	2300      	movs	r3, #0
 80036a6:	2100      	movs	r1, #0
 80036a8:	6ab8      	ldr	r0, [r7, #40]	; 0x28
 80036aa:	f7ff fe09 	bl	80032c0 <xTimerGenericCommand>
 80036ae:	6238      	str	r0, [r7, #32]
							configASSERT( xResult );
 80036b0:	6a3b      	ldr	r3, [r7, #32]
 80036b2:	2b00      	cmp	r3, #0
 80036b4:	d14d      	bne.n	8003752 <prvProcessReceivedCommands+0x196>
 80036b6:	f04f 0350 	mov.w	r3, #80	; 0x50
 80036ba:	f383 8811 	msr	BASEPRI, r3
 80036be:	f3bf 8f6f 	isb	sy
 80036c2:	f3bf 8f4f 	dsb	sy
 80036c6:	61bb      	str	r3, [r7, #24]
 80036c8:	e7fe      	b.n	80036c8 <prvProcessReceivedCommands+0x10c>
					break;

				case tmrCOMMAND_STOP :
				case tmrCOMMAND_STOP_FROM_ISR :
					/* The timer has already been removed from the active list. */
					pxTimer->ucStatus &= ~tmrSTATUS_IS_ACTIVE;
 80036ca:	6abb      	ldr	r3, [r7, #40]	; 0x28
 80036cc:	f893 3028 	ldrb.w	r3, [r3, #40]	; 0x28
 80036d0:	f023 0301 	bic.w	r3, r3, #1
 80036d4:	b2da      	uxtb	r2, r3
 80036d6:	6abb      	ldr	r3, [r7, #40]	; 0x28
 80036d8:	f883 2028 	strb.w	r2, [r3, #40]	; 0x28
					break;
 80036dc:	e039      	b.n	8003752 <prvProcessReceivedCommands+0x196>

				case tmrCOMMAND_CHANGE_PERIOD :
				case tmrCOMMAND_CHANGE_PERIOD_FROM_ISR :
					pxTimer->ucStatus |= tmrSTATUS_IS_ACTIVE;
 80036de:	6abb      	ldr	r3, [r7, #40]	; 0x28
 80036e0:	f893 3028 	ldrb.w	r3, [r3, #40]	; 0x28
 80036e4:	f043 0301 	orr.w	r3, r3, #1
 80036e8:	b2da      	uxtb	r2, r3
 80036ea:	6abb      	ldr	r3, [r7, #40]	; 0x28
 80036ec:	f883 2028 	strb.w	r2, [r3, #40]	; 0x28
					pxTimer->xTimerPeriodInTicks = xMessage.u.xTimerParameters.xMessageValue;
 80036f0:	68ba      	ldr	r2, [r7, #8]
 80036f2:	6abb      	ldr	r3, [r7, #40]	; 0x28
 80036f4:	619a      	str	r2, [r3, #24]
					configASSERT( ( pxTimer->xTimerPeriodInTicks > 0 ) );
 80036f6:	6abb      	ldr	r3, [r7, #40]	; 0x28
 80036f8:	699b      	ldr	r3, [r3, #24]
 80036fa:	2b00      	cmp	r3, #0
 80036fc:	d109      	bne.n	8003712 <prvProcessReceivedCommands+0x156>
 80036fe:	f04f 0350 	mov.w	r3, #80	; 0x50
 8003702:	f383 8811 	msr	BASEPRI, r3
 8003706:	f3bf 8f6f 	isb	sy
 800370a:	f3bf 8f4f 	dsb	sy
 800370e:	617b      	str	r3, [r7, #20]
 8003710:	e7fe      	b.n	8003710 <prvProcessReceivedCommands+0x154>
					be longer or shorter than the old one.  The command time is
					therefore set to the current time, and as the period cannot
					be zero the next expiry time can only be in the future,
					meaning (unlike for the xTimerStart() case above) there is
					no fail case that needs to be handled here. */
					( void ) prvInsertTimerInActiveList( pxTimer, ( xTimeNow + pxTimer->xTimerPeriodInTicks ), xTimeNow, xTimeNow );
 8003712:	6abb      	ldr	r3, [r7, #40]	; 0x28
 8003714:	699a      	ldr	r2, [r3, #24]
 8003716:	6a7b      	ldr	r3, [r7, #36]	; 0x24
 8003718:	18d1      	adds	r1, r2, r3
 800371a:	6a7b      	ldr	r3, [r7, #36]	; 0x24
 800371c:	6a7a      	ldr	r2, [r7, #36]	; 0x24
 800371e:	6ab8      	ldr	r0, [r7, #40]	; 0x28
 8003720:	f7ff ff0a 	bl	8003538 <prvInsertTimerInActiveList>
					break;
 8003724:	e015      	b.n	8003752 <prvProcessReceivedCommands+0x196>
					#if ( configSUPPORT_DYNAMIC_ALLOCATION == 1 )
					{
						/* The timer has already been removed from the active list,
						just free up the memory if the memory was dynamically
						allocated. */
						if( ( pxTimer->ucStatus & tmrSTATUS_IS_STATICALLY_ALLOCATED ) == ( uint8_t ) 0 )
 8003726:	6abb      	ldr	r3, [r7, #40]	; 0x28
 8003728:	f893 3028 	ldrb.w	r3, [r3, #40]	; 0x28
 800372c:	f003 0302 	and.w	r3, r3, #2
 8003730:	2b00      	cmp	r3, #0
 8003732:	d103      	bne.n	800373c <prvProcessReceivedCommands+0x180>
						{
							vPortFree( pxTimer );
 8003734:	6ab8      	ldr	r0, [r7, #40]	; 0x28
 8003736:	f000 fbc5 	bl	8003ec4 <vPortFree>
 800373a:	e00a      	b.n	8003752 <prvProcessReceivedCommands+0x196>
						}
						else
						{
							pxTimer->ucStatus &= ~tmrSTATUS_IS_ACTIVE;
 800373c:	6abb      	ldr	r3, [r7, #40]	; 0x28
 800373e:	f893 3028 	ldrb.w	r3, [r3, #40]	; 0x28
 8003742:	f023 0301 	bic.w	r3, r3, #1
 8003746:	b2da      	uxtb	r2, r3
 8003748:	6abb      	ldr	r3, [r7, #40]	; 0x28
 800374a:	f883 2028 	strb.w	r2, [r3, #40]	; 0x28
						no need to free the memory - just mark the timer as
						"not active". */
						pxTimer->ucStatus &= ~tmrSTATUS_IS_ACTIVE;
					}
					#endif /* configSUPPORT_DYNAMIC_ALLOCATION */
					break;
 800374e:	e000      	b.n	8003752 <prvProcessReceivedCommands+0x196>

				default	:
					/* Don't expect to get here. */
					break;
			}
		}
 8003750:	bf00      	nop
	while( xQueueReceive( xTimerQueue, &xMessage, tmrNO_DELAY ) != pdFAIL ) /*lint !e603 xMessage does not have to be initialised as it is passed out, not in, and it is not used unless xQueueReceive() returns pdTRUE. */
 8003752:	4b07      	ldr	r3, [pc, #28]	; (8003770 <prvProcessReceivedCommands+0x1b4>)
 8003754:	681b      	ldr	r3, [r3, #0]
 8003756:	1d39      	adds	r1, r7, #4
 8003758:	2200      	movs	r2, #0
 800375a:	4618      	mov	r0, r3
 800375c:	f7fe fc3a 	bl	8001fd4 <xQueueReceive>
 8003760:	4603      	mov	r3, r0
 8003762:	2b00      	cmp	r3, #0
 8003764:	f47f af2e 	bne.w	80035c4 <prvProcessReceivedCommands+0x8>
	}
}
 8003768:	bf00      	nop
 800376a:	3730      	adds	r7, #48	; 0x30
 800376c:	46bd      	mov	sp, r7
 800376e:	bd80      	pop	{r7, pc}
 8003770:	20000c18 	.word	0x20000c18

08003774 <prvSwitchTimerLists>:
/*-----------------------------------------------------------*/

static void prvSwitchTimerLists( void )
{
 8003774:	b580      	push	{r7, lr}
 8003776:	b088      	sub	sp, #32
 8003778:	af02      	add	r7, sp, #8

	/* The tick count has overflowed.  The timer lists must be switched.
	If there are any timers still referenced from the current timer list
	then they must have expired and should be processed before the lists
	are switched. */
	while( listLIST_IS_EMPTY( pxCurrentTimerList ) == pdFALSE )
 800377a:	e047      	b.n	800380c <prvSwitchTimerLists+0x98>
	{
		xNextExpireTime = listGET_ITEM_VALUE_OF_HEAD_ENTRY( pxCurrentTimerList );
 800377c:	4b2d      	ldr	r3, [pc, #180]	; (8003834 <prvSwitchTimerLists+0xc0>)
 800377e:	681b      	ldr	r3, [r3, #0]
 8003780:	68db      	ldr	r3, [r3, #12]
 8003782:	681b      	ldr	r3, [r3, #0]
 8003784:	613b      	str	r3, [r7, #16]

		/* Remove the timer from the list. */
		pxTimer = ( Timer_t * ) listGET_OWNER_OF_HEAD_ENTRY( pxCurrentTimerList ); /*lint !e9087 !e9079 void * is used as this macro is used with tasks and co-routines too.  Alignment is known to be fine as the type of the pointer stored and retrieved is the same. */
 8003786:	4b2b      	ldr	r3, [pc, #172]	; (8003834 <prvSwitchTimerLists+0xc0>)
 8003788:	681b      	ldr	r3, [r3, #0]
 800378a:	68db      	ldr	r3, [r3, #12]
 800378c:	68db      	ldr	r3, [r3, #12]
 800378e:	60fb      	str	r3, [r7, #12]
		( void ) uxListRemove( &( pxTimer->xTimerListItem ) );
 8003790:	68fb      	ldr	r3, [r7, #12]
 8003792:	3304      	adds	r3, #4
 8003794:	4618      	mov	r0, r3
 8003796:	f7fe f967 	bl	8001a68 <uxListRemove>
		traceTIMER_EXPIRED( pxTimer );

		/* Execute its callback, then send a command to restart the timer if
		it is an auto-reload timer.  It cannot be restarted here as the lists
		have not yet been switched. */
		pxTimer->pxCallbackFunction( ( TimerHandle_t ) pxTimer );
 800379a:	68fb      	ldr	r3, [r7, #12]
 800379c:	6a1b      	ldr	r3, [r3, #32]
 800379e:	68f8      	ldr	r0, [r7, #12]
 80037a0:	4798      	blx	r3

		if( ( pxTimer->ucStatus & tmrSTATUS_IS_AUTORELOAD ) != 0 )
 80037a2:	68fb      	ldr	r3, [r7, #12]
 80037a4:	f893 3028 	ldrb.w	r3, [r3, #40]	; 0x28
 80037a8:	f003 0304 	and.w	r3, r3, #4
 80037ac:	2b00      	cmp	r3, #0
 80037ae:	d02d      	beq.n	800380c <prvSwitchTimerLists+0x98>
			the timer going into the same timer list then it has already expired
			and the timer should be re-inserted into the current list so it is
			processed again within this loop.  Otherwise a command should be sent
			to restart the timer to ensure it is only inserted into a list after
			the lists have been swapped. */
			xReloadTime = ( xNextExpireTime + pxTimer->xTimerPeriodInTicks );
 80037b0:	68fb      	ldr	r3, [r7, #12]
 80037b2:	699b      	ldr	r3, [r3, #24]
 80037b4:	693a      	ldr	r2, [r7, #16]
 80037b6:	4413      	add	r3, r2
 80037b8:	60bb      	str	r3, [r7, #8]
			if( xReloadTime > xNextExpireTime )
 80037ba:	68ba      	ldr	r2, [r7, #8]
 80037bc:	693b      	ldr	r3, [r7, #16]
 80037be:	429a      	cmp	r2, r3
 80037c0:	d90e      	bls.n	80037e0 <prvSwitchTimerLists+0x6c>
			{
				listSET_LIST_ITEM_VALUE( &( pxTimer->xTimerListItem ), xReloadTime );
 80037c2:	68fb      	ldr	r3, [r7, #12]
 80037c4:	68ba      	ldr	r2, [r7, #8]
 80037c6:	605a      	str	r2, [r3, #4]
				listSET_LIST_ITEM_OWNER( &( pxTimer->xTimerListItem ), pxTimer );
 80037c8:	68fb      	ldr	r3, [r7, #12]
 80037ca:	68fa      	ldr	r2, [r7, #12]
 80037cc:	611a      	str	r2, [r3, #16]
				vListInsert( pxCurrentTimerList, &( pxTimer->xTimerListItem ) );
 80037ce:	4b19      	ldr	r3, [pc, #100]	; (8003834 <prvSwitchTimerLists+0xc0>)
 80037d0:	681a      	ldr	r2, [r3, #0]
 80037d2:	68fb      	ldr	r3, [r7, #12]
 80037d4:	3304      	adds	r3, #4
 80037d6:	4619      	mov	r1, r3
 80037d8:	4610      	mov	r0, r2
 80037da:	f7fe f90c 	bl	80019f6 <vListInsert>
 80037de:	e015      	b.n	800380c <prvSwitchTimerLists+0x98>
			}
			else
			{
				xResult = xTimerGenericCommand( pxTimer, tmrCOMMAND_START_DONT_TRACE, xNextExpireTime, NULL, tmrNO_DELAY );
 80037e0:	2300      	movs	r3, #0
 80037e2:	9300      	str	r3, [sp, #0]
 80037e4:	2300      	movs	r3, #0
 80037e6:	693a      	ldr	r2, [r7, #16]
 80037e8:	2100      	movs	r1, #0
 80037ea:	68f8      	ldr	r0, [r7, #12]
 80037ec:	f7ff fd68 	bl	80032c0 <xTimerGenericCommand>
 80037f0:	6078      	str	r0, [r7, #4]
				configASSERT( xResult );
 80037f2:	687b      	ldr	r3, [r7, #4]
 80037f4:	2b00      	cmp	r3, #0
 80037f6:	d109      	bne.n	800380c <prvSwitchTimerLists+0x98>
 80037f8:	f04f 0350 	mov.w	r3, #80	; 0x50
 80037fc:	f383 8811 	msr	BASEPRI, r3
 8003800:	f3bf 8f6f 	isb	sy
 8003804:	f3bf 8f4f 	dsb	sy
 8003808:	603b      	str	r3, [r7, #0]
 800380a:	e7fe      	b.n	800380a <prvSwitchTimerLists+0x96>
	while( listLIST_IS_EMPTY( pxCurrentTimerList ) == pdFALSE )
 800380c:	4b09      	ldr	r3, [pc, #36]	; (8003834 <prvSwitchTimerLists+0xc0>)
 800380e:	681b      	ldr	r3, [r3, #0]
 8003810:	681b      	ldr	r3, [r3, #0]
 8003812:	2b00      	cmp	r3, #0
 8003814:	d1b2      	bne.n	800377c <prvSwitchTimerLists+0x8>
		{
			mtCOVERAGE_TEST_MARKER();
		}
	}

	pxTemp = pxCurrentTimerList;
 8003816:	4b07      	ldr	r3, [pc, #28]	; (8003834 <prvSwitchTimerLists+0xc0>)
 8003818:	681b      	ldr	r3, [r3, #0]
 800381a:	617b      	str	r3, [r7, #20]
	pxCurrentTimerList = pxOverflowTimerList;
 800381c:	4b06      	ldr	r3, [pc, #24]	; (8003838 <prvSwitchTimerLists+0xc4>)
 800381e:	681b      	ldr	r3, [r3, #0]
 8003820:	4a04      	ldr	r2, [pc, #16]	; (8003834 <prvSwitchTimerLists+0xc0>)
 8003822:	6013      	str	r3, [r2, #0]
	pxOverflowTimerList = pxTemp;
 8003824:	4a04      	ldr	r2, [pc, #16]	; (8003838 <prvSwitchTimerLists+0xc4>)
 8003826:	697b      	ldr	r3, [r7, #20]
 8003828:	6013      	str	r3, [r2, #0]
}
 800382a:	bf00      	nop
 800382c:	3718      	adds	r7, #24
 800382e:	46bd      	mov	sp, r7
 8003830:	bd80      	pop	{r7, pc}
 8003832:	bf00      	nop
 8003834:	20000c10 	.word	0x20000c10
 8003838:	20000c14 	.word	0x20000c14

0800383c <prvCheckForValidListAndQueue>:
/*-----------------------------------------------------------*/

static void prvCheckForValidListAndQueue( void )
{
 800383c:	b580      	push	{r7, lr}
 800383e:	b082      	sub	sp, #8
 8003840:	af02      	add	r7, sp, #8
	/* Check that the list from which active timers are referenced, and the
	queue used to communicate with the timer service, have been
	initialised. */
	taskENTER_CRITICAL();
 8003842:	f000 f963 	bl	8003b0c <vPortEnterCritical>
	{
		if( xTimerQueue == NULL )
 8003846:	4b15      	ldr	r3, [pc, #84]	; (800389c <prvCheckForValidListAndQueue+0x60>)
 8003848:	681b      	ldr	r3, [r3, #0]
 800384a:	2b00      	cmp	r3, #0
 800384c:	d120      	bne.n	8003890 <prvCheckForValidListAndQueue+0x54>
		{
			vListInitialise( &xActiveTimerList1 );
 800384e:	4814      	ldr	r0, [pc, #80]	; (80038a0 <prvCheckForValidListAndQueue+0x64>)
 8003850:	f7fe f880 	bl	8001954 <vListInitialise>
			vListInitialise( &xActiveTimerList2 );
 8003854:	4813      	ldr	r0, [pc, #76]	; (80038a4 <prvCheckForValidListAndQueue+0x68>)
 8003856:	f7fe f87d 	bl	8001954 <vListInitialise>
			pxCurrentTimerList = &xActiveTimerList1;
 800385a:	4b13      	ldr	r3, [pc, #76]	; (80038a8 <prvCheckForValidListAndQueue+0x6c>)
 800385c:	4a10      	ldr	r2, [pc, #64]	; (80038a0 <prvCheckForValidListAndQueue+0x64>)
 800385e:	601a      	str	r2, [r3, #0]
			pxOverflowTimerList = &xActiveTimerList2;
 8003860:	4b12      	ldr	r3, [pc, #72]	; (80038ac <prvCheckForValidListAndQueue+0x70>)
 8003862:	4a10      	ldr	r2, [pc, #64]	; (80038a4 <prvCheckForValidListAndQueue+0x68>)
 8003864:	601a      	str	r2, [r3, #0]
				/* The timer queue is allocated statically in case
				configSUPPORT_DYNAMIC_ALLOCATION is 0. */
				static StaticQueue_t xStaticTimerQueue; /*lint !e956 Ok to declare in this manner to prevent additional conditional compilation guards in other locations. */
				static uint8_t ucStaticTimerQueueStorage[ ( size_t ) configTIMER_QUEUE_LENGTH * sizeof( DaemonTaskMessage_t ) ]; /*lint !e956 Ok to declare in this manner to prevent additional conditional compilation guards in other locations. */

				xTimerQueue = xQueueCreateStatic( ( UBaseType_t ) configTIMER_QUEUE_LENGTH, ( UBaseType_t ) sizeof( DaemonTaskMessage_t ), &( ucStaticTimerQueueStorage[ 0 ] ), &xStaticTimerQueue );
 8003866:	2300      	movs	r3, #0
 8003868:	9300      	str	r3, [sp, #0]
 800386a:	4b11      	ldr	r3, [pc, #68]	; (80038b0 <prvCheckForValidListAndQueue+0x74>)
 800386c:	4a11      	ldr	r2, [pc, #68]	; (80038b4 <prvCheckForValidListAndQueue+0x78>)
 800386e:	2110      	movs	r1, #16
 8003870:	200a      	movs	r0, #10
 8003872:	f7fe f98b 	bl	8001b8c <xQueueGenericCreateStatic>
 8003876:	4602      	mov	r2, r0
 8003878:	4b08      	ldr	r3, [pc, #32]	; (800389c <prvCheckForValidListAndQueue+0x60>)
 800387a:	601a      	str	r2, [r3, #0]
			}
			#endif

			#if ( configQUEUE_REGISTRY_SIZE > 0 )
			{
				if( xTimerQueue != NULL )
 800387c:	4b07      	ldr	r3, [pc, #28]	; (800389c <prvCheckForValidListAndQueue+0x60>)
 800387e:	681b      	ldr	r3, [r3, #0]
 8003880:	2b00      	cmp	r3, #0
 8003882:	d005      	beq.n	8003890 <prvCheckForValidListAndQueue+0x54>
				{
					vQueueAddToRegistry( xTimerQueue, "TmrQ" );
 8003884:	4b05      	ldr	r3, [pc, #20]	; (800389c <prvCheckForValidListAndQueue+0x60>)
 8003886:	681b      	ldr	r3, [r3, #0]
 8003888:	490b      	ldr	r1, [pc, #44]	; (80038b8 <prvCheckForValidListAndQueue+0x7c>)
 800388a:	4618      	mov	r0, r3
 800388c:	f7fe fd8e 	bl	80023ac <vQueueAddToRegistry>
		else
		{
			mtCOVERAGE_TEST_MARKER();
		}
	}
	taskEXIT_CRITICAL();
 8003890:	f000 f96a 	bl	8003b68 <vPortExitCritical>
}
 8003894:	bf00      	nop
 8003896:	46bd      	mov	sp, r7
 8003898:	bd80      	pop	{r7, pc}
 800389a:	bf00      	nop
 800389c:	20000c18 	.word	0x20000c18
 80038a0:	20000be8 	.word	0x20000be8
 80038a4:	20000bfc 	.word	0x20000bfc
 80038a8:	20000c10 	.word	0x20000c10
 80038ac:	20000c14 	.word	0x20000c14
 80038b0:	20000cc4 	.word	0x20000cc4
 80038b4:	20000c24 	.word	0x20000c24
 80038b8:	0800419c 	.word	0x0800419c

080038bc <pxPortInitialiseStack>:

/*
 * See header file for description.
 */
StackType_t *pxPortInitialiseStack( StackType_t *pxTopOfStack, TaskFunction_t pxCode, void *pvParameters )
{
 80038bc:	b480      	push	{r7}
 80038be:	b085      	sub	sp, #20
 80038c0:	af00      	add	r7, sp, #0
 80038c2:	60f8      	str	r0, [r7, #12]
 80038c4:	60b9      	str	r1, [r7, #8]
 80038c6:	607a      	str	r2, [r7, #4]
	/* Simulate the stack frame as it would be created by a context switch
	interrupt. */

	/* Offset added to account for the way the MCU uses the stack on entry/exit
	of interrupts, and to ensure alignment. */
	pxTopOfStack--;
 80038c8:	68fb      	ldr	r3, [r7, #12]
 80038ca:	3b04      	subs	r3, #4
 80038cc:	60fb      	str	r3, [r7, #12]

	*pxTopOfStack = portINITIAL_XPSR;	/* xPSR */
 80038ce:	68fb      	ldr	r3, [r7, #12]
 80038d0:	f04f 7280 	mov.w	r2, #16777216	; 0x1000000
 80038d4:	601a      	str	r2, [r3, #0]
	pxTopOfStack--;
 80038d6:	68fb      	ldr	r3, [r7, #12]
 80038d8:	3b04      	subs	r3, #4
 80038da:	60fb      	str	r3, [r7, #12]
	*pxTopOfStack = ( ( StackType_t ) pxCode ) & portSTART_ADDRESS_MASK;	/* PC */
 80038dc:	68bb      	ldr	r3, [r7, #8]
 80038de:	f023 0201 	bic.w	r2, r3, #1
 80038e2:	68fb      	ldr	r3, [r7, #12]
 80038e4:	601a      	str	r2, [r3, #0]
	pxTopOfStack--;
 80038e6:	68fb      	ldr	r3, [r7, #12]
 80038e8:	3b04      	subs	r3, #4
 80038ea:	60fb      	str	r3, [r7, #12]
	*pxTopOfStack = ( StackType_t ) portTASK_RETURN_ADDRESS;	/* LR */
 80038ec:	4a0c      	ldr	r2, [pc, #48]	; (8003920 <pxPortInitialiseStack+0x64>)
 80038ee:	68fb      	ldr	r3, [r7, #12]
 80038f0:	601a      	str	r2, [r3, #0]

	/* Save code space by skipping register initialisation. */
	pxTopOfStack -= 5;	/* R12, R3, R2 and R1. */
 80038f2:	68fb      	ldr	r3, [r7, #12]
 80038f4:	3b14      	subs	r3, #20
 80038f6:	60fb      	str	r3, [r7, #12]
	*pxTopOfStack = ( StackType_t ) pvParameters;	/* R0 */
 80038f8:	687a      	ldr	r2, [r7, #4]
 80038fa:	68fb      	ldr	r3, [r7, #12]
 80038fc:	601a      	str	r2, [r3, #0]

	/* A save method is being used that requires each task to maintain its
	own exec return value. */
	pxTopOfStack--;
 80038fe:	68fb      	ldr	r3, [r7, #12]
 8003900:	3b04      	subs	r3, #4
 8003902:	60fb      	str	r3, [r7, #12]
	*pxTopOfStack = portINITIAL_EXC_RETURN;
 8003904:	68fb      	ldr	r3, [r7, #12]
 8003906:	f06f 0202 	mvn.w	r2, #2
 800390a:	601a      	str	r2, [r3, #0]

	pxTopOfStack -= 8;	/* R11, R10, R9, R8, R7, R6, R5 and R4. */
 800390c:	68fb      	ldr	r3, [r7, #12]
 800390e:	3b20      	subs	r3, #32
 8003910:	60fb      	str	r3, [r7, #12]

	return pxTopOfStack;
 8003912:	68fb      	ldr	r3, [r7, #12]
}
 8003914:	4618      	mov	r0, r3
 8003916:	3714      	adds	r7, #20
 8003918:	46bd      	mov	sp, r7
 800391a:	f85d 7b04 	ldr.w	r7, [sp], #4
 800391e:	4770      	bx	lr
 8003920:	08003925 	.word	0x08003925

08003924 <prvTaskExitError>:
/*-----------------------------------------------------------*/

static void prvTaskExitError( void )
{
 8003924:	b480      	push	{r7}
 8003926:	b085      	sub	sp, #20
 8003928:	af00      	add	r7, sp, #0
volatile uint32_t ulDummy = 0;
 800392a:	2300      	movs	r3, #0
 800392c:	607b      	str	r3, [r7, #4]
	its caller as there is nothing to return to.  If a task wants to exit it
	should instead call vTaskDelete( NULL ).

	Artificially force an assert() to be triggered if configASSERT() is
	defined, then stop here so application writers can catch the error. */
	configASSERT( uxCriticalNesting == ~0UL );
 800392e:	4b11      	ldr	r3, [pc, #68]	; (8003974 <prvTaskExitError+0x50>)
 8003930:	681b      	ldr	r3, [r3, #0]
 8003932:	f1b3 3fff 	cmp.w	r3, #4294967295
 8003936:	d009      	beq.n	800394c <prvTaskExitError+0x28>
 8003938:	f04f 0350 	mov.w	r3, #80	; 0x50
 800393c:	f383 8811 	msr	BASEPRI, r3
 8003940:	f3bf 8f6f 	isb	sy
 8003944:	f3bf 8f4f 	dsb	sy
 8003948:	60fb      	str	r3, [r7, #12]
 800394a:	e7fe      	b.n	800394a <prvTaskExitError+0x26>
 800394c:	f04f 0350 	mov.w	r3, #80	; 0x50
 8003950:	f383 8811 	msr	BASEPRI, r3
 8003954:	f3bf 8f6f 	isb	sy
 8003958:	f3bf 8f4f 	dsb	sy
 800395c:	60bb      	str	r3, [r7, #8]
	portDISABLE_INTERRUPTS();
	while( ulDummy == 0 )
 800395e:	bf00      	nop
 8003960:	687b      	ldr	r3, [r7, #4]
 8003962:	2b00      	cmp	r3, #0
 8003964:	d0fc      	beq.n	8003960 <prvTaskExitError+0x3c>
		about code appearing after this function is called - making ulDummy
		volatile makes the compiler think the function could return and
		therefore not output an 'unreachable code' warning for code that appears
		after it. */
	}
}
 8003966:	bf00      	nop
 8003968:	3714      	adds	r7, #20
 800396a:	46bd      	mov	sp, r7
 800396c:	f85d 7b04 	ldr.w	r7, [sp], #4
 8003970:	4770      	bx	lr
 8003972:	bf00      	nop
 8003974:	2000000c 	.word	0x2000000c
	...

08003980 <SVC_Handler>:
/*-----------------------------------------------------------*/

void vPortSVCHandler( void )
{
	__asm volatile (
 8003980:	4b07      	ldr	r3, [pc, #28]	; (80039a0 <pxCurrentTCBConst2>)
 8003982:	6819      	ldr	r1, [r3, #0]
 8003984:	6808      	ldr	r0, [r1, #0]
 8003986:	e8b0 4ff0 	ldmia.w	r0!, {r4, r5, r6, r7, r8, r9, sl, fp, lr}
 800398a:	f380 8809 	msr	PSP, r0
 800398e:	f3bf 8f6f 	isb	sy
 8003992:	f04f 0000 	mov.w	r0, #0
 8003996:	f380 8811 	msr	BASEPRI, r0
 800399a:	4770      	bx	lr
 800399c:	f3af 8000 	nop.w

080039a0 <pxCurrentTCBConst2>:
 80039a0:	200006e8 	.word	0x200006e8
					"	bx r14							\n"
					"									\n"
					"	.align 4						\n"
					"pxCurrentTCBConst2: .word pxCurrentTCB				\n"
				);
}
 80039a4:	bf00      	nop
 80039a6:	bf00      	nop

080039a8 <prvPortStartFirstTask>:
{
	/* Start the first task.  This also clears the bit that indicates the FPU is
	in use in case the FPU was used before the scheduler was started - which
	would otherwise result in the unnecessary leaving of space in the SVC stack
	for lazy saving of FPU registers. */
	__asm volatile(
 80039a8:	4808      	ldr	r0, [pc, #32]	; (80039cc <prvPortStartFirstTask+0x24>)
 80039aa:	6800      	ldr	r0, [r0, #0]
 80039ac:	6800      	ldr	r0, [r0, #0]
 80039ae:	f380 8808 	msr	MSP, r0
 80039b2:	f04f 0000 	mov.w	r0, #0
 80039b6:	f380 8814 	msr	CONTROL, r0
 80039ba:	b662      	cpsie	i
 80039bc:	b661      	cpsie	f
 80039be:	f3bf 8f4f 	dsb	sy
 80039c2:	f3bf 8f6f 	isb	sy
 80039c6:	df00      	svc	0
 80039c8:	bf00      	nop
					" dsb					\n"
					" isb					\n"
					" svc 0					\n" /* System call to start first task. */
					" nop					\n"
				);
}
 80039ca:	bf00      	nop
 80039cc:	e000ed08 	.word	0xe000ed08

080039d0 <xPortStartScheduler>:

/*
 * See header file for description.
 */
BaseType_t xPortStartScheduler( void )
{
 80039d0:	b580      	push	{r7, lr}
 80039d2:	b086      	sub	sp, #24
 80039d4:	af00      	add	r7, sp, #0
	configASSERT( configMAX_SYSCALL_INTERRUPT_PRIORITY );

	/* This port can be used on all revisions of the Cortex-M7 core other than
	the r0p1 parts.  r0p1 parts should use the port from the
	/source/portable/GCC/ARM_CM7/r0p1 directory. */
	configASSERT( portCPUID != portCORTEX_M7_r0p1_ID );
 80039d6:	4b44      	ldr	r3, [pc, #272]	; (8003ae8 <xPortStartScheduler+0x118>)
 80039d8:	681b      	ldr	r3, [r3, #0]
 80039da:	4a44      	ldr	r2, [pc, #272]	; (8003aec <xPortStartScheduler+0x11c>)
 80039dc:	4293      	cmp	r3, r2
 80039de:	d109      	bne.n	80039f4 <xPortStartScheduler+0x24>
 80039e0:	f04f 0350 	mov.w	r3, #80	; 0x50
 80039e4:	f383 8811 	msr	BASEPRI, r3
 80039e8:	f3bf 8f6f 	isb	sy
 80039ec:	f3bf 8f4f 	dsb	sy
 80039f0:	613b      	str	r3, [r7, #16]
 80039f2:	e7fe      	b.n	80039f2 <xPortStartScheduler+0x22>
	configASSERT( portCPUID != portCORTEX_M7_r0p0_ID );
 80039f4:	4b3c      	ldr	r3, [pc, #240]	; (8003ae8 <xPortStartScheduler+0x118>)
 80039f6:	681b      	ldr	r3, [r3, #0]
 80039f8:	4a3d      	ldr	r2, [pc, #244]	; (8003af0 <xPortStartScheduler+0x120>)
 80039fa:	4293      	cmp	r3, r2
 80039fc:	d109      	bne.n	8003a12 <xPortStartScheduler+0x42>
 80039fe:	f04f 0350 	mov.w	r3, #80	; 0x50
 8003a02:	f383 8811 	msr	BASEPRI, r3
 8003a06:	f3bf 8f6f 	isb	sy
 8003a0a:	f3bf 8f4f 	dsb	sy
 8003a0e:	60fb      	str	r3, [r7, #12]
 8003a10:	e7fe      	b.n	8003a10 <xPortStartScheduler+0x40>

	#if( configASSERT_DEFINED == 1 )
	{
		volatile uint32_t ulOriginalPriority;
		volatile uint8_t * const pucFirstUserPriorityRegister = ( volatile uint8_t * const ) ( portNVIC_IP_REGISTERS_OFFSET_16 + portFIRST_USER_INTERRUPT_NUMBER );
 8003a12:	4b38      	ldr	r3, [pc, #224]	; (8003af4 <xPortStartScheduler+0x124>)
 8003a14:	617b      	str	r3, [r7, #20]
		functions can be called.  ISR safe functions are those that end in
		"FromISR".  FreeRTOS maintains separate thread and ISR API functions to
		ensure interrupt entry is as fast and simple as possible.

		Save the interrupt priority value that is about to be clobbered. */
		ulOriginalPriority = *pucFirstUserPriorityRegister;
 8003a16:	697b      	ldr	r3, [r7, #20]
 8003a18:	781b      	ldrb	r3, [r3, #0]
 8003a1a:	b2db      	uxtb	r3, r3
 8003a1c:	607b      	str	r3, [r7, #4]

		/* Determine the number of priority bits available.  First write to all
		possible bits. */
		*pucFirstUserPriorityRegister = portMAX_8_BIT_VALUE;
 8003a1e:	697b      	ldr	r3, [r7, #20]
 8003a20:	22ff      	movs	r2, #255	; 0xff
 8003a22:	701a      	strb	r2, [r3, #0]

		/* Read the value back to see how many bits stuck. */
		ucMaxPriorityValue = *pucFirstUserPriorityRegister;
 8003a24:	697b      	ldr	r3, [r7, #20]
 8003a26:	781b      	ldrb	r3, [r3, #0]
 8003a28:	b2db      	uxtb	r3, r3
 8003a2a:	70fb      	strb	r3, [r7, #3]

		/* Use the same mask on the maximum system call priority. */
		ucMaxSysCallPriority = configMAX_SYSCALL_INTERRUPT_PRIORITY & ucMaxPriorityValue;
 8003a2c:	78fb      	ldrb	r3, [r7, #3]
 8003a2e:	b2db      	uxtb	r3, r3
 8003a30:	f003 0350 	and.w	r3, r3, #80	; 0x50
 8003a34:	b2da      	uxtb	r2, r3
 8003a36:	4b30      	ldr	r3, [pc, #192]	; (8003af8 <xPortStartScheduler+0x128>)
 8003a38:	701a      	strb	r2, [r3, #0]

		/* Calculate the maximum acceptable priority group value for the number
		of bits read back. */
		ulMaxPRIGROUPValue = portMAX_PRIGROUP_BITS;
 8003a3a:	4b30      	ldr	r3, [pc, #192]	; (8003afc <xPortStartScheduler+0x12c>)
 8003a3c:	2207      	movs	r2, #7
 8003a3e:	601a      	str	r2, [r3, #0]
		while( ( ucMaxPriorityValue & portTOP_BIT_OF_BYTE ) == portTOP_BIT_OF_BYTE )
 8003a40:	e009      	b.n	8003a56 <xPortStartScheduler+0x86>
		{
			ulMaxPRIGROUPValue--;
 8003a42:	4b2e      	ldr	r3, [pc, #184]	; (8003afc <xPortStartScheduler+0x12c>)
 8003a44:	681b      	ldr	r3, [r3, #0]
 8003a46:	3b01      	subs	r3, #1
 8003a48:	4a2c      	ldr	r2, [pc, #176]	; (8003afc <xPortStartScheduler+0x12c>)
 8003a4a:	6013      	str	r3, [r2, #0]
			ucMaxPriorityValue <<= ( uint8_t ) 0x01;
 8003a4c:	78fb      	ldrb	r3, [r7, #3]
 8003a4e:	b2db      	uxtb	r3, r3
 8003a50:	005b      	lsls	r3, r3, #1
 8003a52:	b2db      	uxtb	r3, r3
 8003a54:	70fb      	strb	r3, [r7, #3]
		while( ( ucMaxPriorityValue & portTOP_BIT_OF_BYTE ) == portTOP_BIT_OF_BYTE )
 8003a56:	78fb      	ldrb	r3, [r7, #3]
 8003a58:	b2db      	uxtb	r3, r3
 8003a5a:	f003 0380 	and.w	r3, r3, #128	; 0x80
 8003a5e:	2b80      	cmp	r3, #128	; 0x80
 8003a60:	d0ef      	beq.n	8003a42 <xPortStartScheduler+0x72>
		#ifdef configPRIO_BITS
		{
			/* Check the FreeRTOS configuration that defines the number of
			priority bits matches the number of priority bits actually queried
			from the hardware. */
			configASSERT( ( portMAX_PRIGROUP_BITS - ulMaxPRIGROUPValue ) == configPRIO_BITS );
 8003a62:	4b26      	ldr	r3, [pc, #152]	; (8003afc <xPortStartScheduler+0x12c>)
 8003a64:	681b      	ldr	r3, [r3, #0]
 8003a66:	f1c3 0307 	rsb	r3, r3, #7
 8003a6a:	2b04      	cmp	r3, #4
 8003a6c:	d009      	beq.n	8003a82 <xPortStartScheduler+0xb2>
 8003a6e:	f04f 0350 	mov.w	r3, #80	; 0x50
 8003a72:	f383 8811 	msr	BASEPRI, r3
 8003a76:	f3bf 8f6f 	isb	sy
 8003a7a:	f3bf 8f4f 	dsb	sy
 8003a7e:	60bb      	str	r3, [r7, #8]
 8003a80:	e7fe      	b.n	8003a80 <xPortStartScheduler+0xb0>
		}
		#endif

		/* Shift the priority group value back to its position within the AIRCR
		register. */
		ulMaxPRIGROUPValue <<= portPRIGROUP_SHIFT;
 8003a82:	4b1e      	ldr	r3, [pc, #120]	; (8003afc <xPortStartScheduler+0x12c>)
 8003a84:	681b      	ldr	r3, [r3, #0]
 8003a86:	021b      	lsls	r3, r3, #8
 8003a88:	4a1c      	ldr	r2, [pc, #112]	; (8003afc <xPortStartScheduler+0x12c>)
 8003a8a:	6013      	str	r3, [r2, #0]
		ulMaxPRIGROUPValue &= portPRIORITY_GROUP_MASK;
 8003a8c:	4b1b      	ldr	r3, [pc, #108]	; (8003afc <xPortStartScheduler+0x12c>)
 8003a8e:	681b      	ldr	r3, [r3, #0]
 8003a90:	f403 63e0 	and.w	r3, r3, #1792	; 0x700
 8003a94:	4a19      	ldr	r2, [pc, #100]	; (8003afc <xPortStartScheduler+0x12c>)
 8003a96:	6013      	str	r3, [r2, #0]

		/* Restore the clobbered interrupt priority register to its original
		value. */
		*pucFirstUserPriorityRegister = ulOriginalPriority;
 8003a98:	687b      	ldr	r3, [r7, #4]
 8003a9a:	b2da      	uxtb	r2, r3
 8003a9c:	697b      	ldr	r3, [r7, #20]
 8003a9e:	701a      	strb	r2, [r3, #0]
	}
	#endif /* conifgASSERT_DEFINED */

	/* Make PendSV and SysTick the lowest priority interrupts. */
	portNVIC_SYSPRI2_REG |= portNVIC_PENDSV_PRI;
 8003aa0:	4b17      	ldr	r3, [pc, #92]	; (8003b00 <xPortStartScheduler+0x130>)
 8003aa2:	681b      	ldr	r3, [r3, #0]
 8003aa4:	4a16      	ldr	r2, [pc, #88]	; (8003b00 <xPortStartScheduler+0x130>)
 8003aa6:	f443 0370 	orr.w	r3, r3, #15728640	; 0xf00000
 8003aaa:	6013      	str	r3, [r2, #0]
	portNVIC_SYSPRI2_REG |= portNVIC_SYSTICK_PRI;
 8003aac:	4b14      	ldr	r3, [pc, #80]	; (8003b00 <xPortStartScheduler+0x130>)
 8003aae:	681b      	ldr	r3, [r3, #0]
 8003ab0:	4a13      	ldr	r2, [pc, #76]	; (8003b00 <xPortStartScheduler+0x130>)
 8003ab2:	f043 4370 	orr.w	r3, r3, #4026531840	; 0xf0000000
 8003ab6:	6013      	str	r3, [r2, #0]

	/* Start the timer that generates the tick ISR.  Interrupts are disabled
	here already. */
	vPortSetupTimerInterrupt();
 8003ab8:	f000 f8d6 	bl	8003c68 <vPortSetupTimerInterrupt>

	/* Initialise the critical nesting count ready for the first task. */
	uxCriticalNesting = 0;
 8003abc:	4b11      	ldr	r3, [pc, #68]	; (8003b04 <xPortStartScheduler+0x134>)
 8003abe:	2200      	movs	r2, #0
 8003ac0:	601a      	str	r2, [r3, #0]

	/* Ensure the VFP is enabled - it should be anyway. */
	vPortEnableVFP();
 8003ac2:	f000 f8f5 	bl	8003cb0 <vPortEnableVFP>

	/* Lazy save always. */
	*( portFPCCR ) |= portASPEN_AND_LSPEN_BITS;
 8003ac6:	4b10      	ldr	r3, [pc, #64]	; (8003b08 <xPortStartScheduler+0x138>)
 8003ac8:	681b      	ldr	r3, [r3, #0]
 8003aca:	4a0f      	ldr	r2, [pc, #60]	; (8003b08 <xPortStartScheduler+0x138>)
 8003acc:	f043 4340 	orr.w	r3, r3, #3221225472	; 0xc0000000
 8003ad0:	6013      	str	r3, [r2, #0]

	/* Start the first task. */
	prvPortStartFirstTask();
 8003ad2:	f7ff ff69 	bl	80039a8 <prvPortStartFirstTask>
	exit error function to prevent compiler warnings about a static function
	not being called in the case that the application writer overrides this
	functionality by defining configTASK_RETURN_ADDRESS.  Call
	vTaskSwitchContext() so link time optimisation does not remove the
	symbol. */
	vTaskSwitchContext();
 8003ad6:	f7ff f86d 	bl	8002bb4 <vTaskSwitchContext>
	prvTaskExitError();
 8003ada:	f7ff ff23 	bl	8003924 <prvTaskExitError>

	/* Should not get here! */
	return 0;
 8003ade:	2300      	movs	r3, #0
}
 8003ae0:	4618      	mov	r0, r3
 8003ae2:	3718      	adds	r7, #24
 8003ae4:	46bd      	mov	sp, r7
 8003ae6:	bd80      	pop	{r7, pc}
 8003ae8:	e000ed00 	.word	0xe000ed00
 8003aec:	410fc271 	.word	0x410fc271
 8003af0:	410fc270 	.word	0x410fc270
 8003af4:	e000e400 	.word	0xe000e400
 8003af8:	20000d14 	.word	0x20000d14
 8003afc:	20000d18 	.word	0x20000d18
 8003b00:	e000ed20 	.word	0xe000ed20
 8003b04:	2000000c 	.word	0x2000000c
 8003b08:	e000ef34 	.word	0xe000ef34

08003b0c <vPortEnterCritical>:
	configASSERT( uxCriticalNesting == 1000UL );
}
/*-----------------------------------------------------------*/

void vPortEnterCritical( void )
{
 8003b0c:	b480      	push	{r7}
 8003b0e:	b083      	sub	sp, #12
 8003b10:	af00      	add	r7, sp, #0
 8003b12:	f04f 0350 	mov.w	r3, #80	; 0x50
 8003b16:	f383 8811 	msr	BASEPRI, r3
 8003b1a:	f3bf 8f6f 	isb	sy
 8003b1e:	f3bf 8f4f 	dsb	sy
 8003b22:	607b      	str	r3, [r7, #4]
	portDISABLE_INTERRUPTS();
	uxCriticalNesting++;
 8003b24:	4b0e      	ldr	r3, [pc, #56]	; (8003b60 <vPortEnterCritical+0x54>)
 8003b26:	681b      	ldr	r3, [r3, #0]
 8003b28:	3301      	adds	r3, #1
 8003b2a:	4a0d      	ldr	r2, [pc, #52]	; (8003b60 <vPortEnterCritical+0x54>)
 8003b2c:	6013      	str	r3, [r2, #0]
	/* This is not the interrupt safe version of the enter critical function so
	assert() if it is being called from an interrupt context.  Only API
	functions that end in "FromISR" can be used in an interrupt.  Only assert if
	the critical nesting count is 1 to protect against recursive calls if the
	assert function also uses a critical section. */
	if( uxCriticalNesting == 1 )
 8003b2e:	4b0c      	ldr	r3, [pc, #48]	; (8003b60 <vPortEnterCritical+0x54>)
 8003b30:	681b      	ldr	r3, [r3, #0]
 8003b32:	2b01      	cmp	r3, #1
 8003b34:	d10e      	bne.n	8003b54 <vPortEnterCritical+0x48>
	{
		configASSERT( ( portNVIC_INT_CTRL_REG & portVECTACTIVE_MASK ) == 0 );
 8003b36:	4b0b      	ldr	r3, [pc, #44]	; (8003b64 <vPortEnterCritical+0x58>)
 8003b38:	681b      	ldr	r3, [r3, #0]
 8003b3a:	b2db      	uxtb	r3, r3
 8003b3c:	2b00      	cmp	r3, #0
 8003b3e:	d009      	beq.n	8003b54 <vPortEnterCritical+0x48>
 8003b40:	f04f 0350 	mov.w	r3, #80	; 0x50
 8003b44:	f383 8811 	msr	BASEPRI, r3
 8003b48:	f3bf 8f6f 	isb	sy
 8003b4c:	f3bf 8f4f 	dsb	sy
 8003b50:	603b      	str	r3, [r7, #0]
 8003b52:	e7fe      	b.n	8003b52 <vPortEnterCritical+0x46>
	}
}
 8003b54:	bf00      	nop
 8003b56:	370c      	adds	r7, #12
 8003b58:	46bd      	mov	sp, r7
 8003b5a:	f85d 7b04 	ldr.w	r7, [sp], #4
 8003b5e:	4770      	bx	lr
 8003b60:	2000000c 	.word	0x2000000c
 8003b64:	e000ed04 	.word	0xe000ed04

08003b68 <vPortExitCritical>:
/*-----------------------------------------------------------*/

void vPortExitCritical( void )
{
 8003b68:	b480      	push	{r7}
 8003b6a:	b083      	sub	sp, #12
 8003b6c:	af00      	add	r7, sp, #0
	configASSERT( uxCriticalNesting );
 8003b6e:	4b11      	ldr	r3, [pc, #68]	; (8003bb4 <vPortExitCritical+0x4c>)
 8003b70:	681b      	ldr	r3, [r3, #0]
 8003b72:	2b00      	cmp	r3, #0
 8003b74:	d109      	bne.n	8003b8a <vPortExitCritical+0x22>
 8003b76:	f04f 0350 	mov.w	r3, #80	; 0x50
 8003b7a:	f383 8811 	msr	BASEPRI, r3
 8003b7e:	f3bf 8f6f 	isb	sy
 8003b82:	f3bf 8f4f 	dsb	sy
 8003b86:	607b      	str	r3, [r7, #4]
 8003b88:	e7fe      	b.n	8003b88 <vPortExitCritical+0x20>
	uxCriticalNesting--;
 8003b8a:	4b0a      	ldr	r3, [pc, #40]	; (8003bb4 <vPortExitCritical+0x4c>)
 8003b8c:	681b      	ldr	r3, [r3, #0]
 8003b8e:	3b01      	subs	r3, #1
 8003b90:	4a08      	ldr	r2, [pc, #32]	; (8003bb4 <vPortExitCritical+0x4c>)
 8003b92:	6013      	str	r3, [r2, #0]
	if( uxCriticalNesting == 0 )
 8003b94:	4b07      	ldr	r3, [pc, #28]	; (8003bb4 <vPortExitCritical+0x4c>)
 8003b96:	681b      	ldr	r3, [r3, #0]
 8003b98:	2b00      	cmp	r3, #0
 8003b9a:	d104      	bne.n	8003ba6 <vPortExitCritical+0x3e>
 8003b9c:	2300      	movs	r3, #0
 8003b9e:	603b      	str	r3, [r7, #0]
	__asm volatile
 8003ba0:	683b      	ldr	r3, [r7, #0]
 8003ba2:	f383 8811 	msr	BASEPRI, r3
	{
		portENABLE_INTERRUPTS();
	}
}
 8003ba6:	bf00      	nop
 8003ba8:	370c      	adds	r7, #12
 8003baa:	46bd      	mov	sp, r7
 8003bac:	f85d 7b04 	ldr.w	r7, [sp], #4
 8003bb0:	4770      	bx	lr
 8003bb2:	bf00      	nop
 8003bb4:	2000000c 	.word	0x2000000c
	...

08003bc0 <PendSV_Handler>:

void xPortPendSVHandler( void )
{
	/* This is a naked function. */

	__asm volatile
 8003bc0:	f3ef 8009 	mrs	r0, PSP
 8003bc4:	f3bf 8f6f 	isb	sy
 8003bc8:	4b15      	ldr	r3, [pc, #84]	; (8003c20 <pxCurrentTCBConst>)
 8003bca:	681a      	ldr	r2, [r3, #0]
 8003bcc:	f01e 0f10 	tst.w	lr, #16
 8003bd0:	bf08      	it	eq
 8003bd2:	ed20 8a10 	vstmdbeq	r0!, {s16-s31}
 8003bd6:	e920 4ff0 	stmdb	r0!, {r4, r5, r6, r7, r8, r9, sl, fp, lr}
 8003bda:	6010      	str	r0, [r2, #0]
 8003bdc:	e92d 0009 	stmdb	sp!, {r0, r3}
 8003be0:	f04f 0050 	mov.w	r0, #80	; 0x50
 8003be4:	f380 8811 	msr	BASEPRI, r0
 8003be8:	f3bf 8f4f 	dsb	sy
 8003bec:	f3bf 8f6f 	isb	sy
 8003bf0:	f7fe ffe0 	bl	8002bb4 <vTaskSwitchContext>
 8003bf4:	f04f 0000 	mov.w	r0, #0
 8003bf8:	f380 8811 	msr	BASEPRI, r0
 8003bfc:	bc09      	pop	{r0, r3}
 8003bfe:	6819      	ldr	r1, [r3, #0]
 8003c00:	6808      	ldr	r0, [r1, #0]
 8003c02:	e8b0 4ff0 	ldmia.w	r0!, {r4, r5, r6, r7, r8, r9, sl, fp, lr}
 8003c06:	f01e 0f10 	tst.w	lr, #16
 8003c0a:	bf08      	it	eq
 8003c0c:	ecb0 8a10 	vldmiaeq	r0!, {s16-s31}
 8003c10:	f380 8809 	msr	PSP, r0
 8003c14:	f3bf 8f6f 	isb	sy
 8003c18:	4770      	bx	lr
 8003c1a:	bf00      	nop
 8003c1c:	f3af 8000 	nop.w

08003c20 <pxCurrentTCBConst>:
 8003c20:	200006e8 	.word	0x200006e8
	"										\n"
	"	.align 4							\n"
	"pxCurrentTCBConst: .word pxCurrentTCB	\n"
	::"i"(configMAX_SYSCALL_INTERRUPT_PRIORITY)
	);
}
 8003c24:	bf00      	nop
 8003c26:	bf00      	nop

08003c28 <xPortSysTickHandler>:
/*-----------------------------------------------------------*/

void xPortSysTickHandler( void )
{
 8003c28:	b580      	push	{r7, lr}
 8003c2a:	b082      	sub	sp, #8
 8003c2c:	af00      	add	r7, sp, #0
	__asm volatile
 8003c2e:	f04f 0350 	mov.w	r3, #80	; 0x50
 8003c32:	f383 8811 	msr	BASEPRI, r3
 8003c36:	f3bf 8f6f 	isb	sy
 8003c3a:	f3bf 8f4f 	dsb	sy
 8003c3e:	607b      	str	r3, [r7, #4]
	save and then restore the interrupt mask value as its value is already
	known. */
	portDISABLE_INTERRUPTS();
	{
		/* Increment the RTOS tick. */
		if( xTaskIncrementTick() != pdFALSE )
 8003c40:	f7fe ff00 	bl	8002a44 <xTaskIncrementTick>
 8003c44:	4603      	mov	r3, r0
 8003c46:	2b00      	cmp	r3, #0
 8003c48:	d003      	beq.n	8003c52 <xPortSysTickHandler+0x2a>
		{
			/* A context switch is required.  Context switching is performed in
			the PendSV interrupt.  Pend the PendSV interrupt. */
			portNVIC_INT_CTRL_REG = portNVIC_PENDSVSET_BIT;
 8003c4a:	4b06      	ldr	r3, [pc, #24]	; (8003c64 <xPortSysTickHandler+0x3c>)
 8003c4c:	f04f 5280 	mov.w	r2, #268435456	; 0x10000000
 8003c50:	601a      	str	r2, [r3, #0]
 8003c52:	2300      	movs	r3, #0
 8003c54:	603b      	str	r3, [r7, #0]
	__asm volatile
 8003c56:	683b      	ldr	r3, [r7, #0]
 8003c58:	f383 8811 	msr	BASEPRI, r3
		}
	}
	portENABLE_INTERRUPTS();
}
 8003c5c:	bf00      	nop
 8003c5e:	3708      	adds	r7, #8
 8003c60:	46bd      	mov	sp, r7
 8003c62:	bd80      	pop	{r7, pc}
 8003c64:	e000ed04 	.word	0xe000ed04

08003c68 <vPortSetupTimerInterrupt>:
/*
 * Setup the systick timer to generate the tick interrupts at the required
 * frequency.
 */
__attribute__(( weak )) void vPortSetupTimerInterrupt( void )
{
 8003c68:	b480      	push	{r7}
 8003c6a:	af00      	add	r7, sp, #0
		ulStoppedTimerCompensation = portMISSED_COUNTS_FACTOR / ( configCPU_CLOCK_HZ / configSYSTICK_CLOCK_HZ );
	}
	#endif /* configUSE_TICKLESS_IDLE */

	/* Stop and clear the SysTick. */
	portNVIC_SYSTICK_CTRL_REG = 0UL;
 8003c6c:	4b0b      	ldr	r3, [pc, #44]	; (8003c9c <vPortSetupTimerInterrupt+0x34>)
 8003c6e:	2200      	movs	r2, #0
 8003c70:	601a      	str	r2, [r3, #0]
	portNVIC_SYSTICK_CURRENT_VALUE_REG = 0UL;
 8003c72:	4b0b      	ldr	r3, [pc, #44]	; (8003ca0 <vPortSetupTimerInterrupt+0x38>)
 8003c74:	2200      	movs	r2, #0
 8003c76:	601a      	str	r2, [r3, #0]

	/* Configure SysTick to interrupt at the requested rate. */
	portNVIC_SYSTICK_LOAD_REG = ( configSYSTICK_CLOCK_HZ / configTICK_RATE_HZ ) - 1UL;
 8003c78:	4b0a      	ldr	r3, [pc, #40]	; (8003ca4 <vPortSetupTimerInterrupt+0x3c>)
 8003c7a:	681b      	ldr	r3, [r3, #0]
 8003c7c:	4a0a      	ldr	r2, [pc, #40]	; (8003ca8 <vPortSetupTimerInterrupt+0x40>)
 8003c7e:	fba2 2303 	umull	r2, r3, r2, r3
 8003c82:	099b      	lsrs	r3, r3, #6
 8003c84:	4a09      	ldr	r2, [pc, #36]	; (8003cac <vPortSetupTimerInterrupt+0x44>)
 8003c86:	3b01      	subs	r3, #1
 8003c88:	6013      	str	r3, [r2, #0]
	portNVIC_SYSTICK_CTRL_REG = ( portNVIC_SYSTICK_CLK_BIT | portNVIC_SYSTICK_INT_BIT | portNVIC_SYSTICK_ENABLE_BIT );
 8003c8a:	4b04      	ldr	r3, [pc, #16]	; (8003c9c <vPortSetupTimerInterrupt+0x34>)
 8003c8c:	2207      	movs	r2, #7
 8003c8e:	601a      	str	r2, [r3, #0]
}
 8003c90:	bf00      	nop
 8003c92:	46bd      	mov	sp, r7
 8003c94:	f85d 7b04 	ldr.w	r7, [sp], #4
 8003c98:	4770      	bx	lr
 8003c9a:	bf00      	nop
 8003c9c:	e000e010 	.word	0xe000e010
 8003ca0:	e000e018 	.word	0xe000e018
 8003ca4:	20000000 	.word	0x20000000
 8003ca8:	10624dd3 	.word	0x10624dd3
 8003cac:	e000e014 	.word	0xe000e014

08003cb0 <vPortEnableVFP>:
/*-----------------------------------------------------------*/

/* This is a naked function. */
static void vPortEnableVFP( void )
{
	__asm volatile
 8003cb0:	f8df 000c 	ldr.w	r0, [pc, #12]	; 8003cc0 <vPortEnableVFP+0x10>
 8003cb4:	6801      	ldr	r1, [r0, #0]
 8003cb6:	f441 0170 	orr.w	r1, r1, #15728640	; 0xf00000
 8003cba:	6001      	str	r1, [r0, #0]
 8003cbc:	4770      	bx	lr
		"								\n"
		"	orr r1, r1, #( 0xf << 20 )	\n" /* Enable CP10 and CP11 coprocessors, then save back. */
		"	str r1, [r0]				\n"
		"	bx r14						"
	);
}
 8003cbe:	bf00      	nop
 8003cc0:	e000ed88 	.word	0xe000ed88

08003cc4 <vPortValidateInterruptPriority>:
/*-----------------------------------------------------------*/

#if( configASSERT_DEFINED == 1 )

	void vPortValidateInterruptPriority( void )
	{
 8003cc4:	b480      	push	{r7}
 8003cc6:	b085      	sub	sp, #20
 8003cc8:	af00      	add	r7, sp, #0
	uint32_t ulCurrentInterrupt;
	uint8_t ucCurrentPriority;

		/* Obtain the number of the currently executing interrupt. */
		__asm volatile( "mrs %0, ipsr" : "=r"( ulCurrentInterrupt ) :: "memory" );
 8003cca:	f3ef 8305 	mrs	r3, IPSR
 8003cce:	60fb      	str	r3, [r7, #12]

		/* Is the interrupt number a user defined interrupt? */
		if( ulCurrentInterrupt >= portFIRST_USER_INTERRUPT_NUMBER )
 8003cd0:	68fb      	ldr	r3, [r7, #12]
 8003cd2:	2b0f      	cmp	r3, #15
 8003cd4:	d913      	bls.n	8003cfe <vPortValidateInterruptPriority+0x3a>
		{
			/* Look up the interrupt's priority. */
			ucCurrentPriority = pcInterruptPriorityRegisters[ ulCurrentInterrupt ];
 8003cd6:	4a16      	ldr	r2, [pc, #88]	; (8003d30 <vPortValidateInterruptPriority+0x6c>)
 8003cd8:	68fb      	ldr	r3, [r7, #12]
 8003cda:	4413      	add	r3, r2
 8003cdc:	781b      	ldrb	r3, [r3, #0]
 8003cde:	72fb      	strb	r3, [r7, #11]
			interrupt entry is as fast and simple as possible.

			The following links provide detailed information:
			http://www.freertos.org/RTOS-Cortex-M3-M4.html
			http://www.freertos.org/FAQHelp.html */
			configASSERT( ucCurrentPriority >= ucMaxSysCallPriority );
 8003ce0:	4b14      	ldr	r3, [pc, #80]	; (8003d34 <vPortValidateInterruptPriority+0x70>)
 8003ce2:	781b      	ldrb	r3, [r3, #0]
 8003ce4:	7afa      	ldrb	r2, [r7, #11]
 8003ce6:	429a      	cmp	r2, r3
 8003ce8:	d209      	bcs.n	8003cfe <vPortValidateInterruptPriority+0x3a>
	__asm volatile
 8003cea:	f04f 0350 	mov.w	r3, #80	; 0x50
 8003cee:	f383 8811 	msr	BASEPRI, r3
 8003cf2:	f3bf 8f6f 	isb	sy
 8003cf6:	f3bf 8f4f 	dsb	sy
 8003cfa:	607b      	str	r3, [r7, #4]
 8003cfc:	e7fe      	b.n	8003cfc <vPortValidateInterruptPriority+0x38>
		configuration then the correct setting can be achieved on all Cortex-M
		devices by calling NVIC_SetPriorityGrouping( 0 ); before starting the
		scheduler.  Note however that some vendor specific peripheral libraries
		assume a non-zero priority group setting, in which cases using a value
		of zero will result in unpredictable behaviour. */
		configASSERT( ( portAIRCR_REG & portPRIORITY_GROUP_MASK ) <= ulMaxPRIGROUPValue );
 8003cfe:	4b0e      	ldr	r3, [pc, #56]	; (8003d38 <vPortValidateInterruptPriority+0x74>)
 8003d00:	681b      	ldr	r3, [r3, #0]
 8003d02:	f403 62e0 	and.w	r2, r3, #1792	; 0x700
 8003d06:	4b0d      	ldr	r3, [pc, #52]	; (8003d3c <vPortValidateInterruptPriority+0x78>)
 8003d08:	681b      	ldr	r3, [r3, #0]
 8003d0a:	429a      	cmp	r2, r3
 8003d0c:	d909      	bls.n	8003d22 <vPortValidateInterruptPriority+0x5e>
 8003d0e:	f04f 0350 	mov.w	r3, #80	; 0x50
 8003d12:	f383 8811 	msr	BASEPRI, r3
 8003d16:	f3bf 8f6f 	isb	sy
 8003d1a:	f3bf 8f4f 	dsb	sy
 8003d1e:	603b      	str	r3, [r7, #0]
 8003d20:	e7fe      	b.n	8003d20 <vPortValidateInterruptPriority+0x5c>
	}
 8003d22:	bf00      	nop
 8003d24:	3714      	adds	r7, #20
 8003d26:	46bd      	mov	sp, r7
 8003d28:	f85d 7b04 	ldr.w	r7, [sp], #4
 8003d2c:	4770      	bx	lr
 8003d2e:	bf00      	nop
 8003d30:	e000e3f0 	.word	0xe000e3f0
 8003d34:	20000d14 	.word	0x20000d14
 8003d38:	e000ed0c 	.word	0xe000ed0c
 8003d3c:	20000d18 	.word	0x20000d18

08003d40 <pvPortMalloc>:
static size_t xBlockAllocatedBit = 0;

/*-----------------------------------------------------------*/

void *pvPortMalloc( size_t xWantedSize )
{
 8003d40:	b580      	push	{r7, lr}
 8003d42:	b08a      	sub	sp, #40	; 0x28
 8003d44:	af00      	add	r7, sp, #0
 8003d46:	6078      	str	r0, [r7, #4]
BlockLink_t *pxBlock, *pxPreviousBlock, *pxNewBlockLink;
void *pvReturn = NULL;
 8003d48:	2300      	movs	r3, #0
 8003d4a:	61fb      	str	r3, [r7, #28]

	vTaskSuspendAll();
 8003d4c:	f7fe fdc0 	bl	80028d0 <vTaskSuspendAll>
	{
		/* If this is the first call to malloc then the heap will require
		initialisation to setup the list of free blocks. */
		if( pxEnd == NULL )
 8003d50:	4b57      	ldr	r3, [pc, #348]	; (8003eb0 <pvPortMalloc+0x170>)
 8003d52:	681b      	ldr	r3, [r3, #0]
 8003d54:	2b00      	cmp	r3, #0
 8003d56:	d101      	bne.n	8003d5c <pvPortMalloc+0x1c>
		{
			prvHeapInit();
 8003d58:	f000 f90c 	bl	8003f74 <prvHeapInit>

		/* Check the requested block size is not so large that the top bit is
		set.  The top bit of the block size member of the BlockLink_t structure
		is used to determine who owns the block - the application or the
		kernel, so it must be free. */
		if( ( xWantedSize & xBlockAllocatedBit ) == 0 )
 8003d5c:	4b55      	ldr	r3, [pc, #340]	; (8003eb4 <pvPortMalloc+0x174>)
 8003d5e:	681a      	ldr	r2, [r3, #0]
 8003d60:	687b      	ldr	r3, [r7, #4]
 8003d62:	4013      	ands	r3, r2
 8003d64:	2b00      	cmp	r3, #0
 8003d66:	f040 808c 	bne.w	8003e82 <pvPortMalloc+0x142>
		{
			/* The wanted size is increased so it can contain a BlockLink_t
			structure in addition to the requested amount of bytes. */
			if( xWantedSize > 0 )
 8003d6a:	687b      	ldr	r3, [r7, #4]
 8003d6c:	2b00      	cmp	r3, #0
 8003d6e:	d01c      	beq.n	8003daa <pvPortMalloc+0x6a>
			{
				xWantedSize += xHeapStructSize;
 8003d70:	2208      	movs	r2, #8
 8003d72:	687b      	ldr	r3, [r7, #4]
 8003d74:	4413      	add	r3, r2
 8003d76:	607b      	str	r3, [r7, #4]

				/* Ensure that blocks are always aligned to the required number
				of bytes. */
				if( ( xWantedSize & portBYTE_ALIGNMENT_MASK ) != 0x00 )
 8003d78:	687b      	ldr	r3, [r7, #4]
 8003d7a:	f003 0307 	and.w	r3, r3, #7
 8003d7e:	2b00      	cmp	r3, #0
 8003d80:	d013      	beq.n	8003daa <pvPortMalloc+0x6a>
				{
					/* Byte alignment required. */
					xWantedSize += ( portBYTE_ALIGNMENT - ( xWantedSize & portBYTE_ALIGNMENT_MASK ) );
 8003d82:	687b      	ldr	r3, [r7, #4]
 8003d84:	f023 0307 	bic.w	r3, r3, #7
 8003d88:	3308      	adds	r3, #8
 8003d8a:	607b      	str	r3, [r7, #4]
					configASSERT( ( xWantedSize & portBYTE_ALIGNMENT_MASK ) == 0 );
 8003d8c:	687b      	ldr	r3, [r7, #4]
 8003d8e:	f003 0307 	and.w	r3, r3, #7
 8003d92:	2b00      	cmp	r3, #0
 8003d94:	d009      	beq.n	8003daa <pvPortMalloc+0x6a>
 8003d96:	f04f 0350 	mov.w	r3, #80	; 0x50
 8003d9a:	f383 8811 	msr	BASEPRI, r3
 8003d9e:	f3bf 8f6f 	isb	sy
 8003da2:	f3bf 8f4f 	dsb	sy
 8003da6:	617b      	str	r3, [r7, #20]
 8003da8:	e7fe      	b.n	8003da8 <pvPortMalloc+0x68>
			else
			{
				mtCOVERAGE_TEST_MARKER();
			}

			if( ( xWantedSize > 0 ) && ( xWantedSize <= xFreeBytesRemaining ) )
 8003daa:	687b      	ldr	r3, [r7, #4]
 8003dac:	2b00      	cmp	r3, #0
 8003dae:	d068      	beq.n	8003e82 <pvPortMalloc+0x142>
 8003db0:	4b41      	ldr	r3, [pc, #260]	; (8003eb8 <pvPortMalloc+0x178>)
 8003db2:	681b      	ldr	r3, [r3, #0]
 8003db4:	687a      	ldr	r2, [r7, #4]
 8003db6:	429a      	cmp	r2, r3
 8003db8:	d863      	bhi.n	8003e82 <pvPortMalloc+0x142>
			{
				/* Traverse the list from the start	(lowest address) block until
				one	of adequate size is found. */
				pxPreviousBlock = &xStart;
 8003dba:	4b40      	ldr	r3, [pc, #256]	; (8003ebc <pvPortMalloc+0x17c>)
 8003dbc:	623b      	str	r3, [r7, #32]
				pxBlock = xStart.pxNextFreeBlock;
 8003dbe:	4b3f      	ldr	r3, [pc, #252]	; (8003ebc <pvPortMalloc+0x17c>)
 8003dc0:	681b      	ldr	r3, [r3, #0]
 8003dc2:	627b      	str	r3, [r7, #36]	; 0x24
				while( ( pxBlock->xBlockSize < xWantedSize ) && ( pxBlock->pxNextFreeBlock != NULL ) )
 8003dc4:	e004      	b.n	8003dd0 <pvPortMalloc+0x90>
				{
					pxPreviousBlock = pxBlock;
 8003dc6:	6a7b      	ldr	r3, [r7, #36]	; 0x24
 8003dc8:	623b      	str	r3, [r7, #32]
					pxBlock = pxBlock->pxNextFreeBlock;
 8003dca:	6a7b      	ldr	r3, [r7, #36]	; 0x24
 8003dcc:	681b      	ldr	r3, [r3, #0]
 8003dce:	627b      	str	r3, [r7, #36]	; 0x24
				while( ( pxBlock->xBlockSize < xWantedSize ) && ( pxBlock->pxNextFreeBlock != NULL ) )
 8003dd0:	6a7b      	ldr	r3, [r7, #36]	; 0x24
 8003dd2:	685b      	ldr	r3, [r3, #4]
 8003dd4:	687a      	ldr	r2, [r7, #4]
 8003dd6:	429a      	cmp	r2, r3
 8003dd8:	d903      	bls.n	8003de2 <pvPortMalloc+0xa2>
 8003dda:	6a7b      	ldr	r3, [r7, #36]	; 0x24
 8003ddc:	681b      	ldr	r3, [r3, #0]
 8003dde:	2b00      	cmp	r3, #0
 8003de0:	d1f1      	bne.n	8003dc6 <pvPortMalloc+0x86>
				}

				/* If the end marker was reached then a block of adequate size
				was	not found. */
				if( pxBlock != pxEnd )
 8003de2:	4b33      	ldr	r3, [pc, #204]	; (8003eb0 <pvPortMalloc+0x170>)
 8003de4:	681b      	ldr	r3, [r3, #0]
 8003de6:	6a7a      	ldr	r2, [r7, #36]	; 0x24
 8003de8:	429a      	cmp	r2, r3
 8003dea:	d04a      	beq.n	8003e82 <pvPortMalloc+0x142>
				{
					/* Return the memory space pointed to - jumping over the
					BlockLink_t structure at its start. */
					pvReturn = ( void * ) ( ( ( uint8_t * ) pxPreviousBlock->pxNextFreeBlock ) + xHeapStructSize );
 8003dec:	6a3b      	ldr	r3, [r7, #32]
 8003dee:	681b      	ldr	r3, [r3, #0]
 8003df0:	2208      	movs	r2, #8
 8003df2:	4413      	add	r3, r2
 8003df4:	61fb      	str	r3, [r7, #28]

					/* This block is being returned for use so must be taken out
					of the list of free blocks. */
					pxPreviousBlock->pxNextFreeBlock = pxBlock->pxNextFreeBlock;
 8003df6:	6a7b      	ldr	r3, [r7, #36]	; 0x24
 8003df8:	681a      	ldr	r2, [r3, #0]
 8003dfa:	6a3b      	ldr	r3, [r7, #32]
 8003dfc:	601a      	str	r2, [r3, #0]

					/* If the block is larger than required it can be split into
					two. */
					if( ( pxBlock->xBlockSize - xWantedSize ) > heapMINIMUM_BLOCK_SIZE )
 8003dfe:	6a7b      	ldr	r3, [r7, #36]	; 0x24
 8003e00:	685a      	ldr	r2, [r3, #4]
 8003e02:	687b      	ldr	r3, [r7, #4]
 8003e04:	1ad2      	subs	r2, r2, r3
 8003e06:	2308      	movs	r3, #8
 8003e08:	005b      	lsls	r3, r3, #1
 8003e0a:	429a      	cmp	r2, r3
 8003e0c:	d91e      	bls.n	8003e4c <pvPortMalloc+0x10c>
					{
						/* This block is to be split into two.  Create a new
						block following the number of bytes requested. The void
						cast is used to prevent byte alignment warnings from the
						compiler. */
						pxNewBlockLink = ( void * ) ( ( ( uint8_t * ) pxBlock ) + xWantedSize );
 8003e0e:	6a7a      	ldr	r2, [r7, #36]	; 0x24
 8003e10:	687b      	ldr	r3, [r7, #4]
 8003e12:	4413      	add	r3, r2
 8003e14:	61bb      	str	r3, [r7, #24]
						configASSERT( ( ( ( size_t ) pxNewBlockLink ) & portBYTE_ALIGNMENT_MASK ) == 0 );
 8003e16:	69bb      	ldr	r3, [r7, #24]
 8003e18:	f003 0307 	and.w	r3, r3, #7
 8003e1c:	2b00      	cmp	r3, #0
 8003e1e:	d009      	beq.n	8003e34 <pvPortMalloc+0xf4>
 8003e20:	f04f 0350 	mov.w	r3, #80	; 0x50
 8003e24:	f383 8811 	msr	BASEPRI, r3
 8003e28:	f3bf 8f6f 	isb	sy
 8003e2c:	f3bf 8f4f 	dsb	sy
 8003e30:	613b      	str	r3, [r7, #16]
 8003e32:	e7fe      	b.n	8003e32 <pvPortMalloc+0xf2>

						/* Calculate the sizes of two blocks split from the
						single block. */
						pxNewBlockLink->xBlockSize = pxBlock->xBlockSize - xWantedSize;
 8003e34:	6a7b      	ldr	r3, [r7, #36]	; 0x24
 8003e36:	685a      	ldr	r2, [r3, #4]
 8003e38:	687b      	ldr	r3, [r7, #4]
 8003e3a:	1ad2      	subs	r2, r2, r3
 8003e3c:	69bb      	ldr	r3, [r7, #24]
 8003e3e:	605a      	str	r2, [r3, #4]
						pxBlock->xBlockSize = xWantedSize;
 8003e40:	6a7b      	ldr	r3, [r7, #36]	; 0x24
 8003e42:	687a      	ldr	r2, [r7, #4]
 8003e44:	605a      	str	r2, [r3, #4]

						/* Insert the new block into the list of free blocks. */
						prvInsertBlockIntoFreeList( pxNewBlockLink );
 8003e46:	69b8      	ldr	r0, [r7, #24]
 8003e48:	f000 f8f6 	bl	8004038 <prvInsertBlockIntoFreeList>
					else
					{
						mtCOVERAGE_TEST_MARKER();
					}

					xFreeBytesRemaining -= pxBlock->xBlockSize;
 8003e4c:	4b1a      	ldr	r3, [pc, #104]	; (8003eb8 <pvPortMalloc+0x178>)
 8003e4e:	681a      	ldr	r2, [r3, #0]
 8003e50:	6a7b      	ldr	r3, [r7, #36]	; 0x24
 8003e52:	685b      	ldr	r3, [r3, #4]
 8003e54:	1ad3      	subs	r3, r2, r3
 8003e56:	4a18      	ldr	r2, [pc, #96]	; (8003eb8 <pvPortMalloc+0x178>)
 8003e58:	6013      	str	r3, [r2, #0]

					if( xFreeBytesRemaining < xMinimumEverFreeBytesRemaining )
 8003e5a:	4b17      	ldr	r3, [pc, #92]	; (8003eb8 <pvPortMalloc+0x178>)
 8003e5c:	681a      	ldr	r2, [r3, #0]
 8003e5e:	4b18      	ldr	r3, [pc, #96]	; (8003ec0 <pvPortMalloc+0x180>)
 8003e60:	681b      	ldr	r3, [r3, #0]
 8003e62:	429a      	cmp	r2, r3
 8003e64:	d203      	bcs.n	8003e6e <pvPortMalloc+0x12e>
					{
						xMinimumEverFreeBytesRemaining = xFreeBytesRemaining;
 8003e66:	4b14      	ldr	r3, [pc, #80]	; (8003eb8 <pvPortMalloc+0x178>)
 8003e68:	681b      	ldr	r3, [r3, #0]
 8003e6a:	4a15      	ldr	r2, [pc, #84]	; (8003ec0 <pvPortMalloc+0x180>)
 8003e6c:	6013      	str	r3, [r2, #0]
						mtCOVERAGE_TEST_MARKER();
					}

					/* The block is being returned - it is allocated and owned
					by the application and has no "next" block. */
					pxBlock->xBlockSize |= xBlockAllocatedBit;
 8003e6e:	6a7b      	ldr	r3, [r7, #36]	; 0x24
 8003e70:	685a      	ldr	r2, [r3, #4]
 8003e72:	4b10      	ldr	r3, [pc, #64]	; (8003eb4 <pvPortMalloc+0x174>)
 8003e74:	681b      	ldr	r3, [r3, #0]
 8003e76:	431a      	orrs	r2, r3
 8003e78:	6a7b      	ldr	r3, [r7, #36]	; 0x24
 8003e7a:	605a      	str	r2, [r3, #4]
					pxBlock->pxNextFreeBlock = NULL;
 8003e7c:	6a7b      	ldr	r3, [r7, #36]	; 0x24
 8003e7e:	2200      	movs	r2, #0
 8003e80:	601a      	str	r2, [r3, #0]
			mtCOVERAGE_TEST_MARKER();
		}

		traceMALLOC( pvReturn, xWantedSize );
	}
	( void ) xTaskResumeAll();
 8003e82:	f7fe fd33 	bl	80028ec <xTaskResumeAll>
			mtCOVERAGE_TEST_MARKER();
		}
	}
	#endif

	configASSERT( ( ( ( size_t ) pvReturn ) & ( size_t ) portBYTE_ALIGNMENT_MASK ) == 0 );
 8003e86:	69fb      	ldr	r3, [r7, #28]
 8003e88:	f003 0307 	and.w	r3, r3, #7
 8003e8c:	2b00      	cmp	r3, #0
 8003e8e:	d009      	beq.n	8003ea4 <pvPortMalloc+0x164>
 8003e90:	f04f 0350 	mov.w	r3, #80	; 0x50
 8003e94:	f383 8811 	msr	BASEPRI, r3
 8003e98:	f3bf 8f6f 	isb	sy
 8003e9c:	f3bf 8f4f 	dsb	sy
 8003ea0:	60fb      	str	r3, [r7, #12]
 8003ea2:	e7fe      	b.n	8003ea2 <pvPortMalloc+0x162>
	return pvReturn;
 8003ea4:	69fb      	ldr	r3, [r7, #28]
}
 8003ea6:	4618      	mov	r0, r3
 8003ea8:	3728      	adds	r7, #40	; 0x28
 8003eaa:	46bd      	mov	sp, r7
 8003eac:	bd80      	pop	{r7, pc}
 8003eae:	bf00      	nop
 8003eb0:	20004924 	.word	0x20004924
 8003eb4:	20004930 	.word	0x20004930
 8003eb8:	20004928 	.word	0x20004928
 8003ebc:	2000491c 	.word	0x2000491c
 8003ec0:	2000492c 	.word	0x2000492c

08003ec4 <vPortFree>:
/*-----------------------------------------------------------*/

void vPortFree( void *pv )
{
 8003ec4:	b580      	push	{r7, lr}
 8003ec6:	b086      	sub	sp, #24
 8003ec8:	af00      	add	r7, sp, #0
 8003eca:	6078      	str	r0, [r7, #4]
uint8_t *puc = ( uint8_t * ) pv;
 8003ecc:	687b      	ldr	r3, [r7, #4]
 8003ece:	617b      	str	r3, [r7, #20]
BlockLink_t *pxLink;

	if( pv != NULL )
 8003ed0:	687b      	ldr	r3, [r7, #4]
 8003ed2:	2b00      	cmp	r3, #0
 8003ed4:	d046      	beq.n	8003f64 <vPortFree+0xa0>
	{
		/* The memory being freed will have an BlockLink_t structure immediately
		before it. */
		puc -= xHeapStructSize;
 8003ed6:	2308      	movs	r3, #8
 8003ed8:	425b      	negs	r3, r3
 8003eda:	697a      	ldr	r2, [r7, #20]
 8003edc:	4413      	add	r3, r2
 8003ede:	617b      	str	r3, [r7, #20]

		/* This casting is to keep the compiler from issuing warnings. */
		pxLink = ( void * ) puc;
 8003ee0:	697b      	ldr	r3, [r7, #20]
 8003ee2:	613b      	str	r3, [r7, #16]

		/* Check the block is actually allocated. */
		configASSERT( ( pxLink->xBlockSize & xBlockAllocatedBit ) != 0 );
 8003ee4:	693b      	ldr	r3, [r7, #16]
 8003ee6:	685a      	ldr	r2, [r3, #4]
 8003ee8:	4b20      	ldr	r3, [pc, #128]	; (8003f6c <vPortFree+0xa8>)
 8003eea:	681b      	ldr	r3, [r3, #0]
 8003eec:	4013      	ands	r3, r2
 8003eee:	2b00      	cmp	r3, #0
 8003ef0:	d109      	bne.n	8003f06 <vPortFree+0x42>
 8003ef2:	f04f 0350 	mov.w	r3, #80	; 0x50
 8003ef6:	f383 8811 	msr	BASEPRI, r3
 8003efa:	f3bf 8f6f 	isb	sy
 8003efe:	f3bf 8f4f 	dsb	sy
 8003f02:	60fb      	str	r3, [r7, #12]
 8003f04:	e7fe      	b.n	8003f04 <vPortFree+0x40>
		configASSERT( pxLink->pxNextFreeBlock == NULL );
 8003f06:	693b      	ldr	r3, [r7, #16]
 8003f08:	681b      	ldr	r3, [r3, #0]
 8003f0a:	2b00      	cmp	r3, #0
 8003f0c:	d009      	beq.n	8003f22 <vPortFree+0x5e>
 8003f0e:	f04f 0350 	mov.w	r3, #80	; 0x50
 8003f12:	f383 8811 	msr	BASEPRI, r3
 8003f16:	f3bf 8f6f 	isb	sy
 8003f1a:	f3bf 8f4f 	dsb	sy
 8003f1e:	60bb      	str	r3, [r7, #8]
 8003f20:	e7fe      	b.n	8003f20 <vPortFree+0x5c>

		if( ( pxLink->xBlockSize & xBlockAllocatedBit ) != 0 )
 8003f22:	693b      	ldr	r3, [r7, #16]
 8003f24:	685a      	ldr	r2, [r3, #4]
 8003f26:	4b11      	ldr	r3, [pc, #68]	; (8003f6c <vPortFree+0xa8>)
 8003f28:	681b      	ldr	r3, [r3, #0]
 8003f2a:	4013      	ands	r3, r2
 8003f2c:	2b00      	cmp	r3, #0
 8003f2e:	d019      	beq.n	8003f64 <vPortFree+0xa0>
		{
			if( pxLink->pxNextFreeBlock == NULL )
 8003f30:	693b      	ldr	r3, [r7, #16]
 8003f32:	681b      	ldr	r3, [r3, #0]
 8003f34:	2b00      	cmp	r3, #0
 8003f36:	d115      	bne.n	8003f64 <vPortFree+0xa0>
			{
				/* The block is being returned to the heap - it is no longer
				allocated. */
				pxLink->xBlockSize &= ~xBlockAllocatedBit;
 8003f38:	693b      	ldr	r3, [r7, #16]
 8003f3a:	685a      	ldr	r2, [r3, #4]
 8003f3c:	4b0b      	ldr	r3, [pc, #44]	; (8003f6c <vPortFree+0xa8>)
 8003f3e:	681b      	ldr	r3, [r3, #0]
 8003f40:	43db      	mvns	r3, r3
 8003f42:	401a      	ands	r2, r3
 8003f44:	693b      	ldr	r3, [r7, #16]
 8003f46:	605a      	str	r2, [r3, #4]

				vTaskSuspendAll();
 8003f48:	f7fe fcc2 	bl	80028d0 <vTaskSuspendAll>
				{
					/* Add this block to the list of free blocks. */
					xFreeBytesRemaining += pxLink->xBlockSize;
 8003f4c:	693b      	ldr	r3, [r7, #16]
 8003f4e:	685a      	ldr	r2, [r3, #4]
 8003f50:	4b07      	ldr	r3, [pc, #28]	; (8003f70 <vPortFree+0xac>)
 8003f52:	681b      	ldr	r3, [r3, #0]
 8003f54:	4413      	add	r3, r2
 8003f56:	4a06      	ldr	r2, [pc, #24]	; (8003f70 <vPortFree+0xac>)
 8003f58:	6013      	str	r3, [r2, #0]
					traceFREE( pv, pxLink->xBlockSize );
					prvInsertBlockIntoFreeList( ( ( BlockLink_t * ) pxLink ) );
 8003f5a:	6938      	ldr	r0, [r7, #16]
 8003f5c:	f000 f86c 	bl	8004038 <prvInsertBlockIntoFreeList>
				}
				( void ) xTaskResumeAll();
 8003f60:	f7fe fcc4 	bl	80028ec <xTaskResumeAll>
		else
		{
			mtCOVERAGE_TEST_MARKER();
		}
	}
}
 8003f64:	bf00      	nop
 8003f66:	3718      	adds	r7, #24
 8003f68:	46bd      	mov	sp, r7
 8003f6a:	bd80      	pop	{r7, pc}
 8003f6c:	20004930 	.word	0x20004930
 8003f70:	20004928 	.word	0x20004928

08003f74 <prvHeapInit>:
	/* This just exists to keep the linker quiet. */
}
/*-----------------------------------------------------------*/

static void prvHeapInit( void )
{
 8003f74:	b480      	push	{r7}
 8003f76:	b085      	sub	sp, #20
 8003f78:	af00      	add	r7, sp, #0
BlockLink_t *pxFirstFreeBlock;
uint8_t *pucAlignedHeap;
size_t uxAddress;
size_t xTotalHeapSize = configTOTAL_HEAP_SIZE;
 8003f7a:	f44f 5370 	mov.w	r3, #15360	; 0x3c00
 8003f7e:	60bb      	str	r3, [r7, #8]

	/* Ensure the heap starts on a correctly aligned boundary. */
	uxAddress = ( size_t ) ucHeap;
 8003f80:	4b27      	ldr	r3, [pc, #156]	; (8004020 <prvHeapInit+0xac>)
 8003f82:	60fb      	str	r3, [r7, #12]

	if( ( uxAddress & portBYTE_ALIGNMENT_MASK ) != 0 )
 8003f84:	68fb      	ldr	r3, [r7, #12]
 8003f86:	f003 0307 	and.w	r3, r3, #7
 8003f8a:	2b00      	cmp	r3, #0
 8003f8c:	d00c      	beq.n	8003fa8 <prvHeapInit+0x34>
	{
		uxAddress += ( portBYTE_ALIGNMENT - 1 );
 8003f8e:	68fb      	ldr	r3, [r7, #12]
 8003f90:	3307      	adds	r3, #7
 8003f92:	60fb      	str	r3, [r7, #12]
		uxAddress &= ~( ( size_t ) portBYTE_ALIGNMENT_MASK );
 8003f94:	68fb      	ldr	r3, [r7, #12]
 8003f96:	f023 0307 	bic.w	r3, r3, #7
 8003f9a:	60fb      	str	r3, [r7, #12]
		xTotalHeapSize -= uxAddress - ( size_t ) ucHeap;
 8003f9c:	68ba      	ldr	r2, [r7, #8]
 8003f9e:	68fb      	ldr	r3, [r7, #12]
 8003fa0:	1ad3      	subs	r3, r2, r3
 8003fa2:	4a1f      	ldr	r2, [pc, #124]	; (8004020 <prvHeapInit+0xac>)
 8003fa4:	4413      	add	r3, r2
 8003fa6:	60bb      	str	r3, [r7, #8]
	}

	pucAlignedHeap = ( uint8_t * ) uxAddress;
 8003fa8:	68fb      	ldr	r3, [r7, #12]
 8003faa:	607b      	str	r3, [r7, #4]

	/* xStart is used to hold a pointer to the first item in the list of free
	blocks.  The void cast is used to prevent compiler warnings. */
	xStart.pxNextFreeBlock = ( void * ) pucAlignedHeap;
 8003fac:	4a1d      	ldr	r2, [pc, #116]	; (8004024 <prvHeapInit+0xb0>)
 8003fae:	687b      	ldr	r3, [r7, #4]
 8003fb0:	6013      	str	r3, [r2, #0]
	xStart.xBlockSize = ( size_t ) 0;
 8003fb2:	4b1c      	ldr	r3, [pc, #112]	; (8004024 <prvHeapInit+0xb0>)
 8003fb4:	2200      	movs	r2, #0
 8003fb6:	605a      	str	r2, [r3, #4]

	/* pxEnd is used to mark the end of the list of free blocks and is inserted
	at the end of the heap space. */
	uxAddress = ( ( size_t ) pucAlignedHeap ) + xTotalHeapSize;
 8003fb8:	687b      	ldr	r3, [r7, #4]
 8003fba:	68ba      	ldr	r2, [r7, #8]
 8003fbc:	4413      	add	r3, r2
 8003fbe:	60fb      	str	r3, [r7, #12]
	uxAddress -= xHeapStructSize;
 8003fc0:	2208      	movs	r2, #8
 8003fc2:	68fb      	ldr	r3, [r7, #12]
 8003fc4:	1a9b      	subs	r3, r3, r2
 8003fc6:	60fb      	str	r3, [r7, #12]
	uxAddress &= ~( ( size_t ) portBYTE_ALIGNMENT_MASK );
 8003fc8:	68fb      	ldr	r3, [r7, #12]
 8003fca:	f023 0307 	bic.w	r3, r3, #7
 8003fce:	60fb      	str	r3, [r7, #12]
	pxEnd = ( void * ) uxAddress;
 8003fd0:	68fb      	ldr	r3, [r7, #12]
 8003fd2:	4a15      	ldr	r2, [pc, #84]	; (8004028 <prvHeapInit+0xb4>)
 8003fd4:	6013      	str	r3, [r2, #0]
	pxEnd->xBlockSize = 0;
 8003fd6:	4b14      	ldr	r3, [pc, #80]	; (8004028 <prvHeapInit+0xb4>)
 8003fd8:	681b      	ldr	r3, [r3, #0]
 8003fda:	2200      	movs	r2, #0
 8003fdc:	605a      	str	r2, [r3, #4]
	pxEnd->pxNextFreeBlock = NULL;
 8003fde:	4b12      	ldr	r3, [pc, #72]	; (8004028 <prvHeapInit+0xb4>)
 8003fe0:	681b      	ldr	r3, [r3, #0]
 8003fe2:	2200      	movs	r2, #0
 8003fe4:	601a      	str	r2, [r3, #0]

	/* To start with there is a single free block that is sized to take up the
	entire heap space, minus the space taken by pxEnd. */
	pxFirstFreeBlock = ( void * ) pucAlignedHeap;
 8003fe6:	687b      	ldr	r3, [r7, #4]
 8003fe8:	603b      	str	r3, [r7, #0]
	pxFirstFreeBlock->xBlockSize = uxAddress - ( size_t ) pxFirstFreeBlock;
 8003fea:	683b      	ldr	r3, [r7, #0]
 8003fec:	68fa      	ldr	r2, [r7, #12]
 8003fee:	1ad2      	subs	r2, r2, r3
 8003ff0:	683b      	ldr	r3, [r7, #0]
 8003ff2:	605a      	str	r2, [r3, #4]
	pxFirstFreeBlock->pxNextFreeBlock = pxEnd;
 8003ff4:	4b0c      	ldr	r3, [pc, #48]	; (8004028 <prvHeapInit+0xb4>)
 8003ff6:	681a      	ldr	r2, [r3, #0]
 8003ff8:	683b      	ldr	r3, [r7, #0]
 8003ffa:	601a      	str	r2, [r3, #0]

	/* Only one block exists - and it covers the entire usable heap space. */
	xMinimumEverFreeBytesRemaining = pxFirstFreeBlock->xBlockSize;
 8003ffc:	683b      	ldr	r3, [r7, #0]
 8003ffe:	685b      	ldr	r3, [r3, #4]
 8004000:	4a0a      	ldr	r2, [pc, #40]	; (800402c <prvHeapInit+0xb8>)
 8004002:	6013      	str	r3, [r2, #0]
	xFreeBytesRemaining = pxFirstFreeBlock->xBlockSize;
 8004004:	683b      	ldr	r3, [r7, #0]
 8004006:	685b      	ldr	r3, [r3, #4]
 8004008:	4a09      	ldr	r2, [pc, #36]	; (8004030 <prvHeapInit+0xbc>)
 800400a:	6013      	str	r3, [r2, #0]

	/* Work out the position of the top bit in a size_t variable. */
	xBlockAllocatedBit = ( ( size_t ) 1 ) << ( ( sizeof( size_t ) * heapBITS_PER_BYTE ) - 1 );
 800400c:	4b09      	ldr	r3, [pc, #36]	; (8004034 <prvHeapInit+0xc0>)
 800400e:	f04f 4200 	mov.w	r2, #2147483648	; 0x80000000
 8004012:	601a      	str	r2, [r3, #0]
}
 8004014:	bf00      	nop
 8004016:	3714      	adds	r7, #20
 8004018:	46bd      	mov	sp, r7
 800401a:	f85d 7b04 	ldr.w	r7, [sp], #4
 800401e:	4770      	bx	lr
 8004020:	20000d1c 	.word	0x20000d1c
 8004024:	2000491c 	.word	0x2000491c
 8004028:	20004924 	.word	0x20004924
 800402c:	2000492c 	.word	0x2000492c
 8004030:	20004928 	.word	0x20004928
 8004034:	20004930 	.word	0x20004930

08004038 <prvInsertBlockIntoFreeList>:
/*-----------------------------------------------------------*/

static void prvInsertBlockIntoFreeList( BlockLink_t *pxBlockToInsert )
{
 8004038:	b480      	push	{r7}
 800403a:	b085      	sub	sp, #20
 800403c:	af00      	add	r7, sp, #0
 800403e:	6078      	str	r0, [r7, #4]
BlockLink_t *pxIterator;
uint8_t *puc;

	/* Iterate through the list until a block is found that has a higher address
	than the block being inserted. */
	for( pxIterator = &xStart; pxIterator->pxNextFreeBlock < pxBlockToInsert; pxIterator = pxIterator->pxNextFreeBlock )
 8004040:	4b28      	ldr	r3, [pc, #160]	; (80040e4 <prvInsertBlockIntoFreeList+0xac>)
 8004042:	60fb      	str	r3, [r7, #12]
 8004044:	e002      	b.n	800404c <prvInsertBlockIntoFreeList+0x14>
 8004046:	68fb      	ldr	r3, [r7, #12]
 8004048:	681b      	ldr	r3, [r3, #0]
 800404a:	60fb      	str	r3, [r7, #12]
 800404c:	68fb      	ldr	r3, [r7, #12]
 800404e:	681b      	ldr	r3, [r3, #0]
 8004050:	687a      	ldr	r2, [r7, #4]
 8004052:	429a      	cmp	r2, r3
 8004054:	d8f7      	bhi.n	8004046 <prvInsertBlockIntoFreeList+0xe>
		/* Nothing to do here, just iterate to the right position. */
	}

	/* Do the block being inserted, and the block it is being inserted after
	make a contiguous block of memory? */
	puc = ( uint8_t * ) pxIterator;
 8004056:	68fb      	ldr	r3, [r7, #12]
 8004058:	60bb      	str	r3, [r7, #8]
	if( ( puc + pxIterator->xBlockSize ) == ( uint8_t * ) pxBlockToInsert )
 800405a:	68fb      	ldr	r3, [r7, #12]
 800405c:	685b      	ldr	r3, [r3, #4]
 800405e:	68ba      	ldr	r2, [r7, #8]
 8004060:	4413      	add	r3, r2
 8004062:	687a      	ldr	r2, [r7, #4]
 8004064:	429a      	cmp	r2, r3
 8004066:	d108      	bne.n	800407a <prvInsertBlockIntoFreeList+0x42>
	{
		pxIterator->xBlockSize += pxBlockToInsert->xBlockSize;
 8004068:	68fb      	ldr	r3, [r7, #12]
 800406a:	685a      	ldr	r2, [r3, #4]
 800406c:	687b      	ldr	r3, [r7, #4]
 800406e:	685b      	ldr	r3, [r3, #4]
 8004070:	441a      	add	r2, r3
 8004072:	68fb      	ldr	r3, [r7, #12]
 8004074:	605a      	str	r2, [r3, #4]
		pxBlockToInsert = pxIterator;
 8004076:	68fb      	ldr	r3, [r7, #12]
 8004078:	607b      	str	r3, [r7, #4]
		mtCOVERAGE_TEST_MARKER();
	}

	/* Do the block being inserted, and the block it is being inserted before
	make a contiguous block of memory? */
	puc = ( uint8_t * ) pxBlockToInsert;
 800407a:	687b      	ldr	r3, [r7, #4]
 800407c:	60bb      	str	r3, [r7, #8]
	if( ( puc + pxBlockToInsert->xBlockSize ) == ( uint8_t * ) pxIterator->pxNextFreeBlock )
 800407e:	687b      	ldr	r3, [r7, #4]
 8004080:	685b      	ldr	r3, [r3, #4]
 8004082:	68ba      	ldr	r2, [r7, #8]
 8004084:	441a      	add	r2, r3
 8004086:	68fb      	ldr	r3, [r7, #12]
 8004088:	681b      	ldr	r3, [r3, #0]
 800408a:	429a      	cmp	r2, r3
 800408c:	d118      	bne.n	80040c0 <prvInsertBlockIntoFreeList+0x88>
	{
		if( pxIterator->pxNextFreeBlock != pxEnd )
 800408e:	68fb      	ldr	r3, [r7, #12]
 8004090:	681a      	ldr	r2, [r3, #0]
 8004092:	4b15      	ldr	r3, [pc, #84]	; (80040e8 <prvInsertBlockIntoFreeList+0xb0>)
 8004094:	681b      	ldr	r3, [r3, #0]
 8004096:	429a      	cmp	r2, r3
 8004098:	d00d      	beq.n	80040b6 <prvInsertBlockIntoFreeList+0x7e>
		{
			/* Form one big block from the two blocks. */
			pxBlockToInsert->xBlockSize += pxIterator->pxNextFreeBlock->xBlockSize;
 800409a:	687b      	ldr	r3, [r7, #4]
 800409c:	685a      	ldr	r2, [r3, #4]
 800409e:	68fb      	ldr	r3, [r7, #12]
 80040a0:	681b      	ldr	r3, [r3, #0]
 80040a2:	685b      	ldr	r3, [r3, #4]
 80040a4:	441a      	add	r2, r3
 80040a6:	687b      	ldr	r3, [r7, #4]
 80040a8:	605a      	str	r2, [r3, #4]
			pxBlockToInsert->pxNextFreeBlock = pxIterator->pxNextFreeBlock->pxNextFreeBlock;
 80040aa:	68fb      	ldr	r3, [r7, #12]
 80040ac:	681b      	ldr	r3, [r3, #0]
 80040ae:	681a      	ldr	r2, [r3, #0]
 80040b0:	687b      	ldr	r3, [r7, #4]
 80040b2:	601a      	str	r2, [r3, #0]
 80040b4:	e008      	b.n	80040c8 <prvInsertBlockIntoFreeList+0x90>
		}
		else
		{
			pxBlockToInsert->pxNextFreeBlock = pxEnd;
 80040b6:	4b0c      	ldr	r3, [pc, #48]	; (80040e8 <prvInsertBlockIntoFreeList+0xb0>)
 80040b8:	681a      	ldr	r2, [r3, #0]
 80040ba:	687b      	ldr	r3, [r7, #4]
 80040bc:	601a      	str	r2, [r3, #0]
 80040be:	e003      	b.n	80040c8 <prvInsertBlockIntoFreeList+0x90>
		}
	}
	else
	{
		pxBlockToInsert->pxNextFreeBlock = pxIterator->pxNextFreeBlock;
 80040c0:	68fb      	ldr	r3, [r7, #12]
 80040c2:	681a      	ldr	r2, [r3, #0]
 80040c4:	687b      	ldr	r3, [r7, #4]
 80040c6:	601a      	str	r2, [r3, #0]

	/* If the block being inserted plugged a gab, so was merged with the block
	before and the block after, then it's pxNextFreeBlock pointer will have
	already been set, and should not be set here as that would make it point
	to itself. */
	if( pxIterator != pxBlockToInsert )
 80040c8:	68fa      	ldr	r2, [r7, #12]
 80040ca:	687b      	ldr	r3, [r7, #4]
 80040cc:	429a      	cmp	r2, r3
 80040ce:	d002      	beq.n	80040d6 <prvInsertBlockIntoFreeList+0x9e>
	{
		pxIterator->pxNextFreeBlock = pxBlockToInsert;
 80040d0:	68fb      	ldr	r3, [r7, #12]
 80040d2:	687a      	ldr	r2, [r7, #4]
 80040d4:	601a      	str	r2, [r3, #0]
	}
	else
	{
		mtCOVERAGE_TEST_MARKER();
	}
}
 80040d6:	bf00      	nop
 80040d8:	3714      	adds	r7, #20
 80040da:	46bd      	mov	sp, r7
 80040dc:	f85d 7b04 	ldr.w	r7, [sp], #4
 80040e0:	4770      	bx	lr
 80040e2:	bf00      	nop
 80040e4:	2000491c 	.word	0x2000491c
 80040e8:	20004924 	.word	0x20004924

080040ec <__libc_init_array>:
 80040ec:	b570      	push	{r4, r5, r6, lr}
 80040ee:	4e0d      	ldr	r6, [pc, #52]	; (8004124 <__libc_init_array+0x38>)
 80040f0:	4c0d      	ldr	r4, [pc, #52]	; (8004128 <__libc_init_array+0x3c>)
 80040f2:	1ba4      	subs	r4, r4, r6
 80040f4:	10a4      	asrs	r4, r4, #2
 80040f6:	2500      	movs	r5, #0
 80040f8:	42a5      	cmp	r5, r4
 80040fa:	d109      	bne.n	8004110 <__libc_init_array+0x24>
 80040fc:	4e0b      	ldr	r6, [pc, #44]	; (800412c <__libc_init_array+0x40>)
 80040fe:	4c0c      	ldr	r4, [pc, #48]	; (8004130 <__libc_init_array+0x44>)
 8004100:	f000 f82c 	bl	800415c <_init>
 8004104:	1ba4      	subs	r4, r4, r6
 8004106:	10a4      	asrs	r4, r4, #2
 8004108:	2500      	movs	r5, #0
 800410a:	42a5      	cmp	r5, r4
 800410c:	d105      	bne.n	800411a <__libc_init_array+0x2e>
 800410e:	bd70      	pop	{r4, r5, r6, pc}
 8004110:	f856 3025 	ldr.w	r3, [r6, r5, lsl #2]
 8004114:	4798      	blx	r3
 8004116:	3501      	adds	r5, #1
 8004118:	e7ee      	b.n	80040f8 <__libc_init_array+0xc>
 800411a:	f856 3025 	ldr.w	r3, [r6, r5, lsl #2]
 800411e:	4798      	blx	r3
 8004120:	3501      	adds	r5, #1
 8004122:	e7f2      	b.n	800410a <__libc_init_array+0x1e>
 8004124:	08004204 	.word	0x08004204
 8004128:	08004204 	.word	0x08004204
 800412c:	08004204 	.word	0x08004204
 8004130:	08004208 	.word	0x08004208

08004134 <memcpy>:
 8004134:	b510      	push	{r4, lr}
 8004136:	1e43      	subs	r3, r0, #1
 8004138:	440a      	add	r2, r1
 800413a:	4291      	cmp	r1, r2
 800413c:	d100      	bne.n	8004140 <memcpy+0xc>
 800413e:	bd10      	pop	{r4, pc}
 8004140:	f811 4b01 	ldrb.w	r4, [r1], #1
 8004144:	f803 4f01 	strb.w	r4, [r3, #1]!
 8004148:	e7f7      	b.n	800413a <memcpy+0x6>

0800414a <memset>:
 800414a:	4402      	add	r2, r0
 800414c:	4603      	mov	r3, r0
 800414e:	4293      	cmp	r3, r2
 8004150:	d100      	bne.n	8004154 <memset+0xa>
 8004152:	4770      	bx	lr
 8004154:	f803 1b01 	strb.w	r1, [r3], #1
 8004158:	e7f9      	b.n	800414e <memset+0x4>
	...

0800415c <_init>:
 800415c:	b5f8      	push	{r3, r4, r5, r6, r7, lr}
 800415e:	bf00      	nop
 8004160:	bcf8      	pop	{r3, r4, r5, r6, r7}
 8004162:	bc08      	pop	{r3}
 8004164:	469e      	mov	lr, r3
 8004166:	4770      	bx	lr

08004168 <_fini>:
 8004168:	b5f8      	push	{r3, r4, r5, r6, r7, lr}
 800416a:	bf00      	nop
 800416c:	bcf8      	pop	{r3, r4, r5, r6, r7}
 800416e:	bc08      	pop	{r3}
 8004170:	469e      	mov	lr, r3
 8004172:	4770      	bx	lr
